libclamav.so.11:ARMT_Convert
libclamav.so.11:ARM_Convert
libclamav.so.11:Bcj2_Decode
libclamav.so.11:BraState_Free
libclamav.so.11:BraState_Init
libclamav.so.11:BraState_SetFromMethod
libclamav.so.11:BraState_SetProps
libclamav.so.11:Buf_Create
libclamav.so.11:Buf_Free
libclamav.so.11:Buf_Init
libclamav.so.11:Crc64Calc
libclamav.so.11:Crc64GenerateTable
libclamav.so.11:Crc64Update
libclamav.so.11:CrcCalc
libclamav.so.11:CrcUpdate
libclamav.so.11:Delta_Decode
libclamav.so.11:Delta_Encode
libclamav.so.11:Delta_Init
libclamav.so.11:DynBuf_Construct
libclamav.so.11:DynBuf_Free
libclamav.so.11:DynBuf_SeekToBeg
libclamav.so.11:DynBuf_Write
libclamav.so.11:FileInStream_CreateVTable
libclamav.so.11:FileOutStream_CreateVTable
libclamav.so.11:FileSeqInStream_CreateVTable
libclamav.so.11:File_Close
libclamav.so.11:File_Construct
libclamav.so.11:File_Read
libclamav.so.11:File_Seek
libclamav.so.11:File_Write
libclamav.so.11:IA64_Convert
libclamav.so.11:InFile_Open
libclamav.so.11:LookInStream_LookRead
libclamav.so.11:LookInStream_Read
libclamav.so.11:LookInStream_Read2
libclamav.so.11:LookInStream_SeekTo
libclamav.so.11:LookToRead_CreateVTable
libclamav.so.11:LookToRead_Init
libclamav.so.11:Lzma2Dec_Allocate
libclamav.so.11:Lzma2Dec_AllocateProbs
libclamav.so.11:Lzma2Dec_DecodeToBuf
libclamav.so.11:Lzma2Dec_DecodeToDic
libclamav.so.11:Lzma2Dec_Init
libclamav.so.11:Lzma2Decode
libclamav.so.11:LzmaDec_Allocate
libclamav.so.11:LzmaDec_AllocateProbs
libclamav.so.11:LzmaDec_DecodeToBuf
libclamav.so.11:LzmaDec_DecodeToDic
libclamav.so.11:LzmaDec_Free
libclamav.so.11:LzmaDec_FreeProbs
libclamav.so.11:LzmaDec_Init
libclamav.so.11:LzmaDec_InitDicAndState
libclamav.so.11:LzmaDecode
libclamav.so.11:LzmaProps_Decode
libclamav.so.11:MixCoder_Code
libclamav.so.11:MixCoder_Construct
libclamav.so.11:MixCoder_Free
libclamav.so.11:MixCoder_Init
libclamav.so.11:MixCoder_SetFromMethod
libclamav.so.11:OutFile_Open
libclamav.so.11:PPC_Convert
libclamav.so.11:Ppmd7_Alloc
libclamav.so.11:Ppmd7_Construct
libclamav.so.11:Ppmd7_DecodeSymbol
libclamav.so.11:Ppmd7_Free
libclamav.so.11:Ppmd7_Init
libclamav.so.11:Ppmd7_MakeEscFreq
libclamav.so.11:Ppmd7_Update1
libclamav.so.11:Ppmd7_Update1_0
libclamav.so.11:Ppmd7_Update2
libclamav.so.11:Ppmd7_UpdateBin
libclamav.so.11:Ppmd7z_RangeDec_CreateVTable
libclamav.so.11:Ppmd7z_RangeDec_Init
libclamav.so.11:SPARC_Convert
libclamav.so.11:SecToLook_CreateVTable
libclamav.so.11:SecToRead_CreateVTable
libclamav.so.11:SeqInStream_Read
libclamav.so.11:SeqInStream_Read2
libclamav.so.11:SeqInStream_ReadByte
libclamav.so.11:SzAlloc
libclamav.so.11:SzAllocTemp
libclamav.so.11:SzArEx_Extract
libclamav.so.11:SzArEx_Free
libclamav.so.11:SzArEx_GetFileNameUtf16
libclamav.so.11:SzArEx_GetFolderFullPackSize
libclamav.so.11:SzArEx_GetFolderStreamPos
libclamav.so.11:SzArEx_Init
libclamav.so.11:SzArEx_Open
libclamav.so.11:SzAr_Free
libclamav.so.11:SzAr_Init
libclamav.so.11:SzCoderInfo_Free
libclamav.so.11:SzCoderInfo_Init
libclamav.so.11:SzFile_Init
libclamav.so.11:SzFolder_Decode
libclamav.so.11:SzFolder_FindBindPairForInStream
libclamav.so.11:SzFolder_FindBindPairForOutStream
libclamav.so.11:SzFolder_Free
libclamav.so.11:SzFolder_GetNumOutStreams
libclamav.so.11:SzFolder_GetUnpackSize
libclamav.so.11:SzFolder_Init
libclamav.so.11:SzFree
libclamav.so.11:SzFreeTemp
libclamav.so.11:XzBlock_Parse
libclamav.so.11:XzBlock_ReadHeader
libclamav.so.11:XzCheck_Final
libclamav.so.11:XzCheck_Init
libclamav.so.11:XzCheck_Update
libclamav.so.11:XzDec_Init
libclamav.so.11:XzFlags_GetCheckSize
libclamav.so.11:XzUnpacker_Code
libclamav.so.11:XzUnpacker_Create
libclamav.so.11:XzUnpacker_Free
libclamav.so.11:XzUnpacker_IsStreamWasFinished
libclamav.so.11:Xz_Construct
libclamav.so.11:Xz_Free
libclamav.so.11:Xz_GetPackSize
libclamav.so.11:Xz_GetUnpackSize
libclamav.so.11:Xz_ParseHeader
libclamav.so.11:Xz_ReadHeader
libclamav.so.11:Xz_ReadVarInt
libclamav.so.11:Xz_WriteVarInt
libclamav.so.11:Xzs_Construct
libclamav.so.11:Xzs_Free
libclamav.so.11:Xzs_GetNumBlocks
libclamav.so.11:Xzs_GetUnpackSize
libclamav.so.11:Xzs_ReadBackward
libclamav.so.11:_ZN100_$LT$$RF$std..os..unix..net..stream..UnixStream$u20$as$u20$std..sys..unix..kernel_copy..CopyRead$GT$10properties17h18b3202887b8398eE
libclamav.so.11:_ZN100_$LT$alloc..ffi..c_str..CString$u20$as$u20$core..convert..From$LT$$RF$core..ffi..c_str..CStr$GT$$GT$4from17h73dcba4c89818bd5E
libclamav.so.11:_ZN100_$LT$core..ascii..EscapeDefault$u20$as$u20$core..iter..traits..double_ended..DoubleEndedIterator$GT$9next_back17hc975e31f83d9afe5E
libclamav.so.11:_ZN100_$LT$libc..unix..linux_like..linux..gnu..b64..x86_64.._libc_fpxreg$u20$as$u20$core..clone..Clone$GT$5clone17h068256bcab21d93cE
libclamav.so.11:_ZN100_$LT$libc..unix..linux_like..linux..gnu..b64..x86_64.._libc_xmmreg$u20$as$u20$core..clone..Clone$GT$5clone17h9f2e4c7d85f1bc5cE
libclamav.so.11:_ZN100_$LT$miniz_oxide..inflate..stream..MinReset$u20$as$u20$miniz_oxide..inflate..stream..ResetPolicy$GT$5reset17h526c281f7e2a4eb9E
libclamav.so.11:_ZN100_$LT$miniz_oxide..inflate..stream..MinReset$u20$as$u20$miniz_oxide..inflate..stream..ResetPolicy$GT$5reset17h62baf2ba9e6489b9E
libclamav.so.11:_ZN100_$LT$std..fs..Metadata$u20$as$u20$std..sys_common..FromInner$LT$std..sys..unix..fs..FileAttr$GT$$GT$10from_inner17h71aa39965d99d10cE
libclamav.so.11:_ZN100_$LT$std..sys..unix..args..Args$u20$as$u20$core..iter..traits..double_ended..DoubleEndedIterator$GT$9next_back17h67127f02d03996caE
libclamav.so.11:_ZN100_$LT$std..sys..unix..time..SystemTime$u20$as$u20$core..convert..From$LT$libc..unix..timespec$GT$$GT$4from17h443c122166331576E
libclamav.so.11:_ZN101_$LT$$RF$std..os..unix..net..stream..UnixStream$u20$as$u20$std..sys..unix..kernel_copy..CopyWrite$GT$10properties17h719304a2d29b4c3eE
libclamav.so.11:_ZN101_$LT$core..char..CaseMappingIter$u20$as$u20$core..iter..traits..double_ended..DoubleEndedIterator$GT$9next_back17hdb2232f3e69ebedaE
libclamav.so.11:_ZN101_$LT$libc..unix..linux_like..linux..gnu..b64..x86_64.._libc_fpstate$u20$as$u20$core..clone..Clone$GT$5clone17h1e6dbd4f51aad086E
libclamav.so.11:_ZN101_$LT$std..os..unix..net..addr..SocketAddr$u20$as$u20$std..os..net..linux_ext..addr..SocketAddrExt$GT$16as_abstract_name17h7a28ad68bff30e4dE
libclamav.so.11:_ZN101_$LT$std..process..ExitStatusError$u20$as$u20$core..convert..Into$LT$std..process..ExitStatus$GT$$GT$4into17h3d4686dc7a89a47eE
libclamav.so.11:_ZN101_$LT$std..sys..unix..process..process_inner..ExitStatus$u20$as$u20$core..convert..From$LT$i32$GT$$GT$4from17h44d660e74358f6e7E
libclamav.so.11:_ZN102_$LT$$u5b$tiff..encoder..tiff_value..Rational$u5d$$u20$as$u20$tiff..encoder..tiff_value..TiffValue$GT$4data17h11f9a082fd0e0290E
libclamav.so.11:_ZN102_$LT$$u5b$tiff..encoder..tiff_value..Rational$u5d$$u20$as$u20$tiff..encoder..tiff_value..TiffValue$GT$5count17h8ea5683f65d7ebc3E
libclamav.so.11:_ZN102_$LT$exr..compression..piz..huffman..build_encoding_table..HeapFrequency$u20$as$u20$core..cmp..Ord$GT$3cmp17h73fd5d650fe4f5ceE
libclamav.so.11:_ZN102_$LT$image..color..ExtendedColorType$u20$as$u20$core..convert..From$LT$image..color..ColorType$GT$$GT$4from17h01d1c0addfcb4c72E
libclamav.so.11:_ZN102_$LT$image..error..ImageFormatHint$u20$as$u20$core..convert..From$LT$image..image..ImageFormat$GT$$GT$4from17h2d1fc24ef13ad0a1E
libclamav.so.11:_ZN102_$LT$libc..unix..linux_like..linux..__c_anonymous_sockaddr_can_j1939$u20$as$u20$core..clone..Clone$GT$5clone17hf45dfd1b768bc70fE
libclamav.so.11:_ZN102_$LT$libc..unix..linux_like..linux..gnu..b64..x86_64..pthread_attr_t$u20$as$u20$core..clone..Clone$GT$5clone17haeb27ae591771439E
libclamav.so.11:_ZN102_$LT$png..encoder..FormatError$u20$as$u20$core..convert..From$LT$png..encoder..FormatErrorKind$GT$$GT$4from17hfac1a0265b936f4cE
libclamav.so.11:_ZN103_$LT$$u5b$tiff..encoder..tiff_value..SRational$u5d$$u20$as$u20$tiff..encoder..tiff_value..TiffValue$GT$4data17h42763706b4b3068dE
libclamav.so.11:_ZN103_$LT$$u5b$tiff..encoder..tiff_value..SRational$u5d$$u20$as$u20$tiff..encoder..tiff_value..TiffValue$GT$5count17h825307cb950e2268E
libclamav.so.11:_ZN103_$LT$core..array..TryFromSliceError$u20$as$u20$core..convert..From$LT$core..convert..Infallible$GT$$GT$4from17hdd1c6fa80901fc55E
libclamav.so.11:_ZN103_$LT$std..sync..mpsc..TryRecvError$u20$as$u20$core..convert..From$LT$std..sync..mpsc..RecvError$GT$$GT$4from17h41dae88a2e743166E
libclamav.so.11:_ZN103_$LT$tiff..error..TiffError$u20$as$u20$core..convert..From$LT$core..num..error..TryFromIntError$GT$$GT$4from17h85988502f3b911f5E
libclamav.so.11:_ZN103_$LT$tiff..error..TiffError$u20$as$u20$core..convert..From$LT$tiff..error..TiffUnsupportedError$GT$$GT$4from17h1637b507462e9597E
libclamav.so.11:_ZN104_$LT$$RF$$u5b$std..net..socket_addr..SocketAddr$u5d$$u20$as$u20$std..net..socket_addr..ToSocketAddrs$GT$15to_socket_addrs17h146f1f233237d684E
libclamav.so.11:_ZN104_$LT$gif..encoder..EncodingError$u20$as$u20$core..convert..From$LT$gif..encoder..FormatErrorKind$GT$$GT$4from17hcd87c4fcb1b1b170E
libclamav.so.11:_ZN104_$LT$gif..reader..decoder..DecodingError$u20$as$u20$core..convert..From$LT$std..io..error..Error$GT$$GT$4from17h30c7d43346dd5ca8E
libclamav.so.11:_ZN104_$LT$image..codecs..gif..GifFrameIterator$LT$R$GT$$u20$as$u20$core..iter..traits..iterator..Iterator$GT$4next23blend_and_dispose_pixel17hede470b35e320fdfE
libclamav.so.11:_ZN104_$LT$image..codecs..pnm..encoder..FlatSamples$u20$as$u20$core..convert..From$LT$$RF$$u5b$u8$u5d$$GT$$GT$4from17h52d6d1fd7b575a6bE
libclamav.so.11:_ZN104_$LT$image..image..ImageOutputFormat$u20$as$u20$core..convert..From$LT$image..image..ImageFormat$GT$$GT$4from17hbfde9e719e352279E
libclamav.so.11:_ZN104_$LT$libc..unix..linux_like..linux..gnu..b64..x86_64..not_x32..statvfs$u20$as$u20$core..clone..Clone$GT$5clone17hd04f25a8bf53c75dE
libclamav.so.11:_ZN104_$LT$libc..unix..linux_like..linux..gnu..b64..x86_64..user_regs_struct$u20$as$u20$core..clone..Clone$GT$5clone17h4e0fdfdab22123aeE
libclamav.so.11:_ZN104_$LT$png..decoder..stream..DecodingError$u20$as$u20$core..convert..From$LT$std..io..error..Error$GT$$GT$4from17hcc1897e7d55b2398E
libclamav.so.11:_ZN104_$LT$std..fs..OpenOptions$u20$as$u20$std..sys_common..AsInner$LT$std..sys..unix..fs..OpenOptions$GT$$GT$8as_inner17he2e800943b1687a3E
libclamav.so.11:_ZN104_$LT$std..os..unix..net..ancillary..ScmCredentials$u20$as$u20$core..iter..traits..iterator..Iterator$GT$4next17h8fb90ce226410f23E
libclamav.so.11:_ZN104_$LT$std..sys_common..net..LookupHost$u20$as$u20$core..convert..TryFrom$LT$$LP$$RF$str$C$u16$RP$$GT$$GT$8try_from17hca3e66fddc480458E
libclamav.so.11:_ZN104_$LT$tiff..encoder..compression..deflate..Deflate$u20$as$u20$tiff..encoder..compression..Compression$GT$13get_algorithm17h3f101157067e3245E
libclamav.so.11:_ZN105_$LT$core..slice..ascii..EscapeAscii$u20$as$u20$core..iter..traits..double_ended..DoubleEndedIterator$GT$9next_back17h601b6fc768d40702E
libclamav.so.11:_ZN105_$LT$dyn$u20$core..any..Any$u2b$core..marker..Send$u2b$core..marker..Sync$u20$as$u20$core..fmt..Debug$GT$3fmt17hd36619fc80d524d4E
libclamav.so.11:_ZN105_$LT$exr..image..read..samples..ReadFlatSamples$u20$as$u20$exr..image..read..levels..ReadSamplesLevel$GT$27create_samples_level_reader17hf0ca2e212011e7b1E
libclamav.so.11:_ZN105_$LT$image..codecs..pnm..encoder..FlatSamples$u20$as$u20$core..convert..From$LT$$RF$$u5b$u16$u5d$$GT$$GT$4from17h06707ff0ffbb11e3E
libclamav.so.11:_ZN105_$LT$libc..unix..linux_like..linux..__c_anonymous_sockaddr_can_can_addr$u20$as$u20$core..clone..Clone$GT$5clone17h9a10f521aa82b588E
libclamav.so.11:_ZN105_$LT$libc..unix..linux_like..linux..gnu..b64..x86_64..align..clone_args$u20$as$u20$core..clone..Clone$GT$5clone17h7de536020a44535fE
libclamav.so.11:_ZN105_$LT$std..fs..DirBuilder$u20$as$u20$std..sys_common..AsInnerMut$LT$std..sys..unix..fs..DirBuilder$GT$$GT$12as_inner_mut17h715aa232d656d36eE
libclamav.so.11:_ZN105_$LT$std..os..linux..process..PidFd$u20$as$u20$core..convert..From$LT$std..os..fd..owned..OwnedFd$GT$$GT$4from17hcbedc6e283e2c47dE
libclamav.so.11:_ZN105_$LT$std..sys..unix..fs..File$u20$as$u20$std..sys_common..AsInner$LT$std..sys..unix..fd..FileDesc$GT$$GT$8as_inner17h858b64c62045b043E
libclamav.so.11:_ZN106_$LT$$LT$std..path..Iter$u20$as$u20$core..fmt..Debug$GT$..fmt..DebugHelper$u20$as$u20$core..fmt..Debug$GT$3fmt17ha0e8fce101a444bcE
libclamav.so.11:_ZN106_$LT$alloc..boxed..Box$LT$dyn$u20$core..error..Error$GT$$u20$as$u20$core..convert..From$LT$$RF$str$GT$$GT$4from17h43bb66470a2c51f2E
libclamav.so.11:_ZN106_$LT$core..num..error..TryFromIntError$u20$as$u20$core..convert..From$LT$core..convert..Infallible$GT$$GT$4from17h30713d65694b0f8aE
libclamav.so.11:_ZN106_$LT$exr..image..read..samples..ReadFlatSamples$u20$as$u20$exr..image..read..any_channels..ReadSamples$GT$20create_sample_reader17hc3271d44b2d7d21dE
libclamav.so.11:_ZN106_$LT$libc..unix..linux_like..linux..gnu..b64..x86_64..align..max_align_t$u20$as$u20$core..clone..Clone$GT$5clone17ha385d393bef5b5f6E
libclamav.so.11:_ZN106_$LT$libc..unix..linux_like..linux..gnu..b64..x86_64..user_fpregs_struct$u20$as$u20$core..clone..Clone$GT$5clone17ha18ddb76b0107e7fE
libclamav.so.11:_ZN106_$LT$miniz_oxide..deflate..core..TDEFLFlush$u20$as$u20$core..convert..From$LT$miniz_oxide..MZFlush$GT$$GT$4from17h531f26fe1b28c51bE
libclamav.so.11:_ZN106_$LT$miniz_oxide..deflate..core..TDEFLFlush$u20$as$u20$core..convert..From$LT$miniz_oxide..MZFlush$GT$$GT$4from17hdef78043d2617ec1E
libclamav.so.11:_ZN106_$LT$png..common..ParameterError$u20$as$u20$core..convert..From$LT$png..common..ParameterErrorKind$GT$$GT$4from17h778c41aa0595977dE
libclamav.so.11:_ZN106_$LT$tiff..encoder..compression..packbits..Packbits$u20$as$u20$tiff..encoder..compression..Compression$GT$13get_algorithm17ha45763d77a04fdbbE
libclamav.so.11:_ZN107_$LT$exr..image..write..samples..FlatSamplesWriter$u20$as$u20$exr..image..write..samples..SamplesWriter$GT$12extract_line17hd5433535eadc6853E
libclamav.so.11:_ZN107_$LT$image..error..UnsupportedError$u20$as$u20$core..convert..From$LT$image..error..ImageFormatHint$GT$$GT$4from17h7cf918cc30d2cdf7E
libclamav.so.11:_ZN107_$LT$libc..unix..linux_like..linux..gnu..b64..x86_64..seccomp_notif_sizes$u20$as$u20$core..clone..Clone$GT$5clone17h138a14fd4c8d7762E
libclamav.so.11:_ZN107_$LT$object..read..pe..relocation..RelocationIterator$u20$as$u20$core..iter..traits..iterator..Iterator$GT$4next17h4fb04dcbec86c9d0E
libclamav.so.11:_ZN107_$LT$std..fs..OpenOptions$u20$as$u20$std..sys_common..AsInnerMut$LT$std..sys..unix..fs..OpenOptions$GT$$GT$12as_inner_mut17h93c436b18d597c1bE
libclamav.so.11:_ZN107_$LT$std..process..ChildStdin$u20$as$u20$std..sys_common..AsInner$LT$std..sys..unix..pipe..AnonPipe$GT$$GT$8as_inner17ha339e68c0482be6fE
libclamav.so.11:_ZN107_$LT$std..sync..mpsc..RecvTimeoutError$u20$as$u20$core..convert..From$LT$std..sync..mpsc..RecvError$GT$$GT$4from17h2ab1fcc8f40a48aaE
libclamav.so.11:_ZN107_$LT$std..sys..unix..fs..File$u20$as$u20$std..sys_common..FromInner$LT$std..sys..unix..fd..FileDesc$GT$$GT$10from_inner17h6f5e437bc461894eE
libclamav.so.11:_ZN107_$LT$std..sys..unix..fs..File$u20$as$u20$std..sys_common..IntoInner$LT$std..sys..unix..fd..FileDesc$GT$$GT$10into_inner17hbb15aaae7de45e69E
libclamav.so.11:_ZN107_$LT$std..sys..unix..os_str..Buf$u20$as$u20$std..sys_common..IntoInner$LT$alloc..vec..Vec$LT$u8$GT$$GT$$GT$10into_inner17hcbc6aa91232a5f93E
libclamav.so.11:_ZN107_$LT$std..sys_common..process..CommandEnvs$u20$as$u20$core..iter..traits..exact_size..ExactSizeIterator$GT$3len17h5e599526f480f961E
libclamav.so.11:_ZN107_$LT$std..sys_common..process..CommandEnvs$u20$as$u20$core..iter..traits..exact_size..ExactSizeIterator$GT$8is_empty17h94b937d3f7eba613E
libclamav.so.11:_ZN108_$LT$$RF$std..os..unix..net..listener..UnixListener$u20$as$u20$core..iter..traits..collect..IntoIterator$GT$9into_iter17h00250660e64d2a2fE
libclamav.so.11:_ZN108_$LT$exr..image..recursive..NoneMore$u20$as$u20$exr..image..read..specific_channels..ReadSpecificChannel$GT$23create_recursive_reader17h54f1a65508e3ddc6E
libclamav.so.11:_ZN108_$LT$gif..encoder..EncodingError$u20$as$u20$core..convert..From$LT$gif..encoder..EncodingFormatError$GT$$GT$4from17he8a84e26001062ccE
libclamav.so.11:_ZN108_$LT$image..codecs..hdr..encoder..NorunCombineIterator$u20$as$u20$core..iter..traits..iterator..Iterator$GT$4next17h9c791d3bf2aa6af7E
libclamav.so.11:_ZN108_$LT$smallvec..CollectionAllocErr$u20$as$u20$core..convert..From$LT$core..alloc..layout..LayoutError$GT$$GT$4from17hf1dba343db118b75E
libclamav.so.11:_ZN108_$LT$std..fs..Permissions$u20$as$u20$std..sys_common..AsInner$LT$std..sys..unix..fs..FilePermissions$GT$$GT$8as_inner17hb029f704cba9ceccE
libclamav.so.11:_ZN108_$LT$std..net..tcp..TcpStream$u20$as$u20$std..sys_common..AsInner$LT$std..sys_common..net..TcpStream$GT$$GT$8as_inner17h4bb972fea92efb1eE
libclamav.so.11:_ZN108_$LT$std..net..udp..UdpSocket$u20$as$u20$std..sys_common..AsInner$LT$std..sys_common..net..UdpSocket$GT$$GT$8as_inner17hab31abda0b83509dE
libclamav.so.11:_ZN108_$LT$std..process..ChildStderr$u20$as$u20$std..sys_common..AsInner$LT$std..sys..unix..pipe..AnonPipe$GT$$GT$8as_inner17h70dfbd7911f686d4E
libclamav.so.11:_ZN108_$LT$std..process..ChildStdout$u20$as$u20$std..sys_common..AsInner$LT$std..sys..unix..pipe..AnonPipe$GT$$GT$8as_inner17h5d4b93b025db5095E
libclamav.so.11:_ZN108_$LT$std..sys..unix..fd..FileDesc$u20$as$u20$std..sys_common..AsInner$LT$std..os..fd..owned..OwnedFd$GT$$GT$8as_inner17hff964583bc3b0ee9E
libclamav.so.11:_ZN108_$LT$std..sys..unix..fs..File$u20$as$u20$std..sys_common..AsInnerMut$LT$std..sys..unix..fd..FileDesc$GT$$GT$12as_inner_mut17h295c6fd73624aaddE
libclamav.so.11:_ZN108_$LT$std..sys..unix..net..Socket$u20$as$u20$std..sys_common..AsInner$LT$std..sys..unix..fd..FileDesc$GT$$GT$8as_inner17h5f2c62b2d52e2f67E
libclamav.so.11:_ZN108_$LT$std..time..SystemTime$u20$as$u20$std..sys_common..FromInner$LT$std..sys..unix..time..SystemTime$GT$$GT$10from_inner17h4c5f26a921c673bfE
libclamav.so.11:_ZN108_$LT$std..time..SystemTime$u20$as$u20$std..sys_common..IntoInner$LT$std..sys..unix..time..SystemTime$GT$$GT$10into_inner17h950c00f29652dc67E
libclamav.so.11:_ZN109_$LT$exr..compression..piz..huffman..build_encoding_table..HeapFrequency$u20$as$u20$core..cmp..PartialOrd$GT$11partial_cmp17h9b18ac1b803e1251E
libclamav.so.11:_ZN109_$LT$exr..image..recursive..NoneMore$u20$as$u20$exr..image..read..specific_channels..RecursivePixelReader$GT$16get_descriptions17hae7bf64f85ad888bE
libclamav.so.11:_ZN109_$LT$std..net..ip_addr..Ipv6Addr$u20$as$u20$std..sys_common..IntoInner$LT$libc..unix..align..in6_addr$GT$$GT$10into_inner17h675aaa8b826c5465E
libclamav.so.11:_ZN109_$LT$std..process..ChildStdin$u20$as$u20$std..sys_common..FromInner$LT$std..sys..unix..pipe..AnonPipe$GT$$GT$10from_inner17h8246a193125afb8dE
libclamav.so.11:_ZN109_$LT$std..process..ChildStdin$u20$as$u20$std..sys_common..IntoInner$LT$std..sys..unix..pipe..AnonPipe$GT$$GT$10into_inner17h7d1c335d72257f4cE
libclamav.so.11:_ZN10rayon_core10initialize17hc9b7708a976192b8E
libclamav.so.11:_ZN10rayon_core11thread_pool10ThreadPool3new17h06e7d6e13803d261E
libclamav.so.11:_ZN10rayon_core13Configuration10stack_size17he3ae2439f2707ba2E
libclamav.so.11:_ZN10rayon_core13Configuration11num_threads17h563f997f21f6572eE
libclamav.so.11:_ZN10rayon_core13Configuration13breadth_first17h8b630b4c5f7781d4E
libclamav.so.11:_ZN10rayon_core13Configuration3new17h276a9cc8add54c90E
libclamav.so.11:_ZN10rayon_core13Configuration5build17h9e69634ec3903573E
libclamav.so.11:_ZN10rayon_core15max_num_threads17hce8e8941a7536530E
libclamav.so.11:_ZN10rayon_core17ThreadPoolBuilder3new17h4b01917e49081c42E
libclamav.so.11:_ZN10rayon_core19current_num_threads17h31270b11cc7035f8E
libclamav.so.11:_ZN10rayon_core20ThreadPoolBuildError3new17h34f8735ad7b0ff09E
libclamav.so.11:_ZN10rayon_core3job7JobFifo4push17ha88af22af8f35ac0E
libclamav.so.11:_ZN10rayon_core4join23join_recover_from_panic17he0f56da8bbec8535E
libclamav.so.11:_ZN10rayon_core5latch9LockLatch14wait_and_reset17hb3441d0313cf3af1E
libclamav.so.11:_ZN10rayon_core5scope10ScopeLatch10with_count17h5f88322b07ffce81E
libclamav.so.11:_ZN10rayon_core5scope10ScopeLatch4wait17h413b972592891959E
libclamav.so.11:_ZN10rayon_core5scope5Scope3new17h0f4feda9cf2d7924E
libclamav.so.11:_ZN10rayon_core5scope9ScopeBase12job_panicked17he8c6b356588e697bE
libclamav.so.11:_ZN10rayon_core5scope9ScopeBase21maybe_propagate_panic17h038974596044ba60E
libclamav.so.11:_ZN10rayon_core5scope9ScopeBase9increment17h0134831252cd4ba8E
libclamav.so.11:_ZN10rayon_core5scope9ScopeFifo3new17ha37bb89658ff406eE
libclamav.so.11:_ZN10rayon_core5sleep5Sleep16wake_any_threads17hbcf03228faab3922E
libclamav.so.11:_ZN10rayon_core5sleep5Sleep26notify_worker_latch_is_set17h5562d15356173ae5E
libclamav.so.11:_ZN10rayon_core5sleep5Sleep3new17h9f13a7dd0b811f4eE
libclamav.so.11:_ZN10rayon_core6unwind16resume_unwinding17heb660160b02b0adbE
libclamav.so.11:_ZN10rayon_core8registry10ThreadInfo3new17hf72a4389a701e467E
libclamav.so.11:_ZN10rayon_core8registry12WorkerThread15wait_until_cold17h7d65f5cc1790b488E
libclamav.so.11:_ZN10rayon_core8registry13ThreadBuilder10stack_size17h2a4826efe3e5e265E
libclamav.so.11:_ZN10rayon_core8registry13ThreadBuilder3run17hce3d220307d422f2E
libclamav.so.11:_ZN10rayon_core8registry13ThreadBuilder4name17h8b72ea80c958253fE
libclamav.so.11:_ZN10rayon_core8registry13ThreadBuilder5index17hefcd4383064c7534E
libclamav.so.11:_ZN10rayon_core8registry15global_registry17h110cc85fb6a2e823E
libclamav.so.11:_ZN10rayon_core8registry8Registry11num_threads17h249a4173f54128edE
libclamav.so.11:_ZN10rayon_core8registry8Registry14current_thread17h1c84a432e9fd99e2E
libclamav.so.11:_ZN10rayon_core8registry8Registry14inject_or_push17hc23fa1c671d1c70cE
libclamav.so.11:_ZN10rayon_core8registry8Registry17wait_until_primed17h3ebab010ebf4a5ebE
libclamav.so.11:_ZN10rayon_core8registry8Registry25increment_terminate_count17hd81a40d09191140cE
libclamav.so.11:_ZN10rayon_core8registry8Registry26notify_worker_latch_is_set17hfa5e81abb4f87364E
libclamav.so.11:_ZN10rayon_core8registry8Registry2id17h00882f082e98d7a8E
libclamav.so.11:_ZN10rayon_core8registry8Registry6inject17h1b904f6490d6ebe9E
libclamav.so.11:_ZN10rayon_core8registry8Registry7current17hcf59c003b6a9020fE
libclamav.so.11:_ZN10rayon_core8registry8Registry9terminate17he41078f3a94c78d1E
libclamav.so.11:_ZN10std_detect6detect4arch3x867Feature6to_str17h61f4dfc48eddc775E
libclamav.so.11:_ZN10std_detect6detect5cache21detect_and_initialize17he978bbef61bd37aaE
libclamav.so.11:_ZN10std_detect6detect8features17h0aa6ef1fb5023b42E
libclamav.so.11:_ZN10threadpool10ThreadPool11panic_count17h2802054cf925389fE
libclamav.so.11:_ZN10threadpool10ThreadPool11set_threads17hb8a108cd79abd045E
libclamav.so.11:_ZN10threadpool10ThreadPool12active_count17h1461bfc06dd8c80aE
libclamav.so.11:_ZN10threadpool10ThreadPool12queued_count17ha9f455bf48064025E
libclamav.so.11:_ZN10threadpool10ThreadPool15set_num_threads17h3eb2e29aa30c5680E
libclamav.so.11:_ZN10threadpool10ThreadPool3new17h05894d884c0cfdf7E
libclamav.so.11:_ZN10threadpool10ThreadPool4join17h563a29e36c85851dE
libclamav.so.11:_ZN10threadpool10ThreadPool9max_count17hed7931edbf226b7fE
libclamav.so.11:_ZN10threadpool10ThreadPool9with_name17h8f5564062a1a27caE
libclamav.so.11:_ZN10threadpool7Builder11num_threads17hd8b1a59056e6a1daE
libclamav.so.11:_ZN10threadpool7Builder11thread_name17h0354950cea32f818E
libclamav.so.11:_ZN10threadpool7Builder17thread_stack_size17h29277cc6eb9388f2E
libclamav.so.11:_ZN10threadpool7Builder3new17h12bf3bf69f8f375fE
libclamav.so.11:_ZN10threadpool7Builder5build17h0e05499ef2d5f7d6E
libclamav.so.11:_ZN110_$LT$$LT$png..chunk..ChunkType$u20$as$u20$core..fmt..Debug$GT$..fmt..DebugType$u20$as$u20$core..fmt..Debug$GT$3fmt17h66eae353f04dba80E
libclamav.so.11:_ZN110_$LT$alloc..collections..btree..set_val..SetValZST$u20$as$u20$alloc..collections..btree..set_val..IsSetVal$GT$10is_set_val17hd0729d0b54932ae7E
libclamav.so.11:_ZN110_$LT$exr..image..read..samples..FlatSamplesReader$u20$as$u20$exr..image..read..any_channels..SamplesReader$GT$12filter_block17h6e9d9038d8bf69bbE
libclamav.so.11:_ZN110_$LT$exr..image..read..samples..FlatSamplesReader$u20$as$u20$exr..image..read..any_channels..SamplesReader$GT$12into_samples17hc6c3cd98ca51e3c2E
libclamav.so.11:_ZN110_$LT$exr..image..read..samples..FlatSamplesReader$u20$as$u20$exr..image..read..any_channels..SamplesReader$GT$9read_line17h0c459e0b09bd7940E
libclamav.so.11:_ZN110_$LT$gif..encoder..EncodingFormatError$u20$as$u20$core..convert..From$LT$gif..encoder..FormatErrorKind$GT$$GT$4from17ha9877442a6c7e755E
libclamav.so.11:_ZN110_$LT$image..codecs..pnm..header..BitmapHeader$u20$as$u20$image..codecs..pnm..decoder..DecodableImageHeader$GT$10tuple_type17hf7f22a4b073642c8E
libclamav.so.11:_ZN110_$LT$image..codecs..pnm..header..PixmapHeader$u20$as$u20$image..codecs..pnm..decoder..DecodableImageHeader$GT$10tuple_type17h946cf4ef9c8535cbE
libclamav.so.11:_ZN110_$LT$std..fs..Permissions$u20$as$u20$std..sys_common..FromInner$LT$std..sys..unix..fs..FilePermissions$GT$$GT$10from_inner17ha01c8f65e2f8685fE
libclamav.so.11:_ZN110_$LT$std..net..tcp..TcpStream$u20$as$u20$std..sys_common..FromInner$LT$std..sys_common..net..TcpStream$GT$$GT$10from_inner17h2cf62ac090aa12a8E
libclamav.so.11:_ZN110_$LT$std..net..tcp..TcpStream$u20$as$u20$std..sys_common..IntoInner$LT$std..sys_common..net..TcpStream$GT$$GT$10into_inner17h7071a5747d3a7904E
libclamav.so.11:_ZN110_$LT$std..net..udp..UdpSocket$u20$as$u20$std..sys_common..FromInner$LT$std..sys_common..net..UdpSocket$GT$$GT$10from_inner17hd158b56479aa53c9E
libclamav.so.11:_ZN110_$LT$std..net..udp..UdpSocket$u20$as$u20$std..sys_common..IntoInner$LT$std..sys_common..net..UdpSocket$GT$$GT$10into_inner17h71abea0208a6672eE
libclamav.so.11:_ZN110_$LT$std..process..ChildStderr$u20$as$u20$std..sys_common..FromInner$LT$std..sys..unix..pipe..AnonPipe$GT$$GT$10from_inner17hd3f44d2d524cf681E
libclamav.so.11:_ZN110_$LT$std..process..ChildStderr$u20$as$u20$std..sys_common..IntoInner$LT$std..sys..unix..pipe..AnonPipe$GT$$GT$10into_inner17had349311f1b135b4E
libclamav.so.11:_ZN110_$LT$std..process..ChildStdout$u20$as$u20$std..sys_common..FromInner$LT$std..sys..unix..pipe..AnonPipe$GT$$GT$10from_inner17h0fbb33c1bb33ac51E
libclamav.so.11:_ZN110_$LT$std..process..ChildStdout$u20$as$u20$std..sys_common..IntoInner$LT$std..sys..unix..pipe..AnonPipe$GT$$GT$10into_inner17h136cdb18f07f2189E
libclamav.so.11:_ZN110_$LT$std..sys..unix..fd..FileDesc$u20$as$u20$std..sys_common..FromInner$LT$std..os..fd..owned..OwnedFd$GT$$GT$10from_inner17h1da13f97ecea9494E
libclamav.so.11:_ZN110_$LT$std..sys..unix..fd..FileDesc$u20$as$u20$std..sys_common..IntoInner$LT$std..os..fd..owned..OwnedFd$GT$$GT$10into_inner17h29fb910f03cdc5e6E
libclamav.so.11:_ZN110_$LT$std..sys..unix..net..Socket$u20$as$u20$std..sys_common..FromInner$LT$std..sys..unix..fd..FileDesc$GT$$GT$10from_inner17h64420c1333004d38E
libclamav.so.11:_ZN110_$LT$std..sys..unix..net..Socket$u20$as$u20$std..sys_common..IntoInner$LT$std..sys..unix..fd..FileDesc$GT$$GT$10into_inner17hfb7453de42f290efE
libclamav.so.11:_ZN111_$LT$image..codecs..pnm..header..GraymapHeader$u20$as$u20$image..codecs..pnm..decoder..DecodableImageHeader$GT$10tuple_type17h19858f7a933aaa0aE
libclamav.so.11:_ZN111_$LT$std..io..buffered..bufwriter..BufWriter$LT$W$GT$..flush_buf..BufGuard$u20$as$u20$core..ops..drop..Drop$GT$4drop17ha00e7d7e77070ec4E
libclamav.so.11:_ZN111_$LT$std..os..linux..process..PidFd$u20$as$u20$std..sys_common..AsInner$LT$std..sys..unix..fd..FileDesc$GT$$GT$8as_inner17h74b2c7eaae21f716E
libclamav.so.11:_ZN111_$LT$std..sys..unix..process..process_common..CommandArgs$u20$as$u20$core..iter..traits..iterator..Iterator$GT$4next17h01c608f2c1ec5e90E
libclamav.so.11:_ZN111_$LT$std..sys..unix..process..process_common..CommandArgs$u20$as$u20$core..iter..traits..iterator..Iterator$GT$9size_hint17h6967852756154a1fE
libclamav.so.11:_ZN111_$LT$std..sys_common..net..TcpStream$u20$as$u20$std..sys_common..AsInner$LT$std..sys..unix..net..Socket$GT$$GT$8as_inner17h0de6722cec1e6710E
libclamav.so.11:_ZN112_$LT$$LT$std..path..Components$u20$as$u20$core..fmt..Debug$GT$..fmt..DebugHelper$u20$as$u20$core..fmt..Debug$GT$3fmt17hd8d1eb1eca8d2f78E
libclamav.so.11:_ZN112_$LT$png..encoder..EncodingError$u20$as$u20$core..convert..From$LT$png..text_metadata..TextEncodingError$GT$$GT$4from17h88c82680b9ee404bE
libclamav.so.11:_ZN112_$LT$std..net..tcp..TcpListener$u20$as$u20$std..sys_common..AsInner$LT$std..sys_common..net..TcpListener$GT$$GT$8as_inner17h1e7e86e0c6b681b3E
libclamav.so.11:_ZN113_$LT$exr..block..lines..LineIndex..lines_in_block..LineIter$u20$as$u20$core..iter..traits..iterator..Iterator$GT$4next17hf68e52db94dbf906E
libclamav.so.11:_ZN113_$LT$image..codecs..pnm..header..ArbitraryHeader$u20$as$u20$image..codecs..pnm..decoder..DecodableImageHeader$GT$10tuple_type17h4e4da65d832f1a42E
libclamav.so.11:_ZN113_$LT$libc..unix..linux_like..linux..gnu..__c_anonymous_ptrace_syscall_info_data$u20$as$u20$core..clone..Clone$GT$5clone17h25429dc1a0957790E
libclamav.so.11:_ZN113_$LT$libc..unix..linux_like..linux..gnu..__c_anonymous_ptrace_syscall_info_exit$u20$as$u20$core..clone..Clone$GT$5clone17hcc3a7c92b2dead11E
libclamav.so.11:_ZN113_$LT$libc..unix..linux_like..linux..gnu..b64..x86_64..ptrace_rseq_configuration$u20$as$u20$core..clone..Clone$GT$5clone17hcb6ba34e0036f617E
libclamav.so.11:_ZN113_$LT$std..net..ip_addr..Ipv4Addr$u20$as$u20$std..sys_common..FromInner$LT$libc..unix..linux_like..in_addr$GT$$GT$10from_inner17ha4f8f20dfb973809E
libclamav.so.11:_ZN113_$LT$std..os..linux..process..PidFd$u20$as$u20$std..sys_common..FromInner$LT$std..sys..unix..fd..FileDesc$GT$$GT$10from_inner17h9fb16d26fe95a2d5E
libclamav.so.11:_ZN113_$LT$std..os..linux..process..PidFd$u20$as$u20$std..sys_common..IntoInner$LT$std..sys..unix..fd..FileDesc$GT$$GT$10into_inner17h3653ed5bc912db19E
libclamav.so.11:_ZN113_$LT$std..sys..unix..pipe..AnonPipe$u20$as$u20$std..sys_common..IntoInner$LT$std..sys..unix..fd..FileDesc$GT$$GT$10into_inner17hc3c82f4ba5776e30E
libclamav.so.11:_ZN113_$LT$std..sys_common..net..TcpStream$u20$as$u20$std..sys_common..FromInner$LT$std..sys..unix..net..Socket$GT$$GT$10from_inner17hb07f365733613ea7E
libclamav.so.11:_ZN113_$LT$std..sys_common..net..UdpSocket$u20$as$u20$std..sys_common..FromInner$LT$std..sys..unix..net..Socket$GT$$GT$10from_inner17h05db8a8aaa9c841aE
libclamav.so.11:_ZN114_$LT$core..ffi..c_str..CStr$u20$as$u20$core..ops..index..Index$LT$core..ops..range..RangeFrom$LT$usize$GT$$GT$$GT$5index17hbfaa19fdeb609572E
libclamav.so.11:_ZN114_$LT$libc..unix..linux_like..linux..gnu..__c_anonymous_ptrace_syscall_info_entry$u20$as$u20$core..clone..Clone$GT$5clone17hd35dccf4c1e5964dE
libclamav.so.11:_ZN114_$LT$std..net..tcp..TcpListener$u20$as$u20$std..sys_common..FromInner$LT$std..sys_common..net..TcpListener$GT$$GT$10from_inner17h049567a33e97b3f4E
libclamav.so.11:_ZN114_$LT$std..net..tcp..TcpListener$u20$as$u20$std..sys_common..IntoInner$LT$std..sys_common..net..TcpListener$GT$$GT$10into_inner17hb8e2f583dcf35c47E
libclamav.so.11:_ZN114_$LT$tiff..encoder..compression..uncompressed..Uncompressed$u20$as$u20$tiff..encoder..compression..Compression$GT$13get_algorithm17hdaae13672ce02dcbE
libclamav.so.11:_ZN115_$LT$std..sys_common..net..TcpListener$u20$as$u20$std..sys_common..FromInner$LT$std..sys..unix..net..Socket$GT$$GT$10from_inner17h710a6705733523e6E
libclamav.so.11:_ZN115_$LT$tiff..encoder..compression..packbits..Packbits$u20$as$u20$tiff..encoder..compression..CompressionAlgorithm$GT$8write_to11encode_diff17he67d69cff1a0d4d2E
libclamav.so.11:_ZN115_$LT$tiff..encoder..compression..packbits..Packbits$u20$as$u20$tiff..encoder..compression..CompressionAlgorithm$GT$8write_to11encode_rept17hc6005ad3ca3581ecE
libclamav.so.11:_ZN116_$LT$libc..unix..linux_like..linux..gnu..__c_anonymous_ptrace_syscall_info_seccomp$u20$as$u20$core..clone..Clone$GT$5clone17hf5d09ba1d0c6a5a2E
libclamav.so.11:_ZN116_$LT$png..decoder..stream..DecodingError$u20$as$u20$core..convert..From$LT$png..decoder..stream..FormatError$GT$$GT$4from17h9ad2eda4c4e49aecE
libclamav.so.11:_ZN116_$LT$std..net..socket_addr..SocketAddr$u20$as$u20$core..convert..From$LT$std..net..socket_addr..SocketAddrV4$GT$$GT$4from17h5c9b775503666105E
libclamav.so.11:_ZN116_$LT$std..net..socket_addr..SocketAddr$u20$as$u20$core..convert..From$LT$std..net..socket_addr..SocketAddrV6$GT$$GT$4from17h24af72543d8b8370E
libclamav.so.11:_ZN118_$LT$std..sys..unix..process..process_common..Stdio$u20$as$u20$core..convert..From$LT$std..sys..unix..fs..File$GT$$GT$4from17h8b74e58001462f40E
libclamav.so.11:_ZN119_$LT$png..decoder..stream..FormatError$u20$as$u20$core..convert..From$LT$png..decoder..stream..FormatErrorInner$GT$$GT$4from17h3a1f3c181094627bE
libclamav.so.11:_ZN119_$LT$std..process..Child$u20$as$u20$std..sys_common..AsInner$LT$std..sys..unix..process..process_inner..Process$GT$$GT$8as_inner17hf29838decae65e76E
libclamav.so.11:_ZN11color_quant8NeuQuant13color_map_rgb17h88220ca167f4e552E
libclamav.so.11:_ZN11color_quant8NeuQuant14color_map_rgba17h0d0c7133706a260dE
libclamav.so.11:_ZN11color_quant8NeuQuant15search_netindex17h2a30710ce720f38dE
libclamav.so.11:_ZN11color_quant8NeuQuant3new17h2f60a6a008d9ce3bE
libclamav.so.11:_ZN11color_quant8NeuQuant4init17h523018bf84f3275dE
libclamav.so.11:_ZN11color_quant8NeuQuant6lookup17h3d9927f8a88b8a1dE
libclamav.so.11:_ZN11miniz_oxide10DataFormat14to_window_bits17h5f774d7eb064d835E
libclamav.so.11:_ZN11miniz_oxide10DataFormat16from_window_bits17hf78907898840fad9E
libclamav.so.11:_ZN11miniz_oxide155_$LT$impl$u20$core..convert..From$LT$miniz_oxide..StreamResult$GT$$u20$for$u20$core..result..Result$LT$miniz_oxide..MZStatus$C$miniz_oxide..MZError$GT$$GT$4from17h7b89fe4667a6ec3cE
libclamav.so.11:_ZN11miniz_oxide155_$LT$impl$u20$core..convert..From$LT$miniz_oxide..StreamResult$GT$$u20$for$u20$core..result..Result$LT$miniz_oxide..MZStatus$C$miniz_oxide..MZError$GT$$GT$4from17h8d630df43f1e6d39E
libclamav.so.11:_ZN11miniz_oxide159_$LT$impl$u20$core..convert..From$LT$$RF$miniz_oxide..StreamResult$GT$$u20$for$u20$core..result..Result$LT$miniz_oxide..MZStatus$C$miniz_oxide..MZError$GT$$GT$4from17h43513989d85f6ca2E
libclamav.so.11:_ZN11miniz_oxide159_$LT$impl$u20$core..convert..From$LT$$RF$miniz_oxide..StreamResult$GT$$u20$for$u20$core..result..Result$LT$miniz_oxide..MZStatus$C$miniz_oxide..MZError$GT$$GT$4from17h4c390a81490b64a4E
libclamav.so.11:_ZN11miniz_oxide6shared14update_adler3217h07de3ec973f843d4E
libclamav.so.11:_ZN11miniz_oxide6shared14update_adler3217h3ae8e61c95fd10cfE
libclamav.so.11:_ZN11miniz_oxide7MZFlush3new17h828430ff0df92a64E
libclamav.so.11:_ZN11miniz_oxide7MZFlush3new17ha68fb89516e0cc29E
libclamav.so.11:_ZN11miniz_oxide7deflate15compress_to_vec17h440f6dc1b3e2461eE
libclamav.so.11:_ZN11miniz_oxide7deflate15compress_to_vec17h63f40369abe67a91E
libclamav.so.11:_ZN11miniz_oxide7deflate20compress_to_vec_zlib17h3cf5c85818c08bb9E
libclamav.so.11:_ZN11miniz_oxide7deflate20compress_to_vec_zlib17h73aeb4a3732890dfE
libclamav.so.11:_ZN11miniz_oxide7deflate4core10TDEFLFlush3new17h6841924fdcb5089eE
libclamav.so.11:_ZN11miniz_oxide7deflate4core10TDEFLFlush3new17hd7edf4b75abcb6beE
libclamav.so.11:_ZN11miniz_oxide7deflate4core11ParamsOxide3new17h52656fd85f3aee51E
libclamav.so.11:_ZN11miniz_oxide7deflate4core11ParamsOxide3new17h7438418e1e7fe686E
libclamav.so.11:_ZN11miniz_oxide7deflate4core13CallbackOxide17new_callback_func17hf82dbc9c2b426848E
libclamav.so.11:_ZN11miniz_oxide7deflate4core13CallbackOxide17new_callback_func17hf8b95a02335df225E
libclamav.so.11:_ZN11miniz_oxide7deflate4core14compress_inner17h44d7a3aba181589fE
libclamav.so.11:_ZN11miniz_oxide7deflate4core14compress_inner17h6b2fd2503594a0b4E
libclamav.so.11:_ZN11miniz_oxide7deflate4core15CompressorOxide11data_format17h757dd28ba59d6ea8E
libclamav.so.11:_ZN11miniz_oxide7deflate4core15CompressorOxide11data_format17he08d3c9c98644817E
libclamav.so.11:_ZN11miniz_oxide7deflate4core15CompressorOxide18prev_return_status17h0e6241fee2a38bcbE
libclamav.so.11:_ZN11miniz_oxide7deflate4core15CompressorOxide18prev_return_status17h881becfa951e0ba8E
libclamav.so.11:_ZN11miniz_oxide7deflate4core15CompressorOxide20set_format_and_level17h2058c65363160466E
libclamav.so.11:_ZN11miniz_oxide7deflate4core15CompressorOxide20set_format_and_level17h7a3fe31201169e91E
libclamav.so.11:_ZN11miniz_oxide7deflate4core15CompressorOxide21set_compression_level17h6922c9badb033632E
libclamav.so.11:_ZN11miniz_oxide7deflate4core15CompressorOxide21set_compression_level17he0a91873058366bcE
libclamav.so.11:_ZN11miniz_oxide7deflate4core15CompressorOxide25set_compression_level_raw17h6b79599c222f29feE
libclamav.so.11:_ZN11miniz_oxide7deflate4core15CompressorOxide25set_compression_level_raw17h8193a5eca8e1b940E
libclamav.so.11:_ZN11miniz_oxide7deflate4core15CompressorOxide3new17h8d153b9a497ce647E
libclamav.so.11:_ZN11miniz_oxide7deflate4core15CompressorOxide3new17h97fb8dc189dc5f01E
libclamav.so.11:_ZN11miniz_oxide7deflate4core15CompressorOxide5flags17h081a2f799da5a681E
libclamav.so.11:_ZN11miniz_oxide7deflate4core15CompressorOxide5flags17h686857acb8e60db6E
libclamav.so.11:_ZN11miniz_oxide7deflate4core15CompressorOxide5reset17h1b935bc45d62e2f4E
libclamav.so.11:_ZN11miniz_oxide7deflate4core15CompressorOxide5reset17h5417675fa46ac89cE
libclamav.so.11:_ZN11miniz_oxide7deflate4core15CompressorOxide7adler3217h3ed500878b9a4b05E
libclamav.so.11:_ZN11miniz_oxide7deflate4core15CompressorOxide7adler3217hbeead2e6db675861E
libclamav.so.11:_ZN11miniz_oxide7deflate4core33create_comp_flags_from_zip_params17h79f5954b74c10266E
libclamav.so.11:_ZN11miniz_oxide7deflate4core33create_comp_flags_from_zip_params17hc7dd57c379d41c1eE
libclamav.so.11:_ZN11miniz_oxide7deflate4core7LZOxide3new17h7be0462bf5593682E
libclamav.so.11:_ZN11miniz_oxide7deflate4core7LZOxide3new17hc30d1392e23f4b49E
libclamav.so.11:_ZN11miniz_oxide7deflate4core8compress17ha863c60c67deae05E
libclamav.so.11:_ZN11miniz_oxide7deflate4core8compress17hd78564f97465ead1E
libclamav.so.11:_ZN11miniz_oxide7deflate4core9DictOxide3new17h27d83eb12328cf55E
libclamav.so.11:_ZN11miniz_oxide7deflate4core9DictOxide3new17hfadcf505ea0bd238E
libclamav.so.11:_ZN11miniz_oxide7deflate6stream7deflate17h1a4c6c7acb488302E
libclamav.so.11:_ZN11miniz_oxide7deflate6stream7deflate17hc62ae3632ffa7934E
libclamav.so.11:_ZN11miniz_oxide7inflate11TINFLStatus8from_i3217h0506d46b1b8c1f3dE
libclamav.so.11:_ZN11miniz_oxide7inflate11TINFLStatus8from_i3217h5cb4b94d676ec7faE
libclamav.so.11:_ZN11miniz_oxide7inflate23decompress_to_vec_inner17ha8ccb09c674ec90cE
libclamav.so.11:_ZN11miniz_oxide7inflate23decompress_to_vec_inner17hb406af9aa8045f22E
libclamav.so.11:_ZN11miniz_oxide7inflate4core10decompress17h96c4af50fbf53314E
libclamav.so.11:_ZN11miniz_oxide7inflate4core10decompress17hb2812a024c3cc1ddE
libclamav.so.11:_ZN11miniz_oxide7inflate4core12HuffmanTable3new17h5013932e60513dddE
libclamav.so.11:_ZN11miniz_oxide7inflate4core12HuffmanTable3new17hf911bb9288600f16E
libclamav.so.11:_ZN11miniz_oxide7inflate4core17DecompressorOxide3new17h51c2e16b9964a4daE
libclamav.so.11:_ZN11miniz_oxide7inflate4core17DecompressorOxide3new17h8482b26e26f30406E
libclamav.so.11:_ZN11miniz_oxide7inflate4core5State10is_failure17h201d045896fc44f1E
libclamav.so.11:_ZN11miniz_oxide7inflate4core5State10is_failure17h821f49f5677a165bE
libclamav.so.11:_ZN11miniz_oxide7inflate6stream12InflateState11last_status17h5a0ec7761a932cdfE
libclamav.so.11:_ZN11miniz_oxide7inflate6stream12InflateState11last_status17he6beecc8e63b3cccE
libclamav.so.11:_ZN11miniz_oxide7inflate6stream12InflateState12decompressor17h3689b62064a66f3aE
libclamav.so.11:_ZN11miniz_oxide7inflate6stream12InflateState12decompressor17h6ad4838a01575e74E
libclamav.so.11:_ZN11miniz_oxide7inflate6stream12InflateState26new_boxed_with_window_bits17h075ee6f7e8e36aabE
libclamav.so.11:_ZN11miniz_oxide7inflate6stream12InflateState26new_boxed_with_window_bits17haba4099b9aba560aE
libclamav.so.11:_ZN11miniz_oxide7inflate6stream12InflateState3new17h4553bff1a4390a32E
libclamav.so.11:_ZN11miniz_oxide7inflate6stream12InflateState3new17hcea28306afac5a52E
libclamav.so.11:_ZN11miniz_oxide7inflate6stream12InflateState9new_boxed17h3b490522bd8c9caeE
libclamav.so.11:_ZN11miniz_oxide7inflate6stream12InflateState9new_boxed17h9386e83a6d69d375E
libclamav.so.11:_ZN11miniz_oxide7inflate6stream7inflate17h23df3fbc03bee12fE
libclamav.so.11:_ZN11miniz_oxide7inflate6stream7inflate17h6466672c81779e16E
libclamav.so.11:_ZN120_$LT$alloc..boxed..Box$LT$dyn$u20$core..error..Error$GT$$u20$as$u20$core..convert..From$LT$alloc..string..String$GT$$GT$4from17hcc2fb5ce6e9d54f3E
libclamav.so.11:_ZN120_$LT$png..decoder..stream..DecodingError$u20$as$u20$core..convert..From$LT$png..text_metadata..TextDecodingError$GT$$GT$4from17hb709506078c61a8dE
libclamav.so.11:_ZN120_$LT$std..process..Stdio$u20$as$u20$std..sys_common..FromInner$LT$std..sys..unix..process..process_common..Stdio$GT$$GT$10from_inner17hee34a8bb6d54e261E
libclamav.so.11:_ZN121_$LT$image..codecs..ico..decoder..IcoEntryImageFormat$u20$as$u20$core..convert..Into$LT$image..image..ImageFormat$GT$$GT$4into17hab54d9fa10c31075E
libclamav.so.11:_ZN121_$LT$std..process..Child$u20$as$u20$std..sys_common..IntoInner$LT$std..sys..unix..process..process_inner..Process$GT$$GT$10into_inner17ha742b8c555c612a6E
libclamav.so.11:_ZN122_$LT$std..process..Command$u20$as$u20$std..sys_common..AsInner$LT$std..sys..unix..process..process_common..Command$GT$$GT$8as_inner17h36404688dc850119E
libclamav.so.11:_ZN122_$LT$std..sys..unix..process..process_common..CommandArgs$u20$as$u20$core..iter..traits..exact_size..ExactSizeIterator$GT$3len17h42a706b0329a2533E
libclamav.so.11:_ZN122_$LT$std..sys..unix..process..process_common..CommandArgs$u20$as$u20$core..iter..traits..exact_size..ExactSizeIterator$GT$8is_empty17h01394268a5d039ccE
libclamav.so.11:_ZN124_$LT$gif..reader..decoder..DecodingError$u20$as$u20$core..convert..From$LT$gif..reader..decoder..DecodingFormatError$GT$$GT$4from17he06de2e898c7c52dE
libclamav.so.11:_ZN124_$LT$std..process..ExitCode$u20$as$u20$std..sys_common..AsInner$LT$std..sys..unix..process..process_common..ExitCode$GT$$GT$8as_inner17h96e5da0391118439E
libclamav.so.11:_ZN124_$LT$std..sys..unix..process..process_common..Stdio$u20$as$u20$core..convert..From$LT$std..sys..unix..pipe..AnonPipe$GT$$GT$4from17h7cbd53ca89096526E
libclamav.so.11:_ZN125_$LT$image..codecs..pnm..header..PnmHeader$u20$as$u20$core..convert..From$LT$image..codecs..pnm..header..BitmapHeader$GT$$GT$4from17hd22aecda65ce0cf1E
libclamav.so.11:_ZN125_$LT$image..codecs..pnm..header..PnmHeader$u20$as$u20$core..convert..From$LT$image..codecs..pnm..header..PixmapHeader$GT$$GT$4from17ha8217743cfd0bb64E
libclamav.so.11:_ZN125_$LT$std..net..socket_addr..SocketAddrV4$u20$as$u20$std..sys_common..FromInner$LT$libc..unix..linux_like..sockaddr_in$GT$$GT$10from_inner17h69944dc861f2020dE
libclamav.so.11:_ZN125_$LT$std..net..socket_addr..SocketAddrV4$u20$as$u20$std..sys_common..IntoInner$LT$libc..unix..linux_like..sockaddr_in$GT$$GT$10into_inner17hf6349509fcb1a62aE
libclamav.so.11:_ZN125_$LT$std..process..Command$u20$as$u20$std..sys_common..AsInnerMut$LT$std..sys..unix..process..process_common..Command$GT$$GT$12as_inner_mut17h869a7dcf7c9c40a9E
libclamav.so.11:_ZN126_$LT$image..codecs..pnm..header..PnmHeader$u20$as$u20$core..convert..From$LT$image..codecs..pnm..header..GraymapHeader$GT$$GT$4from17h162f3ba1294a7c65E
libclamav.so.11:_ZN126_$LT$std..net..socket_addr..SocketAddrV6$u20$as$u20$std..sys_common..FromInner$LT$libc..unix..linux_like..sockaddr_in6$GT$$GT$10from_inner17h856302e9f0fafb82E
libclamav.so.11:_ZN126_$LT$std..net..socket_addr..SocketAddrV6$u20$as$u20$std..sys_common..IntoInner$LT$libc..unix..linux_like..sockaddr_in6$GT$$GT$10into_inner17h0379b9b1d17b827dE
libclamav.so.11:_ZN126_$LT$std..process..ExitCode$u20$as$u20$std..sys_common..FromInner$LT$std..sys..unix..process..process_common..ExitCode$GT$$GT$10from_inner17hed16fa499d0d893fE
libclamav.so.11:_ZN127_$LT$$LT$core..cell..RefCell$LT$T$GT$$u20$as$u20$core..fmt..Debug$GT$..fmt..BorrowedPlaceholder$u20$as$u20$core..fmt..Debug$GT$3fmt17hb656b6348fa6b375E
libclamav.so.11:_ZN127_$LT$std..process..ExitStatus$u20$as$u20$std..sys_common..AsInner$LT$std..sys..unix..process..process_inner..ExitStatus$GT$$GT$8as_inner17hcc8d69160da2c6baE
libclamav.so.11:_ZN128_$LT$alloc..boxed..Box$LT$dyn$u20$core..error..Error$GT$$u20$as$u20$core..convert..From$LT$alloc..borrow..Cow$LT$str$GT$$GT$$GT$4from17h6590b94841f0acffE
libclamav.so.11:_ZN128_$LT$image..codecs..pnm..header..PnmHeader$u20$as$u20$core..convert..From$LT$image..codecs..pnm..header..ArbitraryHeader$GT$$GT$4from17h9b81ebdc5e461facE
libclamav.so.11:_ZN129_$LT$$LT$std..sync..mutex..Mutex$LT$T$GT$$u20$as$u20$core..fmt..Debug$GT$..fmt..LockedPlaceholder$u20$as$u20$core..fmt..Debug$GT$3fmt17h7dc38365d5bd8649E
libclamav.so.11:_ZN129_$LT$std..process..ExitStatus$u20$as$u20$std..sys_common..FromInner$LT$std..sys..unix..process..process_inner..ExitStatus$GT$$GT$10from_inner17h2692c88b4bf84e42E
libclamav.so.11:_ZN12jpeg_decoder4idct16choose_idct_size17hb9d7f03812780f39E
libclamav.so.11:_ZN12jpeg_decoder6marker6Marker10has_length17h11951224132775a5E
libclamav.so.11:_ZN12jpeg_decoder6marker6Marker7from_u817hafdbf8dff818729eE
libclamav.so.11:_ZN12jpeg_decoder6parser22update_component_sizes17h7d2bfc477d496f8aE
libclamav.so.11:_ZN12jpeg_decoder6parser9FrameInfo16update_idct_size17hf442962f7b60812eE
libclamav.so.11:_ZN12jpeg_decoder6worker9immediate15ImmediateWorker15start_immediate17h32d29b88e52d6107E
libclamav.so.11:_ZN12jpeg_decoder6worker9immediate15ImmediateWorker20append_row_immediate17h8bbcf0aa17e1c2c9E
libclamav.so.11:_ZN12jpeg_decoder6worker9immediate15ImmediateWorker20get_result_immediate17hfdb3daf76da15624E
libclamav.so.11:_ZN12jpeg_decoder7decoder11PixelFormat11pixel_bytes17he864012ec5c6589eE
libclamav.so.11:_ZN12jpeg_decoder7decoder13compute_image17h5c239f6a730fd9ccE
libclamav.so.11:_ZN12jpeg_decoder7decoder8lossless22compute_image_lossless17h0640c5e46eb7eb36E
libclamav.so.11:_ZN12jpeg_decoder7decoder8lossless7predict17h5c4f39d23cccdc80E
libclamav.so.11:_ZN12jpeg_decoder7huffman12HuffmanTable3new17h88081d32579b099bE
libclamav.so.11:_ZN12jpeg_decoder7huffman14HuffmanDecoder3new17haf4f744bc0995ee0E
libclamav.so.11:_ZN12jpeg_decoder7huffman14HuffmanDecoder5reset17h32bbefb0930776e8E
libclamav.so.11:_ZN12jpeg_decoder7huffman25fill_default_mjpeg_tables17h45efab3ad5f25a18E
libclamav.so.11:_ZN12jpeg_decoder7huffman6extend17h8bb6eb86e0041275E
libclamav.so.11:_ZN12jpeg_decoder9upsampler9Upsampler3new17h5355c969051a8f0bE
libclamav.so.11:_ZN12primal_check8is_prime12miller_rabin17had975615b209bdfaE
libclamav.so.11:_ZN12simd_adler327Adler3213from_checksum17h54c6163a6c9f5cdfE
libclamav.so.11:_ZN12simd_adler327Adler323new17ha9deadeea9ddada3E
libclamav.so.11:_ZN12simd_adler327Adler325reset17h73d32a2fe7139052E
libclamav.so.11:_ZN12simd_adler327Adler325write17h47065a7985a0513aE
libclamav.so.11:_ZN12simd_adler327Adler326finish17h2e6cdafc1bfd57ddE
libclamav.so.11:_ZN12zune_inflate7decoder14DeflateDecoder11decode_zlib17h80a346cb55c0435aE
libclamav.so.11:_ZN12zune_inflate7decoder14DeflateDecoder14decode_deflate17h6214fdee6e9900bdE
libclamav.so.11:_ZN12zune_inflate7decoder14DeflateDecoder16new_with_options17hbf17102cb4e40e26E
libclamav.so.11:_ZN12zune_inflate7decoder14DeflateDecoder3new17h2a0718e5cc3e465fE
libclamav.so.11:_ZN12zune_inflate7decoder14DeflateOptions13get_size_hint17h68fe9bb895390beaE
libclamav.so.11:_ZN12zune_inflate7decoder14DeflateOptions13set_size_hint17h1361b151fa94a126E
libclamav.so.11:_ZN12zune_inflate7decoder14DeflateOptions20get_confirm_checksum17h3db6baee22b25ffdE
libclamav.so.11:_ZN12zune_inflate7decoder14DeflateOptions20set_confirm_checksum17he69a3ef3a9630758E
libclamav.so.11:_ZN12zune_inflate7decoder14DeflateOptions9get_limit17hc0519e627bab50b2E
libclamav.so.11:_ZN12zune_inflate7decoder14DeflateOptions9set_limit17hdf8b7069adee203eE
libclamav.so.11:_ZN131_$LT$$LT$std..sync..rwlock..RwLock$LT$T$GT$$u20$as$u20$core..fmt..Debug$GT$..fmt..LockedPlaceholder$u20$as$u20$core..fmt..Debug$GT$3fmt17h24200131a92379feE
libclamav.so.11:_ZN131_$LT$crossbeam_epoch..internal..Local$u20$as$u20$crossbeam_epoch..sync..list..IsElement$LT$crossbeam_epoch..internal..Local$GT$$GT$10element_of17h9ea753bd72423857E
libclamav.so.11:_ZN131_$LT$crossbeam_epoch..internal..Local$u20$as$u20$crossbeam_epoch..sync..list..IsElement$LT$crossbeam_epoch..internal..Local$GT$$GT$8entry_of17hcddaf6a40734a94cE
libclamav.so.11:_ZN131_$LT$crossbeam_epoch..internal..Local$u20$as$u20$crossbeam_epoch..sync..list..IsElement$LT$crossbeam_epoch..internal..Local$GT$$GT$8finalize17h8b6d3565a1522e66E
libclamav.so.11:_ZN131_$LT$exr..image..Layer$LT$exr..image..AnyChannels$LT$exr..image..FlatSamples$GT$$GT$$u20$as$u20$exr..image..crop..InspectSample$GT$14inspect_sample17hc4008a82fd0069b3E
libclamav.so.11:_ZN131_$LT$image..codecs..webp..extended..ExtendedImage..into_frames..FrameIterator$u20$as$u20$core..iter..traits..iterator..Iterator$GT$4next17h1e78c88ded7c72f9E
libclamav.so.11:_ZN136_$LT$$LT$rayon_core..ThreadPoolBuilder$LT$S$GT$$u20$as$u20$core..fmt..Debug$GT$..fmt..ClosurePlaceholder$u20$as$u20$core..fmt..Debug$GT$3fmt17hf01d8726af0170d4E
libclamav.so.11:_ZN136_$LT$std..sys..unix..fs..FileAttr$u20$as$u20$std..sys_common..AsInner$LT$libc..unix..linux_like..linux..gnu..b64..x86_64..stat64$GT$$GT$8as_inner17h97d3d1ae562d9108E
libclamav.so.11:_ZN141_$LT$$LT$image..codecs..webp..decoder..DecoderError$u20$as$u20$core..fmt..Display$GT$..fmt..SignatureWriter$u20$as$u20$core..fmt..Display$GT$3fmt17h1d8e0a88a99ca858E
libclamav.so.11:_ZN145_$LT$gimli..read..abbrev..Attributes$u20$as$u20$core..convert..From$LT$alloc..vec..Vec$LT$gimli..read..abbrev..AttributeSpecification$GT$$GT$$GT$4from17h5541ffd548655b13E
libclamav.so.11:_ZN147_$LT$exr..image..recursive..NoneMore$u20$as$u20$exr..image..write..channels..WritableChannelsDescription$LT$exr..image..recursive..NoneMore$GT$$GT$23create_recursive_writer17hd3d0b0849a31a0bfE
libclamav.so.11:_ZN147_$LT$exr..image..recursive..NoneMore$u20$as$u20$exr..image..write..channels..WritableChannelsDescription$LT$exr..image..recursive..NoneMore$GT$$GT$25channel_descriptions_list17h4e36f49abbe0c665E
libclamav.so.11:_ZN14rustc_demangle12try_demangle17hd035cc543ebacd8fE
libclamav.so.11:_ZN14rustc_demangle2v010HexNibbles19try_parse_str_chars28_$u7b$$u7b$closure$u7d$$u7d$28_$u7b$$u7b$closure$u7d$$u7d$24utf8_len_from_first_byte17hc98da034cfba012dE
libclamav.so.11:_ZN14rustc_demangle8Demangle6as_str17hcf2963568b6c35f1E
libclamav.so.11:_ZN14rustc_demangle8demangle17hbf8f97964a014313E
libclamav.so.11:_ZN153_$LT$std..sys..unix..process..process_inner..ExitStatusError$u20$as$u20$core..convert..Into$LT$std..sys..unix..process..process_inner..ExitStatus$GT$$GT$4into17h0504115d02c9cab2E
libclamav.so.11:_ZN15crossbeam_epoch5guard5Guard5flush17h64dc46dd16fbb3a7E
libclamav.so.11:_ZN15crossbeam_epoch5guard5Guard5repin17h5cebf8a0835f682bE
libclamav.so.11:_ZN15crossbeam_epoch5guard5Guard9collector17he3a2266633f4d8ceE
libclamav.so.11:_ZN15crossbeam_epoch7default17default_collector17hb308156122282d48E
libclamav.so.11:_ZN15crossbeam_epoch7default9collector17h6ecc894d1e1fee4cE
libclamav.so.11:_ZN15crossbeam_epoch8internal5Local5defer17h286b4eb2cc37739cE
libclamav.so.11:_ZN15crossbeam_epoch8internal5Local8finalize17h47c85e608bd4c2c4E
libclamav.so.11:_ZN15crossbeam_epoch8internal6Global7collect17he5ef2c110461714dE
libclamav.so.11:_ZN15crossbeam_epoch9collector9Collector3new17hc5d195842060a5e8E
libclamav.so.11:_ZN15crossbeam_epoch9collector9Collector8register17h1d6fd4f7cde2b0e2E
libclamav.so.11:_ZN15strength_reduce13long_division20divide_128_max_by_6417hbb79eeafeee83c5cE
libclamav.so.11:_ZN15strength_reduce13long_division21divide_256_max_by_12817h44e823c85ea98d60E
libclamav.so.11:_ZN163_$LT$std..sys..unix..process..process_inner..$LT$impl$u20$std..sys..unix..process..process_common..Command$GT$..do_exec..Reset$u20$as$u20$core..ops..drop..Drop$GT$4drop17h1bbca5f8792750a8E
libclamav.so.11:_ZN167_$LT$image..dynimage..DynamicImage$u20$as$u20$core..convert..From$LT$image..buffer_..ImageBuffer$LT$image..color..Rgb$LT$u8$GT$$C$alloc..vec..Vec$LT$u8$GT$$GT$$GT$$GT$4from17h362e4820ec802a9cE
libclamav.so.11:_ZN168_$LT$image..dynimage..DynamicImage$u20$as$u20$core..convert..From$LT$image..buffer_..ImageBuffer$LT$image..color..Luma$LT$u8$GT$$C$alloc..vec..Vec$LT$u8$GT$$GT$$GT$$GT$4from17h311b123fc0eac469E
libclamav.so.11:_ZN168_$LT$image..dynimage..DynamicImage$u20$as$u20$core..convert..From$LT$image..buffer_..ImageBuffer$LT$image..color..Rgba$LT$u8$GT$$C$alloc..vec..Vec$LT$u8$GT$$GT$$GT$$GT$4from17h86333e049c034e3eE
libclamav.so.11:_ZN169_$LT$image..dynimage..DynamicImage$u20$as$u20$core..convert..From$LT$image..buffer_..ImageBuffer$LT$image..color..LumaA$LT$u8$GT$$C$alloc..vec..Vec$LT$u8$GT$$GT$$GT$$GT$4from17h3d173c3b083deb68E
libclamav.so.11:_ZN169_$LT$image..dynimage..DynamicImage$u20$as$u20$core..convert..From$LT$image..buffer_..ImageBuffer$LT$image..color..Rgb$LT$f32$GT$$C$alloc..vec..Vec$LT$f32$GT$$GT$$GT$$GT$4from17ha31fab47bfb8de08E
libclamav.so.11:_ZN169_$LT$image..dynimage..DynamicImage$u20$as$u20$core..convert..From$LT$image..buffer_..ImageBuffer$LT$image..color..Rgb$LT$u16$GT$$C$alloc..vec..Vec$LT$u16$GT$$GT$$GT$$GT$4from17h6919a82064aeccecE
libclamav.so.11:_ZN170_$LT$image..dynimage..DynamicImage$u20$as$u20$core..convert..From$LT$image..buffer_..ImageBuffer$LT$image..color..Luma$LT$f32$GT$$C$alloc..vec..Vec$LT$f32$GT$$GT$$GT$$GT$4from17hf3fd8796407dbb1fE
libclamav.so.11:_ZN170_$LT$image..dynimage..DynamicImage$u20$as$u20$core..convert..From$LT$image..buffer_..ImageBuffer$LT$image..color..Luma$LT$u16$GT$$C$alloc..vec..Vec$LT$u16$GT$$GT$$GT$$GT$4from17h5eb97b46c5b2ab9dE
libclamav.so.11:_ZN170_$LT$image..dynimage..DynamicImage$u20$as$u20$core..convert..From$LT$image..buffer_..ImageBuffer$LT$image..color..Rgba$LT$f32$GT$$C$alloc..vec..Vec$LT$f32$GT$$GT$$GT$$GT$4from17h64f0995e2eb4d208E
libclamav.so.11:_ZN170_$LT$image..dynimage..DynamicImage$u20$as$u20$core..convert..From$LT$image..buffer_..ImageBuffer$LT$image..color..Rgba$LT$u16$GT$$C$alloc..vec..Vec$LT$u16$GT$$GT$$GT$$GT$4from17h6b6e0ca609ac609fE
libclamav.so.11:_ZN171_$LT$image..dynimage..DynamicImage$u20$as$u20$core..convert..From$LT$image..buffer_..ImageBuffer$LT$image..color..LumaA$LT$f32$GT$$C$alloc..vec..Vec$LT$f32$GT$$GT$$GT$$GT$4from17h16cea27f505f054aE
libclamav.so.11:_ZN171_$LT$image..dynimage..DynamicImage$u20$as$u20$core..convert..From$LT$image..buffer_..ImageBuffer$LT$image..color..LumaA$LT$u16$GT$$C$alloc..vec..Vec$LT$u16$GT$$GT$$GT$$GT$4from17h65040e44e281c647E
libclamav.so.11:_ZN174_$LT$alloc..boxed..Box$LT$dyn$u20$core..error..Error$u2b$core..marker..Send$u2b$core..marker..Sync$GT$$u20$as$u20$core..convert..From$LT$alloc..borrow..Cow$LT$str$GT$$GT$$GT$4from17h706810a987a523abE
libclamav.so.11:_ZN175_$LT$exr..image..Layer$LT$exr..image..crop..CroppedChannels$LT$exr..image..AnyChannels$LT$exr..image..FlatSamples$GT$$GT$$GT$$u20$as$u20$exr..image..crop..ApplyCroppedView$GT$18reallocate_cropped17h4c8a46125614e077E
libclamav.so.11:_ZN176_$LT$std..sys..unix..process..process_inner..$LT$impl$u20$std..sys..unix..process..process_common..Command$GT$..posix_spawn..PosixSpawnattr$u20$as$u20$core..ops..drop..Drop$GT$4drop17h8fda6b532ac3b325E
libclamav.so.11:_ZN17scoped_threadpool4Pool12thread_count17ha306a2ee495809dcE
libclamav.so.11:_ZN17scoped_threadpool4Pool3new17h88fdaedc276aaec7E
libclamav.so.11:_ZN17scoped_threadpool5Scope8join_all17h8a9b24a06ca3cf43E
libclamav.so.11:_ZN180_$LT$image..flat..$LT$impl$u20$core..convert..From$LT$image..flat..Error$GT$$u20$for$u20$image..error..ImageError$GT$..from..NormalFormRequiredError$u20$as$u20$core..fmt..Debug$GT$3fmt17h9e0eb80c45f53d2dE
libclamav.so.11:_ZN182_$LT$image..flat..$LT$impl$u20$core..convert..From$LT$image..flat..Error$GT$$u20$for$u20$image..error..ImageError$GT$..from..NormalFormRequiredError$u20$as$u20$core..fmt..Display$GT$3fmt17hc7e4d6344bef38c4E
libclamav.so.11:_ZN183_$LT$std..process..Child$u20$as$u20$std..sys_common..FromInner$LT$$LP$std..sys..unix..process..process_inner..Process$C$std..sys..unix..process..process_common..StdioPipes$RP$$GT$$GT$10from_inner17h3112331b4a60de56E
libclamav.so.11:_ZN183_$LT$std..sys..unix..process..process_inner..$LT$impl$u20$std..sys..unix..process..process_common..Command$GT$..posix_spawn..PosixSpawnFileActions$u20$as$u20$core..ops..drop..Drop$GT$4drop17h4727538eb6ea8a6eE
libclamav.so.11:_ZN221_$LT$$LT$alloc..boxed..Box$LT$dyn$u20$core..error..Error$u2b$core..marker..Send$u2b$core..marker..Sync$GT$$u20$as$u20$core..convert..From$LT$alloc..string..String$GT$$GT$..from..StringError$u20$as$u20$core..fmt..Debug$GT$3fmt17hb57a0f89b3716428E
libclamav.so.11:_ZN223_$LT$$LT$alloc..boxed..Box$LT$dyn$u20$core..error..Error$u2b$core..marker..Send$u2b$core..marker..Sync$GT$$u20$as$u20$core..convert..From$LT$alloc..string..String$GT$$GT$..from..StringError$u20$as$u20$core..error..Error$GT$11description17h5bea761e6908160bE
libclamav.so.11:_ZN223_$LT$$LT$alloc..boxed..Box$LT$dyn$u20$core..error..Error$u2b$core..marker..Send$u2b$core..marker..Sync$GT$$u20$as$u20$core..convert..From$LT$alloc..string..String$GT$$GT$..from..StringError$u20$as$u20$core..fmt..Display$GT$3fmt17h1c940f674258b8feE
libclamav.so.11:_ZN3exr11compression11Compression12supports_nan17he99e7a06d954f59fE
libclamav.so.11:_ZN3exr11compression11Compression14may_loose_data17h4fdfe2bca0c0298cE
libclamav.so.11:_ZN3exr11compression11Compression15is_lossless_for17h4c0010cdb152eac0E
libclamav.so.11:_ZN3exr11compression11Compression18supports_deep_data17h83d264adc8e433a2E
libclamav.so.11:_ZN3exr11compression11Compression20scan_lines_per_block17h7984e19bbaa8b959E
libclamav.so.11:_ZN3exr11compression11Compression22compress_image_section17hb7156a2426177449E
libclamav.so.11:_ZN3exr11compression11Compression24decompress_image_section17h95bae63dd899251eE
libclamav.so.11:_ZN3exr4math15Vec2$LT$i32$GT$8to_usize17h81003858304e9a50E
libclamav.so.11:_ZN3exr4math17Vec2$LT$usize$GT$6to_i3217he49b512cdb4f48eaE
libclamav.so.11:_ZN3exr4meta12Requirements13is_multilayer17h06018f84b599cb57E
libclamav.so.11:_ZN3exr4meta12Requirements8validate17ha81278b18d1bb3d8E
libclamav.so.11:_ZN3exr4meta12sequence_end9byte_size17h59e4a0a60c7b1912E
libclamav.so.11:_ZN3exr4meta14mip_map_levels17h7d7379ec10fa3de7E
libclamav.so.11:_ZN3exr4meta14rip_map_levels17hddcb9ac46dcc219fE
libclamav.so.11:_ZN3exr4meta15mip_map_indices17h89f5cec11688527fE
libclamav.so.11:_ZN3exr4meta15rip_map_indices17hfe97eb303791d18aE
libclamav.so.11:_ZN3exr4meta16BlockDescription9has_tiles17hb295d7baefa89304E
libclamav.so.11:_ZN3exr4meta17missing_attribute17hc8775cf963eee8ebE
libclamav.so.11:_ZN3exr4meta18compute_level_size17h31509ae5ccc92825E
libclamav.so.11:_ZN3exr4meta19compute_block_count17hf3fca9b9268b9717E
libclamav.so.11:_ZN3exr4meta19compute_chunk_count17hd14c5a1845cf12e4E
libclamav.so.11:_ZN3exr4meta19compute_level_count17h4e25a1d246c1d379E
libclamav.so.11:_ZN3exr4meta6header15ImageAttributes3new17h5a0e5b2c6001053bE
libclamav.so.11:_ZN3exr4meta6header15LayerAttributes13with_position17hae08deccf8c0ef19E
libclamav.so.11:_ZN3exr4meta6header6Header11data_window17h9b9fdbb474762112E
libclamav.so.11:_ZN3exr4meta6header6Header13with_encoding17h1339a971bf3a0d10E
libclamav.so.11:_ZN3exr4meta6header6Header13with_position17ha3852cce20a317a3E
libclamav.so.11:_ZN3exr4meta6header6Header15with_attributes17h94d0f44f1be3d627E
libclamav.so.11:_ZN3exr4meta6header6Header17total_pixel_bytes17h1b6c65f8154ade9bE
libclamav.so.11:_ZN3exr4meta6header6Header19max_block_byte_size17h7e08a8fc0350ae4aE
libclamav.so.11:_ZN3exr4meta6header6Header19with_display_window17h3c6f801de55e4697E
libclamav.so.11:_ZN3exr4meta6header6Header20max_block_pixel_size17h97ba5b443995f034E
libclamav.so.11:_ZN3exr4meta6header6Header20max_pixel_file_bytes17h2921d13d8d13bc3eE
libclamav.so.11:_ZN3exr4meta6header6Header22get_block_data_indices17h7a412c0a7020a973E
libclamav.so.11:_ZN3exr4meta6header6Header22with_shared_attributes17hbb7ee5d4708b3930E
libclamav.so.11:_ZN3exr4meta6header6Header24enumerate_ordered_blocks17h0b831f1f5f7114d4E
libclamav.so.11:_ZN3exr4meta6header6Header25blocks_increasing_y_order17hcc8fac5d2285a7b5E
libclamav.so.11:_ZN3exr4meta6header6Header25blocks_increasing_y_order8tiles_of15divide_and_rest17h88eeb914f624b25dE
libclamav.so.11:_ZN3exr4meta6header6Header36get_absolute_block_pixel_coordinates17h77aaf840a86dfc96E
libclamav.so.11:_ZN3exr4meta6header6Header36get_scan_line_block_tile_coordinates17hf32d7840f532e65eE
libclamav.so.11:_ZN3exr4meta6header6Header39get_block_data_window_pixel_coordinates17h96b388321828bc49E
libclamav.so.11:_ZN3exr4meta6header6Header5write12usize_as_i3217hf02f9837af64bfe8E
libclamav.so.11:_ZN3exr4meta6header6Header8validate17h0b014387ec658005E
libclamav.so.11:_ZN3exr4meta8MetaData38enumerate_ordered_header_block_indices17h7d297c117e67311dE
libclamav.so.11:_ZN3exr4meta8MetaData8validate17h90cd9505f5f518b2E
libclamav.so.11:_ZN3exr4meta9attribute10SampleType16bytes_per_sample17h0b1d130f910fc452E
libclamav.so.11:_ZN3exr4meta9attribute10SampleType9byte_size17hf0617c0515e1dec7E
libclamav.so.11:_ZN3exr4meta9attribute11ChannelList21find_index_of_channel17h19de2617bb97409eE
libclamav.so.11:_ZN3exr4meta9attribute11ChannelList25channels_with_byte_offset17hab856e5cbc25d5dcE
libclamav.so.11:_ZN3exr4meta9attribute11ChannelList3new17h7f5f67a0de1f9ff7E
libclamav.so.11:_ZN3exr4meta9attribute11ChannelList8validate17heb29a9a2ed4b1d35E
libclamav.so.11:_ZN3exr4meta9attribute11ChannelList9byte_size17h0266cba4caf2156dE
libclamav.so.11:_ZN3exr4meta9attribute13IntegerBounds11with_origin17hd31f36885fbea271E
libclamav.so.11:_ZN3exr4meta9attribute13IntegerBounds20validate_min_max_u6417h16644fa39e18e323E
libclamav.so.11:_ZN3exr4meta9attribute13IntegerBounds3end17hc6ec4dcef2beb0b4E
libclamav.so.11:_ZN3exr4meta9attribute13IntegerBounds3max17h5f76e93cd05aa9a4E
libclamav.so.11:_ZN3exr4meta9attribute13IntegerBounds4zero17hdd6ed080eaf74b0cE
libclamav.so.11:_ZN3exr4meta9attribute13IntegerBounds8contains17h6ad80810dd378bc1E
libclamav.so.11:_ZN3exr4meta9attribute13IntegerBounds8validate17h8c33a722f473cd58E
libclamav.so.11:_ZN3exr4meta9attribute13IntegerBounds9byte_size17ha275a571d1f79da1E
libclamav.so.11:_ZN3exr4meta9attribute14AttributeValue12to_time_code17h345221cebc7544b3E
libclamav.so.11:_ZN3exr4meta9attribute14AttributeValue17to_chromaticities17h134a6f79564ceb32E
libclamav.so.11:_ZN3exr4meta9attribute14AttributeValue6to_f3217h2d5e7042fe4cd5b1E
libclamav.so.11:_ZN3exr4meta9attribute14AttributeValue6to_i3217h0e395e8e3f8fd163E
libclamav.so.11:_ZN3exr4meta9attribute14AttributeValue7to_text17h1fab88c22ca46bb9E
libclamav.so.11:_ZN3exr4meta9attribute14AttributeValue8validate17h984f339199f9e060E
libclamav.so.11:_ZN3exr4meta9attribute14AttributeValue9byte_size17h9917969bc769611bE
libclamav.so.11:_ZN3exr4meta9attribute14AttributeValue9into_text17hdb6069ccf2938897E
libclamav.so.11:_ZN3exr4meta9attribute14AttributeValue9kind_name17hae253bd3354a5859E
libclamav.so.11:_ZN3exr4meta9attribute14Chromaticities9byte_size17hf091083bd3eaa68eE
libclamav.so.11:_ZN3exr4meta9attribute14EnvironmentMap9byte_size17h808671de2c3823b8E
libclamav.so.11:_ZN3exr4meta9attribute15TileDescription8validate17h496ac049ef669b1dE
libclamav.so.11:_ZN3exr4meta9attribute15TileDescription9byte_size17h101c0803c560e078E
libclamav.so.11:_ZN3exr4meta9attribute18ChannelDescription17subsampled_pixels17h388e5068f21c6f20E
libclamav.so.11:_ZN3exr4meta9attribute18ChannelDescription21subsampled_resolution17habed497457f88dafE
libclamav.so.11:_ZN3exr4meta9attribute18ChannelDescription28guess_quantization_linearity17h9d5a6e472074d6cfE
libclamav.so.11:_ZN3exr4meta9attribute18ChannelDescription8validate17hf7b34f7be13e8978E
libclamav.so.11:_ZN3exr4meta9attribute18ChannelDescription9byte_size17h1319685e16e10620E
libclamav.so.11:_ZN3exr4meta9attribute47_$LT$impl$u20$exr..compression..Compression$GT$9byte_size17hf3dafe30c301decbE
libclamav.so.11:_ZN3exr4meta9attribute4Text14validate_bytes17hf362124d2e665964E
libclamav.so.11:_ZN3exr4meta9attribute4Text19eq_case_insensitive17h21a1030f9cea2e84E
libclamav.so.11:_ZN3exr4meta9attribute4Text19i32_sized_byte_size17hd590487985b2a8b2E
libclamav.so.11:_ZN3exr4meta9attribute4Text20from_bytes_unchecked17he49ca76cc6e936a1E
libclamav.so.11:_ZN3exr4meta9attribute4Text20from_slice_unchecked17h5297ae50668345baE
libclamav.so.11:_ZN3exr4meta9attribute4Text25null_terminated_byte_size17h4d42745a0c2fd76fE
libclamav.so.11:_ZN3exr4meta9attribute4Text2eq17h8d6b0d6228d5683bE
libclamav.so.11:_ZN3exr4meta9attribute4Text5bytes17h4082917e84743a4aE
libclamav.so.11:_ZN3exr4meta9attribute4Text5chars17h0ff725a747aa2ee4E
libclamav.so.11:_ZN3exr4meta9attribute4Text8as_slice17h11930f7f9762beccE
libclamav.so.11:_ZN3exr4meta9attribute4Text8validate17hdc3487a9e072179aE
libclamav.so.11:_ZN3exr4meta9attribute7KeyCode9byte_size17h04737b865f1bc551E
libclamav.so.11:_ZN3exr4meta9attribute7Preview8validate17h002ace9ea150d75aE
libclamav.so.11:_ZN3exr4meta9attribute7Preview9byte_size17hce283c17c4164d46E
libclamav.so.11:_ZN3exr4meta9attribute88_$LT$impl$u20$core..cmp..PartialEq$LT$exr..meta..attribute..Text$GT$$u20$for$u20$str$GT$2eq17hea5b82eb47d6dcf9E
libclamav.so.11:_ZN3exr4meta9attribute8TimeCode14from_tv50_time17h5cca8abadf49c9d8E
libclamav.so.11:_ZN3exr4meta9attribute8TimeCode14from_tv60_time17h002768eefe66d122E
libclamav.so.11:_ZN3exr4meta9attribute8TimeCode16from_film24_time17h82798814850e581eE
libclamav.so.11:_ZN3exr4meta9attribute8TimeCode21pack_time_as_tv50_u3217h7a15d10c7cff1214E
libclamav.so.11:_ZN3exr4meta9attribute8TimeCode21pack_time_as_tv60_u3217hd9ad49e3ee5088edE
libclamav.so.11:_ZN3exr4meta9attribute8TimeCode21pack_user_data_as_u3217he9979720002c075bE
libclamav.so.11:_ZN3exr4meta9attribute8TimeCode23pack_time_as_film24_u3217h8ef16813f0ff4284E
libclamav.so.11:_ZN3exr4meta9attribute8TimeCode8validate17ha9e54f4c68821fb0E
libclamav.so.11:_ZN3exr4meta9attribute8validate17h49d9f1ee6fc22bd9E
libclamav.so.11:_ZN3exr4meta9attribute9BlockType13to_text_bytes17h4fad51f3cdf23b70E
libclamav.so.11:_ZN3exr4meta9attribute9BlockType5parse17h5f2349ef43038eceE
libclamav.so.11:_ZN3exr4meta9attribute9BlockType9byte_size17h4a3b0ed9caf9f3a6E
libclamav.so.11:_ZN3exr4meta9attribute9FloatRect9byte_size17h185af4eb66812697E
libclamav.so.11:_ZN3exr4meta9attribute9LineOrder9byte_size17he39681dab2219af4E
libclamav.so.11:_ZN3exr4meta9attribute9byte_size17h3dbc0ed8d6dd6066E
libclamav.so.11:_ZN3exr5block17UncompressedBlock5lines17hd47a4f183c94efa7E
libclamav.so.11:_ZN3exr5block38enumerate_ordered_header_block_indices17hf11b5ae6cf2ed3eaE
libclamav.so.11:_ZN3exr5block5chunk15TileCoordinates15to_data_indices17h360c293d5168b92fE
libclamav.so.11:_ZN3exr5block5chunk15TileCoordinates19to_absolute_indices17h0a1b6c3d0e2b434eE
libclamav.so.11:_ZN3exr5block5chunk15TileCoordinates27is_largest_resolution_level17h512badf5ab73cb8aE
libclamav.so.11:_ZN3exr5block6reader22validate_offset_tables17h095c1778df7cad6eE
libclamav.so.11:_ZN3exr5block7samples6Sample3f1617h367c4a825d9f47bcE
libclamav.so.11:_ZN3exr5block7samples6Sample3f3217h41047b095f6a4d10E
libclamav.so.11:_ZN3exr5block7samples6Sample3u3217h44dac06ccbafd669E
libclamav.so.11:_ZN3exr5image11FlatSamples13values_as_f3217h5b1bd5dc672e0b9aE
libclamav.so.11:_ZN3exr5image11FlatSamples19value_by_flat_index17h10b7f32aa951f000E
libclamav.so.11:_ZN3exr5image11FlatSamples3len17hdbeb975b0709391aE
libclamav.so.11:_ZN3exr5image11FlatSamples6values17hc827dda66ffbb38dE
libclamav.so.11:_ZN3exr5image15ignore_progress17h232850a3434bf78dE
libclamav.so.11:_ZN3exr5image43SpecificChannels$LT$$LP$$RP$$C$$LP$$RP$$GT$5build17hdf59b07b70603c94E
libclamav.so.11:_ZN3exr5image44Image$LT$exr..image..recursive..NoneMore$GT$5empty17hbf4be714cec0ca9cE
libclamav.so.11:_ZN3exr5image4read11ReadBuilder12no_deep_data17h5a42ab10e4f152faE
libclamav.so.11:_ZN3exr5image4read4read17h66f4fcaf1558d39cE
libclamav.so.11:_ZN3exr5image4read7samples15ReadFlatSamples21all_resolution_levels17habb4cd76b620857fE
libclamav.so.11:_ZN3exr5image4read7samples15ReadFlatSamples24largest_resolution_level17had47f2f035f98a1fE
libclamav.so.11:_ZN3exr5image67Layer$LT$exr..image..AnyChannels$LT$exr..image..FlatSamples$GT$$GT$10samples_at17h1f83f2dd8b857b28E
libclamav.so.11:_ZN3exr5image67Layer$LT$exr..image..AnyChannels$LT$exr..image..FlatSamples$GT$$GT$13sample_vec_at17hfa29cf1f5faaba3eE
libclamav.so.11:_ZN3gif6common12AnyExtension10into_known17h2b7869f636c05871E
libclamav.so.11:_ZN3gif6common14DisposalMethod7from_u817h7a57708fb7e6e59fE
libclamav.so.11:_ZN3gif6common5Block7from_u817h8972b73913e5bd1bE
libclamav.so.11:_ZN3gif6common5Frame14from_rgb_speed17h4660563a6b79737aE
libclamav.so.11:_ZN3gif6common5Frame15from_rgba_speed17hbd1590dd9c4ebb23E
libclamav.so.11:_ZN3gif6common5Frame19from_indexed_pixels17h887b2f4d06268d66E
libclamav.so.11:_ZN3gif6common5Frame19from_palette_pixels17hb72e644f6d51967cE
libclamav.so.11:_ZN3gif6common5Frame8from_rgb17h48ee727853afd1b8E
libclamav.so.11:_ZN3gif6common5Frame9from_rgba17hda7ddc26a56b1171E
libclamav.so.11:_ZN3gif6common9Extension7from_u817h1aaf1c452ca91afcE
libclamav.so.11:_ZN3gif6reader11MemoryLimit11buffer_size17hd0c3eac6bf957bfbE
libclamav.so.11:_ZN3gif6reader13DecodeOptions16set_color_output17heccc898a7405594aE
libclamav.so.11:_ZN3gif6reader13DecodeOptions16set_memory_limit17h4cffd7ae8993d55bE
libclamav.so.11:_ZN3gif6reader13DecodeOptions18check_lzw_end_code17h4f75bc092527578fE
libclamav.so.11:_ZN3gif6reader13DecodeOptions20allow_unknown_blocks17hbd3a61666b698798E
libclamav.so.11:_ZN3gif6reader13DecodeOptions23check_frame_consistency17h5a8b420944f99b20E
libclamav.so.11:_ZN3gif6reader13DecodeOptions3new17h08f84e86aa8d884fE
libclamav.so.11:_ZN3gif6reader7decoder16StreamingDecoder12with_options17hc73ffb5f964f1736E
libclamav.so.11:_ZN3gif6reader7decoder16StreamingDecoder14set_extensions17haa60a692658f928fE
libclamav.so.11:_ZN3gif6reader7decoder16StreamingDecoder3new17h384ffda4d065cebbE
libclamav.so.11:_ZN3gif6reader7decoder16StreamingDecoder5width17h2290883cee06a07dE
libclamav.so.11:_ZN3gif6reader7decoder16StreamingDecoder6height17hd8e0f0a1bc7c2426E
libclamav.so.11:_ZN3gif6reader7decoder16StreamingDecoder6update17h71d9e0138ebdbf8eE
libclamav.so.11:_ZN3gif6reader7decoder16StreamingDecoder7version17h1b62639dbe386db6E
libclamav.so.11:_ZN3gif6reader7decoder16StreamingDecoder8last_ext17h14ef8c1df9e58498E
libclamav.so.11:_ZN3gif7encoder13ExtensionData15new_control_ext17h26138fb41a085084E
libclamav.so.11:_ZN3gif7encoder9flag_size17hb0ec72b13580b40bE
libclamav.so.11:_ZN3hex15BytesToHexChars3new17hde3a9f0f5bff02cfE
libclamav.so.11:_ZN3hex3val17ha68bcd2915e5db14E
libclamav.so.11:_ZN3log10set_logger17h3ab918e5f7729587E
libclamav.so.11:_ZN3log11LevelFilter10from_usize17hca34537729886d31E
libclamav.so.11:_ZN3log11LevelFilter4iter17haffc1311957a59d6E
libclamav.so.11:_ZN3log11LevelFilter6as_str17hb9b12b2ae1da9745E
libclamav.so.11:_ZN3log15set_logger_racy17h69ed1411c45bc391E
libclamav.so.11:_ZN3log16set_boxed_logger17h80952e0f6f21ba2eE
libclamav.so.11:_ZN3log17__private_api_log17h26e033beeb939055E
libclamav.so.11:_ZN3log21__private_api_enabled17h694e1dc4ad38c1d5E
libclamav.so.11:_ZN3log5Level10from_usize17h5b93b3c47c42b621E
libclamav.so.11:_ZN3log5Level4iter17h5753da690332c5baE
libclamav.so.11:_ZN3log5Level6as_str17h5965614f83262a11E
libclamav.so.11:_ZN3log6logger17h394b3982abb7f367E
libclamav.so.11:_ZN3png13text_metadata17encode_iso_8859_117h47982c16efb2ac2dE
libclamav.so.11:_ZN3png13text_metadata22encode_iso_8859_1_into17h063f3658a76677fcE
libclamav.so.11:_ZN3png13text_metadata9ITXtChunk13compress_text17he9fd1a57560e8932E
libclamav.so.11:_ZN3png13text_metadata9ITXtChunk15decompress_text17hccbeaff3fce7bb05E
libclamav.so.11:_ZN3png13text_metadata9ITXtChunk26decompress_text_with_limit17h553feb736ed2a406E
libclamav.so.11:_ZN3png13text_metadata9ITXtChunk8get_text17hbd9c8aeaa61ec9caE
libclamav.so.11:_ZN3png13text_metadata9ZTXtChunk13compress_text17h1118836ec3306f01E
libclamav.so.11:_ZN3png13text_metadata9ZTXtChunk15decompress_text17haaf4c225895b11dcE
libclamav.so.11:_ZN3png13text_metadata9ZTXtChunk26decompress_text_with_limit17h348c4278fd86ee62E
libclamav.so.11:_ZN3png13text_metadata9ZTXtChunk8get_text17h4ed5038ed1686437E
libclamav.so.11:_ZN3png4srgb16substitute_gamma17hb419c4a4b023275bE
libclamav.so.11:_ZN3png4srgb25substitute_chromaticities17ha7eb98e5c2843d19E
libclamav.so.11:_ZN3png5chunk10is_private17h1d34c30175b000a2E
libclamav.so.11:_ZN3png5chunk11is_critical17h18603072e93121d6E
libclamav.so.11:_ZN3png5chunk12reserved_set17h2e70a3ca3b7cfd85E
libclamav.so.11:_ZN3png5chunk12safe_to_copy17hf54bc9ed32a68117E
libclamav.so.11:_ZN3png5utils11expand_pass17hf319ff2b1895f6efE
libclamav.so.11:_ZN3png5utils13Adam7Iterator12current_pass17h125f2c39d5e826cdE
libclamav.so.11:_ZN3png5utils16expand_trns_line17hfb70e7df1a6b85a1E
libclamav.so.11:_ZN3png5utils18expand_trns_line1617h1fb33d6afc075736E
libclamav.so.11:_ZN3png6common11ScaledFloat10into_value17ha47e176f6874b31bE
libclamav.so.11:_ZN3png6common11ScaledFloat11from_scaled17h8cbe71646e44bb43E
libclamav.so.11:_ZN3png6common11ScaledFloat11into_scaled17hbc16b411b1e57b0cE
libclamav.so.11:_ZN3png6common11ScaledFloat3new17hdb2ce9da83f7df20E
libclamav.so.11:_ZN3png6common11ScaledFloat5exact17hd91e1684cdb1bdd9E
libclamav.so.11:_ZN3png6common11ScaledFloat8in_range17h27c89c97014255e9E
libclamav.so.11:_ZN3png6common12FrameControl11inc_seq_num17h03ad9da5aea1a11cE
libclamav.so.11:_ZN3png6common12FrameControl11set_seq_num17h03bf3bad0fce2987E
libclamav.so.11:_ZN3png6common15Transformations19normalize_to_color817h51be7412aa5e4077E
libclamav.so.11:_ZN3png6common19SrgbRenderingIntent8into_raw17h008d93802d349feeE
libclamav.so.11:_ZN3png6common20SourceChromaticities11to_be_bytes17he9202a25389f3508E
libclamav.so.11:_ZN3png6common20SourceChromaticities3new17h14d994e5224b1632E
libclamav.so.11:_ZN3png6common4Info11is_animated17ha3c8c06749a93b9cE
libclamav.so.11:_ZN3png6common4Info13frame_control17h754d67cd68e1e84aE
libclamav.so.11:_ZN3png6common4Info14bits_per_pixel17h243fbc9f6e4d0faaE
libclamav.so.11:_ZN3png6common4Info14raw_row_length17h4e786ca9f6969f34E
libclamav.so.11:_ZN3png6common4Info15bytes_per_pixel17h0d25d116ac941bc5E
libclamav.so.11:_ZN3png6common4Info17animation_control17h4f33786c0576cd96E
libclamav.so.11:_ZN3png6common4Info17bpp_in_prediction17h8867e5d63a2f99a0E
libclamav.so.11:_ZN3png6common4Info22checked_raw_row_length17h8bcf36df263cdba8E
libclamav.so.11:_ZN3png6common4Info25raw_row_length_from_width17hae63a2d9cca95eceE
libclamav.so.11:_ZN3png6common4Info4size17hf8f305c431db0a7fE
libclamav.so.11:_ZN3png6common4Info9raw_bytes17hf9a90fde75d72b67E
libclamav.so.11:_ZN3png6common4Info9with_size17he9d1856977900ea8E
libclamav.so.11:_ZN3png6common4Unit7from_u817h3566274f096fcb0eE
libclamav.so.11:_ZN3png6common7BlendOp7from_u817h2fb91703ed333b47E
libclamav.so.11:_ZN3png6common8BitDepth7from_u817h53ab1e864b7e0765E
libclamav.so.11:_ZN3png6common9ColorType22checked_raw_row_length17h345b1f98a373f7e1E
libclamav.so.11:_ZN3png6common9ColorType22is_combination_invalid17h626f8f704ef0a474E
libclamav.so.11:_ZN3png6common9ColorType25raw_row_length_from_width17h1f34763b5ab801abE
libclamav.so.11:_ZN3png6common9ColorType7from_u817h398f10266b74c246E
libclamav.so.11:_ZN3png6common9ColorType7samples17hcf64a97dafd3a3e2E
libclamav.so.11:_ZN3png6common9DisposeOp7from_u817hcdc01857e8f26bdfE
libclamav.so.11:_ZN3png6filter10FilterType7from_u817h0880fe53eb23f5e3E
libclamav.so.11:_ZN3png6filter6filter17h878e823290bb3226E
libclamav.so.11:_ZN3png6filter8unfilter17h7f757564944cbdd1E
libclamav.so.11:_ZN3png7decoder10OutputInfo11buffer_size17h5ecb8cccfde602f5E
libclamav.so.11:_ZN3png7decoder12SubframeInfo12not_yet_init17h7981d31a0ac5304aE
libclamav.so.11:_ZN3png7decoder12SubframeInfo3new17h571958d86a88a03bE
libclamav.so.11:_ZN3png7decoder13InterlacedRow4data17h44d3c211fde7f45fE
libclamav.so.11:_ZN3png7decoder13InterlacedRow9interlace17h307cf04432783167E
libclamav.so.11:_ZN3png7decoder14expand_gray_u817h49f494725a8e07cdE
libclamav.so.11:_ZN3png7decoder15expand_paletted17hde1e8089b7a69031E
libclamav.so.11:_ZN3png7decoder3Row4data17h5d20a72c81e1ada4E
libclamav.so.11:_ZN3png7decoder6stream114_$LT$impl$u20$core..convert..From$LT$png..decoder..stream..DecodingError$GT$$u20$for$u20$std..io..error..Error$GT$4from17h741ccd512bd68521E
libclamav.so.11:_ZN3png7decoder6stream12DecodeConfig21set_ignore_text_chunk17h588bf944a763023dE
libclamav.so.11:_ZN3png7decoder6stream16StreamingDecoder17set_decode_config17hc80fb23b5e8d9fe2E
libclamav.so.11:_ZN3png7decoder6stream16StreamingDecoder21set_ignore_text_chunk17h72402a0562d7662dE
libclamav.so.11:_ZN3png7decoder6stream16StreamingDecoder3new17hc7019c96f6f0c966E
libclamav.so.11:_ZN3png7decoder6stream16StreamingDecoder4info17hfd56bdbaf9b69fb3E
libclamav.so.11:_ZN3png7decoder6stream16StreamingDecoder5reset17h838fe621fa1850b3E
libclamav.so.11:_ZN3png7decoder6stream16StreamingDecoder6update17h973fae4494e11a8cE
libclamav.so.11:_ZN3png7encoder106_$LT$impl$u20$core..convert..From$LT$png..encoder..EncodingError$GT$$u20$for$u20$std..io..error..Error$GT$4from17hb0807be57f2ee4d0E
libclamav.so.11:_ZN3png7encoder11PartialInfo14raw_row_length17hc44cb0a35cf03218E
libclamav.so.11:_ZN3png7encoder11PartialInfo17bpp_in_prediction17h16e333e759c7426dE
libclamav.so.11:_ZN3png7encoder11PartialInfo25raw_row_length_from_width17h420221eb153adcbaE
libclamav.so.11:_ZN3png7encoder11PartialInfo3new17h0b0cf3e94be9f5edE
libclamav.so.11:_ZN3png7encoder42_$LT$impl$u20$png..common..Compression$GT$10to_options17hc92c91a71676a5bbE
libclamav.so.11:_ZN3std10sys_common11thread_info3set17h5fc71fbe89a62398E
libclamav.so.11:_ZN3std10sys_common2fs10try_exists17hcccfa60696e83f07E
libclamav.so.11:_ZN3std10sys_common3net11TcpListener11into_socket17h81bbb87f72623758E
libclamav.so.11:_ZN3std10sys_common3net11TcpListener4bind17h67c6f6cdcb761b81E
libclamav.so.11:_ZN3std10sys_common3net11TcpListener6socket17hf2f885dc04bb04ecE
libclamav.so.11:_ZN3std10sys_common3net153_$LT$impl$u20$std..sys_common..IntoInner$LT$$LP$std..sys_common..net..SocketAddrCRepr$C$u32$RP$$GT$$u20$for$u20$$RF$std..net..socket_addr..SocketAddr$GT$10into_inner17h53db8ccd79401b1eE
libclamav.so.11:_ZN3std10sys_common3net9TcpStream11into_socket17h5e887442f834a044E
libclamav.so.11:_ZN3std10sys_common3net9TcpStream6socket17h634ac6539c35bfbfE
libclamav.so.11:_ZN3std10sys_common3net9TcpStream7connect17h0937e6e160777bebE
libclamav.so.11:_ZN3std10sys_common3net9UdpSocket11into_socket17hbdfd702c4d47eed0E
libclamav.so.11:_ZN3std10sys_common3net9UdpSocket4bind17h3e6576f04c96160dE
libclamav.so.11:_ZN3std10sys_common3net9UdpSocket6socket17hc49d9faca45d4dc4E
libclamav.so.11:_ZN3std10sys_common3net9UdpSocket7connect17he6ae7e9e57888c53E
libclamav.so.11:_ZN3std10sys_common3net9UdpSocket7send_to17h16a04b3c9593e8c2E
libclamav.so.11:_ZN3std10sys_common4wtf816slice_error_fail17hcb88caae8707aca9E
libclamav.so.11:_ZN3std10sys_common4wtf87Wtf8Buf25push_code_point_unchecked17hff89d9a0f5eafbb2E
libclamav.so.11:_ZN3std10sys_common6thread9min_stack17hb854dcb069776d5fE
libclamav.so.11:_ZN3std10sys_common7process10CommandEnv3set17h522a4f6e9cfc1a34E
libclamav.so.11:_ZN3std10sys_common7process10CommandEnv6remove17h9bc965b15acc2addE
libclamav.so.11:_ZN3std2fs10DirBuilder3new17h2c5defa5f7993aa0E
libclamav.so.11:_ZN3std2fs10DirBuilder7_create17h68309034eb38a8a3E
libclamav.so.11:_ZN3std2fs10DirBuilder9recursive17hcc7f74a7daeacdcaE
libclamav.so.11:_ZN3std2fs11OpenOptions10create_new17h751c31db2d8f1bc3E
libclamav.so.11:_ZN3std2fs11OpenOptions3new17h18a0cdcb53f7b121E
libclamav.so.11:_ZN3std2fs11OpenOptions4read17h78df9feba15f3af7E
libclamav.so.11:_ZN3std2fs11OpenOptions5_open17h44ee6671558c9444E
libclamav.so.11:_ZN3std2fs11OpenOptions5write17hfcdeb54857dc4c1dE
libclamav.so.11:_ZN3std2fs11OpenOptions6append17h13970909279ed70fE
libclamav.so.11:_ZN3std2fs11OpenOptions6create17h1599d937d8ec8226E
libclamav.so.11:_ZN3std2fs11OpenOptions8truncate17h73e074b75866edf1E
libclamav.so.11:_ZN3std2fs11Permissions12set_readonly17h67b4c1bf40697c4cE
libclamav.so.11:_ZN3std2fs11Permissions8readonly17hd929ac100218ff85E
libclamav.so.11:_ZN3std2fs14read_to_string5inner17hb96d7ecec80f2ba4E
libclamav.so.11:_ZN3std2fs4File15set_permissions17hb8634d4ade81baddE
libclamav.so.11:_ZN3std2fs4File7options17h685a52a597fcb869E
libclamav.so.11:_ZN3std2fs4File7set_len17hb0bd63372f9dd58aE
libclamav.so.11:_ZN3std2fs4File8metadata17haf986c01c64331caE
libclamav.so.11:_ZN3std2fs4File8sync_all17h67119b73e87ed076E
libclamav.so.11:_ZN3std2fs4File9set_times17h0e0ab498ba9236a6E
libclamav.so.11:_ZN3std2fs4File9sync_data17h1493b6b8fd0d38c2E
libclamav.so.11:_ZN3std2fs4File9try_clone17he51458d0e384251eE
libclamav.so.11:_ZN3std2fs4read5inner17hcc7e8364e5fc65abE
libclamav.so.11:_ZN3std2fs5write5inner17hc48fd20495278616E
libclamav.so.11:_ZN3std2fs8DirEntry4path17hdd1432ab8ddfb123E
libclamav.so.11:_ZN3std2fs8DirEntry8metadata17h2480729fd5a171e8E
libclamav.so.11:_ZN3std2fs8DirEntry9file_name17h04146a54af3cb091E
libclamav.so.11:_ZN3std2fs8DirEntry9file_type17h32830a1984ee601bE
libclamav.so.11:_ZN3std2fs8FileType10is_symlink17hf17cf1fa10d2efb3E
libclamav.so.11:_ZN3std2fs8FileType6is_dir17h19e85a40203bde57E
libclamav.so.11:_ZN3std2fs8FileType7is_file17hf2da8df5ef2a72ccE
libclamav.so.11:_ZN3std2fs8Metadata10is_symlink17hfd812aa64f42f35eE
libclamav.so.11:_ZN3std2fs8Metadata11permissions17hc47f598b1bb0bcb4E
libclamav.so.11:_ZN3std2fs8Metadata3len17h8de9ed132de13957E
libclamav.so.11:_ZN3std2fs8Metadata6is_dir17h5b79150ea7cbfb67E
libclamav.so.11:_ZN3std2fs8Metadata7created17h5ffe83160c827cb3E
libclamav.so.11:_ZN3std2fs8Metadata7is_file17h7cc8bd0be6caaa49E
libclamav.so.11:_ZN3std2fs8Metadata8accessed17h67c99258fd1f92c7E
libclamav.so.11:_ZN3std2fs8Metadata8modified17hdc880a4211c76de4E
libclamav.so.11:_ZN3std2fs8Metadata9file_type17hf64caa7788eb5d87E
libclamav.so.11:_ZN3std2fs9FileTimes12set_accessed17hb578c2b364da03a9E
libclamav.so.11:_ZN3std2fs9FileTimes12set_modified17he5dbe2d77bb0a7f1E
libclamav.so.11:_ZN3std2fs9FileTimes3new17hbad2c950e9517ef8E
libclamav.so.11:_ZN3std2io4util4sink17h17b63241fe19b437E
libclamav.so.11:_ZN3std2io4util5empty17hb6a9cf5a88024117E
libclamav.so.11:_ZN3std2io4util6repeat17h67d98f93ca837331E
libclamav.so.11:_ZN3std2io5error13SimpleMessage3new17hcbdf07f1f7f9bc03E
libclamav.so.11:_ZN3std2io5error14repr_bitpacked4Repr3new17h3dc6ecfedb500899E
libclamav.so.11:_ZN3std2io5error5Error4_new17h650afa33908031f7E
libclamav.so.11:_ZN3std2io5error83_$LT$impl$u20$core..fmt..Debug$u20$for$u20$std..io..error..repr_bitpacked..Repr$GT$3fmt17h8da7c0b2d7620b71E
libclamav.so.11:_ZN3std2io5stdio18set_output_capture17hf11aa1605b7c1a73E
libclamav.so.11:_ZN3std2io5stdio23attempt_print_to_stderr17h846bbe11171441a4E
libclamav.so.11:_ZN3std2io5stdio5Stdin4lock17h1443155cb81994f2E
libclamav.so.11:_ZN3std2io5stdio5Stdin5lines17ha7349a3bb51dfe1dE
libclamav.so.11:_ZN3std2io5stdio5Stdin9read_line17hb4a0b23fcbeb1557E
libclamav.so.11:_ZN3std2io5stdio5stdin17h0385d0a6fe656cfbE
libclamav.so.11:_ZN3std2io5stdio6Stderr4lock17h4ea71bc02c01cd32E
libclamav.so.11:_ZN3std2io5stdio6Stdout4lock17h75fbab18a8ac3e67E
libclamav.so.11:_ZN3std2io5stdio6_print17h2273e9467793653cE
libclamav.so.11:_ZN3std2io5stdio6stderr17h3a0c88a01fef697dE
libclamav.so.11:_ZN3std2io5stdio6stdout17h7530f4ec6fb29f80E
libclamav.so.11:_ZN3std2io5stdio7_eprint17hb444fde600bdaf5dE
libclamav.so.11:_ZN3std2io5stdio9StdinLock10as_mut_buf17h1c8942a52719afa3E
libclamav.so.11:_ZN3std2io8buffered9bufwriter14WriterPanicked10into_inner17h008180e9a24af6cfE
libclamav.so.11:_ZN3std2io8buffered9bufwriter18BufWriter$LT$W$GT$9flush_buf8BufGuard3new17h9b6d84197619bc5fE
libclamav.so.11:_ZN3std2io8buffered9bufwriter18BufWriter$LT$W$GT$9flush_buf8BufGuard4done17hec7af030af6797f4E
libclamav.so.11:_ZN3std2io8buffered9bufwriter18BufWriter$LT$W$GT$9flush_buf8BufGuard7consume17h23ff793b271116b3E
libclamav.so.11:_ZN3std2io8buffered9bufwriter18BufWriter$LT$W$GT$9flush_buf8BufGuard9remaining17hecfdbe171681f433E
libclamav.so.11:_ZN3std2os2fd5owned10BorrowedFd18try_clone_to_owned17h9374215de86c6a3cE
libclamav.so.11:_ZN3std2os2fd5owned7OwnedFd9try_clone17had77297a0cd7e075E
libclamav.so.11:_ZN3std2os4unix3net4addr10SocketAddr10from_parts17h8cf5959c0ba67cb2E
libclamav.so.11:_ZN3std2os4unix3net4addr10SocketAddr10is_unnamed17hd446302a78da1c79E
libclamav.so.11:_ZN3std2os4unix3net4addr10SocketAddr11as_pathname17h1de71e161d5e4f99E
libclamav.so.11:_ZN3std2os4unix3net4addr11sockaddr_un17ha4e02cd708c950e1E
libclamav.so.11:_ZN3std2os4unix3net4addr15sun_path_offset17h51bcb4fca5e65d3cE
libclamav.so.11:_ZN3std2os4unix3net6stream10UnixStream10local_addr17h9778d1fcf18ec9ccE
libclamav.so.11:_ZN3std2os4unix3net6stream10UnixStream10take_error17hf3ef166efd38f087E
libclamav.so.11:_ZN3std2os4unix3net6stream10UnixStream12connect_addr17hbed04b0a7eb87de3E
libclamav.so.11:_ZN3std2os4unix3net6stream10UnixStream12read_timeout17h02a7393dbb24cd3fE
libclamav.so.11:_ZN3std2os4unix3net6stream10UnixStream12set_passcred17he2ad014510f4b449E
libclamav.so.11:_ZN3std2os4unix3net6stream10UnixStream13write_timeout17he6bbf3179ccd081dE
libclamav.so.11:_ZN3std2os4unix3net6stream10UnixStream15set_nonblocking17h97a082405ddbb8b6E
libclamav.so.11:_ZN3std2os4unix3net6stream10UnixStream16set_read_timeout17hcba055a8afe5f8bdE
libclamav.so.11:_ZN3std2os4unix3net6stream10UnixStream17set_write_timeout17he53cc29fff8d2df9E
libclamav.so.11:_ZN3std2os4unix3net6stream10UnixStream28recv_vectored_with_ancillary17haf5f8ddcb04c060eE
libclamav.so.11:_ZN3std2os4unix3net6stream10UnixStream28send_vectored_with_ancillary17h803331c6ce63143aE
libclamav.so.11:_ZN3std2os4unix3net6stream10UnixStream4pair17h9f4255d20e063616E
libclamav.so.11:_ZN3std2os4unix3net6stream10UnixStream4peek17h51ef0f8c1047fe99E
libclamav.so.11:_ZN3std2os4unix3net6stream10UnixStream8passcred17h5b8d5fd8e3b699fbE
libclamav.so.11:_ZN3std2os4unix3net6stream10UnixStream8set_mark17hc5a00a6e313d6dc1E
libclamav.so.11:_ZN3std2os4unix3net6stream10UnixStream8shutdown17h9059ee03b7e3eae0E
libclamav.so.11:_ZN3std2os4unix3net6stream10UnixStream9peer_addr17h09de547cdac83fb6E
libclamav.so.11:_ZN3std2os4unix3net6stream10UnixStream9peer_cred17h5f70cacf614f1ae7E
libclamav.so.11:_ZN3std2os4unix3net6stream10UnixStream9try_clone17h4b474f1f03e78374E
libclamav.so.11:_ZN3std2os4unix3net8datagram12UnixDatagram10local_addr17he9826eb56c5a68b3E
libclamav.so.11:_ZN3std2os4unix3net8datagram12UnixDatagram10take_error17h1b3bdd41ac0b57f3E
libclamav.so.11:_ZN3std2os4unix3net8datagram12UnixDatagram12connect_addr17hc3ce327ca0e26008E
libclamav.so.11:_ZN3std2os4unix3net8datagram12UnixDatagram12read_timeout17h66307dc29578ce45E
libclamav.so.11:_ZN3std2os4unix3net8datagram12UnixDatagram12send_to_addr17h1327cc5936e77d3aE
libclamav.so.11:_ZN3std2os4unix3net8datagram12UnixDatagram12set_passcred17hc657d697e57dec48E
libclamav.so.11:_ZN3std2os4unix3net8datagram12UnixDatagram13write_timeout17he93072448766cbfcE
libclamav.so.11:_ZN3std2os4unix3net8datagram12UnixDatagram15set_nonblocking17h4088be506e9dff7dE
libclamav.so.11:_ZN3std2os4unix3net8datagram12UnixDatagram16set_read_timeout17hd37f5279bce2a8e8E
libclamav.so.11:_ZN3std2os4unix3net8datagram12UnixDatagram17set_write_timeout17h92fc2f0a74616137E
libclamav.so.11:_ZN3std2os4unix3net8datagram12UnixDatagram28recv_vectored_with_ancillary17h1251b0422ca4be6bE
libclamav.so.11:_ZN3std2os4unix3net8datagram12UnixDatagram28send_vectored_with_ancillary17hf92f497d65272977E
libclamav.so.11:_ZN3std2os4unix3net8datagram12UnixDatagram33recv_vectored_with_ancillary_from17hf029901b6cf37742E
libclamav.so.11:_ZN3std2os4unix3net8datagram12UnixDatagram4pair17h74b6a436c329779cE
libclamav.so.11:_ZN3std2os4unix3net8datagram12UnixDatagram4peek17hcce4dbb32be7178fE
libclamav.so.11:_ZN3std2os4unix3net8datagram12UnixDatagram4recv17he118ed9cbf1bd964E
libclamav.so.11:_ZN3std2os4unix3net8datagram12UnixDatagram4send17hda9383212d74e629E
libclamav.so.11:_ZN3std2os4unix3net8datagram12UnixDatagram7unbound17h0f3ef3bf53deb965E
libclamav.so.11:_ZN3std2os4unix3net8datagram12UnixDatagram8passcred17h57007de498af79ceE
libclamav.so.11:_ZN3std2os4unix3net8datagram12UnixDatagram8set_mark17h3eb2169dcb3754d7E
libclamav.so.11:_ZN3std2os4unix3net8datagram12UnixDatagram8shutdown17h715cd197c91d9a93E
libclamav.so.11:_ZN3std2os4unix3net8datagram12UnixDatagram9bind_addr17ha1823c06d15526b5E
libclamav.so.11:_ZN3std2os4unix3net8datagram12UnixDatagram9peek_from17h57ed5288fa148471E
libclamav.so.11:_ZN3std2os4unix3net8datagram12UnixDatagram9peer_addr17h960cf64270af946dE
libclamav.so.11:_ZN3std2os4unix3net8datagram12UnixDatagram9recv_from17ha4f33821be8d86e5E
libclamav.so.11:_ZN3std2os4unix3net8datagram12UnixDatagram9try_clone17hc609c48836eee008E
libclamav.so.11:_ZN3std2os4unix3net8listener12UnixListener10local_addr17h55dd6494bcfd76a8E
libclamav.so.11:_ZN3std2os4unix3net8listener12UnixListener10take_error17hfafcff0557110b6cE
libclamav.so.11:_ZN3std2os4unix3net8listener12UnixListener15set_nonblocking17he8d6639f8bd20c8fE
libclamav.so.11:_ZN3std2os4unix3net8listener12UnixListener6accept17h3033dc5c6bed1b3dE
libclamav.so.11:_ZN3std2os4unix3net8listener12UnixListener8incoming17h8c1e1d9f7dc54e3eE
libclamav.so.11:_ZN3std2os4unix3net8listener12UnixListener9bind_addr17hfae4fe07c20e0bf8E
libclamav.so.11:_ZN3std2os4unix3net8listener12UnixListener9try_clone17h6ef6d18263b4c843E
libclamav.so.11:_ZN3std2os4unix3net9ancillary10SocketCred3new17h7a4d3c6fe1dd9a09E
libclamav.so.11:_ZN3std2os4unix3net9ancillary10SocketCred7get_gid17h32ac11a44432bc47E
libclamav.so.11:_ZN3std2os4unix3net9ancillary10SocketCred7get_pid17he70bad844e1b84c2E
libclamav.so.11:_ZN3std2os4unix3net9ancillary10SocketCred7get_uid17h01c215e3238e8650E
libclamav.so.11:_ZN3std2os4unix3net9ancillary10SocketCred7set_gid17h92b1aa4f08d69fe9E
libclamav.so.11:_ZN3std2os4unix3net9ancillary10SocketCred7set_pid17hf3cdc292a7128934E
libclamav.so.11:_ZN3std2os4unix3net9ancillary10SocketCred7set_uid17h965754cc5c37cd5fE
libclamav.so.11:_ZN3std2os4unix3net9ancillary15SocketAncillary3len17h80dd3b59233d7b5cE
libclamav.so.11:_ZN3std2os4unix3net9ancillary15SocketAncillary3new17h808787653e32c6d0E
libclamav.so.11:_ZN3std2os4unix3net9ancillary15SocketAncillary5clear17h1b1c01c1877465e3E
libclamav.so.11:_ZN3std2os4unix3net9ancillary15SocketAncillary7add_fds17haa2cf7446dea4813E
libclamav.so.11:_ZN3std2os4unix3net9ancillary15SocketAncillary8capacity17h7b9c79b28ccd9104E
libclamav.so.11:_ZN3std2os4unix3net9ancillary15SocketAncillary8is_empty17h0760cd1d09e71202E
libclamav.so.11:_ZN3std2os4unix3net9ancillary15SocketAncillary8messages17ha868d5691f847f53E
libclamav.so.11:_ZN3std2os4unix3net9ancillary15SocketAncillary9add_creds17h7ad9ae72901272eaE
libclamav.so.11:_ZN3std2os4unix3net9ancillary15SocketAncillary9truncated17h832345b79c313eafE
libclamav.so.11:_ZN3std2os4unix3net9ancillary31send_vectored_with_ancillary_to17head47b81ac57cacdE
libclamav.so.11:_ZN3std2os4unix5ucred10impl_linux9peer_cred17hfa2298affa26f6a5E
libclamav.so.11:_ZN3std2os4unix7process9parent_id17hfbf810bdefbb88f6E
libclamav.so.11:_ZN3std2os5linux7process115_$LT$impl$u20$core..convert..From$LT$std..os..linux..process..PidFd$GT$$u20$for$u20$std..os..fd..owned..OwnedFd$GT$4from17hcadafbffa512148cE
libclamav.so.11:_ZN3std2rt19lang_start_internal17hf8c65fdb38e8fb42E
libclamav.so.11:_ZN3std3env11_remove_var17h4e3e8396d93398bfE
libclamav.so.11:_ZN3std3env11current_dir17h887f45694cefea48E
libclamav.so.11:_ZN3std3env11current_exe17h5fded64dc5438509E
libclamav.so.11:_ZN3std3env4_var17hede1593b8b79306dE
libclamav.so.11:_ZN3std3env4args17h10cc8fadee317da9E
libclamav.so.11:_ZN3std3env4vars17h94d1cf17c4fca0f0E
libclamav.so.11:_ZN3std3env7_var_os17hd11245627192c604E
libclamav.so.11:_ZN3std3env7args_os17hc7bef7b63bb688aaE
libclamav.so.11:_ZN3std3env7vars_os17h3bd1cb325c082e75E
libclamav.so.11:_ZN3std3env8_set_var17ha8bb87d778f4150aE
libclamav.so.11:_ZN3std3env8home_dir17h5f5736a6547071e9E
libclamav.so.11:_ZN3std3env8temp_dir17h3eb2f9ce71af8eeeE
libclamav.so.11:_ZN3std3ffi6os_str5OsStr14into_os_string17h3c1011527dfc18feE
libclamav.so.11:_ZN3std3ffi6os_str5OsStr18to_ascii_lowercase17h96868a999056b49dE
libclamav.so.11:_ZN3std3ffi6os_str5OsStr18to_ascii_uppercase17h52a16c8e30d6b92fE
libclamav.so.11:_ZN3std3ffi6os_str8OsString17into_boxed_os_str17ha374b8362de02f27E
libclamav.so.11:_ZN3std3net11socket_addr10SocketAddr2ip17h704349e279849041E
libclamav.so.11:_ZN3std3net11socket_addr10SocketAddr3new17h8e375284cfc79c4cE
libclamav.so.11:_ZN3std3net11socket_addr10SocketAddr4port17h5aedd0c1f8a862a6E
libclamav.so.11:_ZN3std3net11socket_addr10SocketAddr6set_ip17h955e309fd764acecE
libclamav.so.11:_ZN3std3net11socket_addr10SocketAddr7is_ipv417h0110cefb42193859E
libclamav.so.11:_ZN3std3net11socket_addr10SocketAddr7is_ipv617h6cab14fadfe1c48fE
libclamav.so.11:_ZN3std3net11socket_addr10SocketAddr8set_port17h76ab17f03f471225E
libclamav.so.11:_ZN3std3net11socket_addr12SocketAddrV42ip17hcaf7a1c6f68cd9e6E
libclamav.so.11:_ZN3std3net11socket_addr12SocketAddrV43new17h02581f426e67f725E
libclamav.so.11:_ZN3std3net11socket_addr12SocketAddrV44port17h34d64d6fec19923dE
libclamav.so.11:_ZN3std3net11socket_addr12SocketAddrV46set_ip17hde69e80932d5e9b1E
libclamav.so.11:_ZN3std3net11socket_addr12SocketAddrV48set_port17h6a58e8c7ca07d6c9E
libclamav.so.11:_ZN3std3net11socket_addr12SocketAddrV612set_flowinfo17ha4a35364d4e7de24E
libclamav.so.11:_ZN3std3net11socket_addr12SocketAddrV612set_scope_id17h7b37a399069c2550E
libclamav.so.11:_ZN3std3net11socket_addr12SocketAddrV62ip17h1af0b303bbdd0476E
libclamav.so.11:_ZN3std3net11socket_addr12SocketAddrV63new17hc701af9d69ccefbcE
libclamav.so.11:_ZN3std3net11socket_addr12SocketAddrV64port17h1084c98174ce220cE
libclamav.so.11:_ZN3std3net11socket_addr12SocketAddrV66set_ip17hcdec00d99dbb548cE
libclamav.so.11:_ZN3std3net11socket_addr12SocketAddrV68flowinfo17h6fce7a03de40f6efE
libclamav.so.11:_ZN3std3net11socket_addr12SocketAddrV68scope_id17h5bb644e695ff792dE
libclamav.so.11:_ZN3std3net11socket_addr12SocketAddrV68set_port17h2881a432bcf2d227E
libclamav.so.11:_ZN3std3net3tcp11TcpListener10local_addr17hb2cdd97c5998243fE
libclamav.so.11:_ZN3std3net3tcp11TcpListener10take_error17hbcc409ba9382b481E
libclamav.so.11:_ZN3std3net3tcp11TcpListener11set_only_v617h28bf06cfbc1a80baE
libclamav.so.11:_ZN3std3net3tcp11TcpListener13into_incoming17h7665c83cf81dd9e6E
libclamav.so.11:_ZN3std3net3tcp11TcpListener15set_nonblocking17h41c1412426a0a919E
libclamav.so.11:_ZN3std3net3tcp11TcpListener3ttl17h7e8313fc43878eb7E
libclamav.so.11:_ZN3std3net3tcp11TcpListener6accept17ha05d4ab1329ce26bE
libclamav.so.11:_ZN3std3net3tcp11TcpListener7only_v617h772b4f60abd4bd03E
libclamav.so.11:_ZN3std3net3tcp11TcpListener7set_ttl17hdf45823971660b7eE
libclamav.so.11:_ZN3std3net3tcp11TcpListener8incoming17h26f4825f50031309E
libclamav.so.11:_ZN3std3net3tcp11TcpListener9try_clone17hac975512eee68acbE
libclamav.so.11:_ZN3std3net3tcp9TcpStream10local_addr17h18c29b7eb52d2a79E
libclamav.so.11:_ZN3std3net3tcp9TcpStream10set_linger17h1b06989c7faf7fefE
libclamav.so.11:_ZN3std3net3tcp9TcpStream10take_error17h024c5a8f0c66d289E
libclamav.so.11:_ZN3std3net3tcp9TcpStream11set_nodelay17he1d8c338febc84b7E
libclamav.so.11:_ZN3std3net3tcp9TcpStream12read_timeout17h6029f4254601749fE
libclamav.so.11:_ZN3std3net3tcp9TcpStream13write_timeout17h65f2cc1ec89ac339E
libclamav.so.11:_ZN3std3net3tcp9TcpStream15connect_timeout17he544171817e317f9E
libclamav.so.11:_ZN3std3net3tcp9TcpStream15set_nonblocking17h7feac9ff830dc05bE
libclamav.so.11:_ZN3std3net3tcp9TcpStream16set_read_timeout17h01e54423d4b6d7ccE
libclamav.so.11:_ZN3std3net3tcp9TcpStream17set_write_timeout17h3447b3c51820d2f3E
libclamav.so.11:_ZN3std3net3tcp9TcpStream3ttl17h32648e6abad74aa2E
libclamav.so.11:_ZN3std3net3tcp9TcpStream4peek17h00eefb5c4425cf63E
libclamav.so.11:_ZN3std3net3tcp9TcpStream6linger17h2254edde6b90798aE
libclamav.so.11:_ZN3std3net3tcp9TcpStream7nodelay17hd7f1d2e2529fcaa8E
libclamav.so.11:_ZN3std3net3tcp9TcpStream7set_ttl17h1a71ce394c59076dE
libclamav.so.11:_ZN3std3net3tcp9TcpStream8shutdown17hd2e89c647a7df4dcE
libclamav.so.11:_ZN3std3net3tcp9TcpStream9peer_addr17h870fe6f8e254c019E
libclamav.so.11:_ZN3std3net3tcp9TcpStream9try_clone17h3e75657996ee0770E
libclamav.so.11:_ZN3std3net3udp9UdpSocket10local_addr17h0f9be72d894eb0ceE
libclamav.so.11:_ZN3std3net3udp9UdpSocket10take_error17h207ab2b1afb2f55bE
libclamav.so.11:_ZN3std3net3udp9UdpSocket12read_timeout17hb7e6feb34734f58fE
libclamav.so.11:_ZN3std3net3udp9UdpSocket13set_broadcast17h1fa5b4211fb418b0E
libclamav.so.11:_ZN3std3net3udp9UdpSocket13write_timeout17hb627845b5195c9e0E
libclamav.so.11:_ZN3std3net3udp9UdpSocket15set_nonblocking17hf69c8eccced13fc7E
libclamav.so.11:_ZN3std3net3udp9UdpSocket16multicast_ttl_v417h0e082ff2ca9da80aE
libclamav.so.11:_ZN3std3net3udp9UdpSocket16set_read_timeout17h6408078cfe7f4867E
libclamav.so.11:_ZN3std3net3udp9UdpSocket17join_multicast_v417hcad8f223c70f168cE
libclamav.so.11:_ZN3std3net3udp9UdpSocket17join_multicast_v617h1a74e42615a9895bE
libclamav.so.11:_ZN3std3net3udp9UdpSocket17multicast_loop_v417h0ab37270c82094b4E
libclamav.so.11:_ZN3std3net3udp9UdpSocket17multicast_loop_v617h07718e290a04da43E
libclamav.so.11:_ZN3std3net3udp9UdpSocket17set_write_timeout17h62b080f09cfbad07E
libclamav.so.11:_ZN3std3net3udp9UdpSocket18leave_multicast_v417h559b775087a480d5E
libclamav.so.11:_ZN3std3net3udp9UdpSocket18leave_multicast_v617h3f92bb7be673a12eE
libclamav.so.11:_ZN3std3net3udp9UdpSocket20set_multicast_ttl_v417hbcf6e6fa5b253953E
libclamav.so.11:_ZN3std3net3udp9UdpSocket21set_multicast_loop_v417h77f68ef79ad763dcE
libclamav.so.11:_ZN3std3net3udp9UdpSocket21set_multicast_loop_v617hbf08589c9ab400b6E
libclamav.so.11:_ZN3std3net3udp9UdpSocket3ttl17h97cd5267d86d65d1E
libclamav.so.11:_ZN3std3net3udp9UdpSocket4peek17h31f18acc48f36bc2E
libclamav.so.11:_ZN3std3net3udp9UdpSocket4recv17h15e92250b17c7b2eE
libclamav.so.11:_ZN3std3net3udp9UdpSocket4send17h7a2614f3866251b6E
libclamav.so.11:_ZN3std3net3udp9UdpSocket7set_ttl17hbf2b28dffec4bd78E
libclamav.so.11:_ZN3std3net3udp9UdpSocket9broadcast17h73cd20e0214ab270E
libclamav.so.11:_ZN3std3net3udp9UdpSocket9peek_from17h43679154cc2a561dE
libclamav.so.11:_ZN3std3net3udp9UdpSocket9peer_addr17h49fb6bb6459dd0d8E
libclamav.so.11:_ZN3std3net3udp9UdpSocket9recv_from17hd0ca291f5d65594eE
libclamav.so.11:_ZN3std3net3udp9UdpSocket9try_clone17h4b0c5a11f74a1e07E
libclamav.so.11:_ZN3std3net6parser43_$LT$impl$u20$std..net..ip_addr..IpAddr$GT$11parse_ascii17h4bee79bf118131c2E
libclamav.so.11:_ZN3std3net6parser45_$LT$impl$u20$std..net..ip_addr..Ipv4Addr$GT$11parse_ascii17h28f86060107dd8d2E
libclamav.so.11:_ZN3std3net6parser45_$LT$impl$u20$std..net..ip_addr..Ipv6Addr$GT$11parse_ascii17h398aba6851b3a09cE
libclamav.so.11:_ZN3std3net6parser51_$LT$impl$u20$std..net..socket_addr..SocketAddr$GT$11parse_ascii17ha19c875eae125b6dE
libclamav.so.11:_ZN3std3net6parser53_$LT$impl$u20$std..net..socket_addr..SocketAddrV4$GT$11parse_ascii17h45beae74f36dee4eE
libclamav.so.11:_ZN3std3net6parser53_$LT$impl$u20$std..net..socket_addr..SocketAddrV6$GT$11parse_ascii17hd0f79c43c9f327faE
libclamav.so.11:_ZN3std3net6parser82_$LT$impl$u20$core..str..traits..FromStr$u20$for$u20$std..net..ip_addr..IpAddr$GT$8from_str17hb07c28769642e7ddE
libclamav.so.11:_ZN3std3net6parser84_$LT$impl$u20$core..str..traits..FromStr$u20$for$u20$std..net..ip_addr..Ipv4Addr$GT$8from_str17he0a8fc42785eb33aE
libclamav.so.11:_ZN3std3net6parser84_$LT$impl$u20$core..str..traits..FromStr$u20$for$u20$std..net..ip_addr..Ipv6Addr$GT$8from_str17h7a17986d9f29d3d4E
libclamav.so.11:_ZN3std3net6parser90_$LT$impl$u20$core..str..traits..FromStr$u20$for$u20$std..net..socket_addr..SocketAddr$GT$8from_str17h246521dfbdb1cd36E
libclamav.so.11:_ZN3std3net6parser92_$LT$impl$u20$core..str..traits..FromStr$u20$for$u20$std..net..socket_addr..SocketAddrV4$GT$8from_str17h9372dda1e129abb4E
libclamav.so.11:_ZN3std3net6parser92_$LT$impl$u20$core..str..traits..FromStr$u20$for$u20$std..net..socket_addr..SocketAddrV6$GT$8from_str17h903fec63aeac8578E
libclamav.so.11:_ZN3std3sys4unix11kernel_copy15sendfile_splice17he21333015d9129f8E
libclamav.so.11:_ZN3std3sys4unix11kernel_copy18copy_regular_files17h742cc2a224a04793E
libclamav.so.11:_ZN3std3sys4unix11kernel_copy6FdMeta10maybe_fifo17h095e47fbff7beeabE
libclamav.so.11:_ZN3std3sys4unix11kernel_copy6FdMeta25copy_file_range_candidate17h078d9e6c202c47baE
libclamav.so.11:_ZN3std3sys4unix11kernel_copy6FdMeta25potential_sendfile_source17h6d385a20b3e180e0E
libclamav.so.11:_ZN3std3sys4unix14abort_internal17h54e205dece71bfe8E
libclamav.so.11:_ZN3std3sys4unix17decode_error_kind17h4b29ed7bd479e699E
libclamav.so.11:_ZN3std3sys4unix17thread_local_dtor13register_dtor17h44af2885c88e35fdE
libclamav.so.11:_ZN3std3sys4unix2fd8FileDesc11get_cloexec17h512170abf4c9e0e6E
libclamav.so.11:_ZN3std3sys4unix2fd8FileDesc11read_to_end17hc78bd75064b13a7aE
libclamav.so.11:_ZN3std3sys4unix2fd8FileDesc11set_cloexec17h734b819aa48a87c2E
libclamav.so.11:_ZN3std3sys4unix2fd8FileDesc13read_vectored17h593d0cde3c43b8cdE
libclamav.so.11:_ZN3std3sys4unix2fd8FileDesc14write_vectored17h1b08d45e2a8e3920E
libclamav.so.11:_ZN3std3sys4unix2fd8FileDesc15set_nonblocking17h2801e902390eebecE
libclamav.so.11:_ZN3std3sys4unix2fd8FileDesc4read17h59e3d26d5a48e22dE
libclamav.so.11:_ZN3std3sys4unix2fd8FileDesc5write17ha5246307fffc9916E
libclamav.so.11:_ZN3std3sys4unix2fd8FileDesc7read_at17h12db6912a781833bE
libclamav.so.11:_ZN3std3sys4unix2fd8FileDesc8read_buf17hf1eb725c75405749E
libclamav.so.11:_ZN3std3sys4unix2fd8FileDesc8write_at17h6b8a21519b830edeE
libclamav.so.11:_ZN3std3sys4unix2fs12canonicalize17h5edb43520ed5f2feE
libclamav.so.11:_ZN3std3sys4unix2fs15remove_dir_impl14remove_dir_all17ha9fc78db5af4c69bE
libclamav.so.11:_ZN3std3sys4unix2fs4copy17h7431061fe2ddc315E
libclamav.so.11:_ZN3std3sys4unix2fs4link17ha51fc35c88882c4bE
libclamav.so.11:_ZN3std3sys4unix2fs4stat17ha9ae06bfc07ea90fE
libclamav.so.11:_ZN3std3sys4unix2fs5chown17h5cf1f307b5fcdf96E
libclamav.so.11:_ZN3std3sys4unix2fs5lstat17h894af7547bada49bE
libclamav.so.11:_ZN3std3sys4unix2fs5rmdir17h1494d27e3b4299b4E
libclamav.so.11:_ZN3std3sys4unix2fs6chroot17h3571a13df824b15eE
libclamav.so.11:_ZN3std3sys4unix2fs6fchown17h255e21f646bbc4eeE
libclamav.so.11:_ZN3std3sys4unix2fs6lchown17h8a56569b9305ae2dE
libclamav.so.11:_ZN3std3sys4unix2fs6rename17hfadafd9c37954935E
libclamav.so.11:_ZN3std3sys4unix2fs6unlink17h4175646c9b503c59E
libclamav.so.11:_ZN3std3sys4unix2fs7readdir17hc972588b4973cef2E
libclamav.so.11:_ZN3std3sys4unix2fs7symlink17h3b0a48af1458c5f7E
libclamav.so.11:_ZN3std3sys4unix2fs8readlink17heaf0d966bba56912E
libclamav.so.11:_ZN3std3sys4unix2fs8set_perm17he2f1280621c23ad9E
libclamav.so.11:_ZN3std3sys4unix2os11split_paths17h405a51e73a178a33E
libclamav.so.11:_ZN3std3sys4unix2os5chdir17ha9a8b8880e060528E
libclamav.so.11:_ZN3std3sys4unix2os5errno17h3e1b4888583e1494E
libclamav.so.11:_ZN3std3sys4unix3net6Socket7new_raw17h2c9d24deef3ed6c7E
libclamav.so.11:_ZN3std3sys4unix4args3imp15ARGV_INIT_ARRAY12init_wrapper17h3ada0dd62b21a34fE
libclamav.so.11:_ZN3std3sys4unix4path8absolute17ha9743e2f8101f3aaE
libclamav.so.11:_ZN3std3sys4unix4rand19hashmap_random_keys17h8984af925fdf42a0E
libclamav.so.11:_ZN3std3sys4unix4time8Timespec3new17h303ac1351b841688E
libclamav.so.11:_ZN3std3sys4unix4time8Timespec4zero17hfe790f15683ffa53E
libclamav.so.11:_ZN3std3sys4unix5futex10futex_wait17h4d0f517f7c754722E
libclamav.so.11:_ZN3std3sys4unix5futex10futex_wake17hb603d9a323c79e20E
libclamav.so.11:_ZN3std3sys4unix5locks11futex_mutex5Mutex14lock_contended17h13cd0915be2e0b3fE
libclamav.so.11:_ZN3std3sys4unix5locks11futex_mutex5Mutex4wake17h1b5e79293e4eb3b0E
libclamav.so.11:_ZN3std3sys4unix5locks12futex_rwlock6RwLock14read_contended17h2a31a2c099258206E
libclamav.so.11:_ZN3std3sys4unix5locks12futex_rwlock6RwLock15write_contended17h54822a0b3a39642cE
libclamav.so.11:_ZN3std3sys4unix5locks12futex_rwlock6RwLock22wake_writer_or_readers17h1101900e2f0bf8e4E
libclamav.so.11:_ZN3std3sys4unix5locks13futex_condvar7Condvar12wait_timeout17h6ad12bbfef9c02f6E
libclamav.so.11:_ZN3std3sys4unix5locks13futex_condvar7Condvar4wait17h823a5c3b647ba2e7E
libclamav.so.11:_ZN3std3sys4unix5stdio12panic_output17h8228877382d30957E
libclamav.so.11:_ZN3std3sys4unix5stdio6Stderr3new17hf011c240c9d210b1E
libclamav.so.11:_ZN3std3sys4unix6memchr6memchr17hfab7ceb4d37dc433E
libclamav.so.11:_ZN3std3sys4unix6memchr7memrchr17h92961e75830ee66cE
libclamav.so.11:_ZN3std3sys4unix6os_str3Buf10push_slice17h38a3ae3abd33081aE
libclamav.so.11:_ZN3std3sys4unix6os_str3Buf11from_string17h3d0d1a81b910bf92E
libclamav.so.11:_ZN3std3sys4unix6os_str3Buf11into_string17hf87428833e9ca792E
libclamav.so.11:_ZN3std3sys4unix6os_str5Slice10clone_into17h2744a9139c3638f3E
libclamav.so.11:_ZN3std3sys4unix6os_str5Slice15to_string_lossy17hc10e2f81d5dd493aE
libclamav.so.11:_ZN3std3sys4unix6os_str5Slice6to_str17h6906831305367aa6E
libclamav.so.11:_ZN3std3sys4unix6os_str5Slice8to_owned17hbc9ad9ba6de01000E
libclamav.so.11:_ZN3std3sys4unix6os_str5Slice9empty_box17hba3bb8585ebba80eE
libclamav.so.11:_ZN3std3sys4unix6thread5guard7current17h8a53d22e47650d71E
libclamav.so.11:_ZN3std3sys4unix6thread6Thread2id17h055d1318cdfa4a0aE
libclamav.so.11:_ZN3std3sys4unix6thread6Thread3new17h5116cbad2b8fba61E
libclamav.so.11:_ZN3std3sys4unix6thread6Thread4join17hc9ff3ed1b48db548E
libclamav.so.11:_ZN3std3sys4unix6thread6Thread7into_id17hbc49dcdda5dfca38E
libclamav.so.11:_ZN3std3sys4unix6thread6Thread8set_name17h7a0da754a9302110E
libclamav.so.11:_ZN3std3sys4unix7process13process_inner83_$LT$impl$u20$std..os..linux..process..ChildExt$u20$for$u20$std..process..Child$GT$10take_pidfd17hc14b399a085ef186E
libclamav.so.11:_ZN3std3sys4unix7process13process_inner83_$LT$impl$u20$std..os..linux..process..ChildExt$u20$for$u20$std..process..Child$GT$5pidfd17h65ad553393fc42b6E
libclamav.so.11:_ZN3std3sys4unix7process14process_common7Command3arg17h75073de7d790f91dE
libclamav.so.11:_ZN3std3sys4unix7process14process_common7Command3cwd17h5c05fa61e901835cE
libclamav.so.11:_ZN3std3sys4unix7process14process_common7Command3new17h0502c647233bc3f3E
libclamav.so.11:_ZN3std3sys4unix7process14process_common7Command5stdin17hc673ca1591a4760fE
libclamav.so.11:_ZN3std3sys4unix7process14process_common7Command6stderr17hdbc18e92b67588d4E
libclamav.so.11:_ZN3std3sys4unix7process14process_common7Command6stdout17h13e6b81ed27f7c4bE
libclamav.so.11:_ZN3std3sys4unix7process14process_common7Command7env_mut17h2521f5d740f14e3eE
libclamav.so.11:_ZN3std3sys4unix7process14process_common7Command8pre_exec17h50afe674b25bf151E
libclamav.so.11:_ZN3std3sys4unix7process14process_common7Command9set_arg_017hd109630dad306b27E
libclamav.so.11:_ZN3std3sys6common5alloc16realloc_fallback17hd19d4fc7b6d59ec2E
libclamav.so.11:_ZN3std4path10Components7as_path17ha0b59f69f89d81e3E
libclamav.so.11:_ZN3std4path10Components8has_root17hd8094a3f2260f749E
libclamav.so.11:_ZN3std4path117_$LT$impl$u20$core..convert..From$LT$$RF$std..path..Path$GT$$u20$for$u20$alloc..boxed..Box$LT$std..path..Path$GT$$GT$4from17h3a074dda02663e69E
libclamav.so.11:_ZN3std4path12is_separator17hfc77e4f945c63a00E
libclamav.so.11:_ZN3std4path18compare_components17h15dcb65eba3421feE
libclamav.so.11:_ZN3std4path4Path10_ends_with17h51399e56675bfce1E
libclamav.so.11:_ZN3std4path4Path10components17h454a74c3ad43d777E
libclamav.so.11:_ZN3std4path4Path10is_symlink17hbd71eab409c7e287E
libclamav.so.11:_ZN3std4path4Path11as_u8_slice17h4f09c6bd2e84c304E
libclamav.so.11:_ZN3std4path4Path11file_prefix17hafadfe319661134bE
libclamav.so.11:_ZN3std4path4Path11is_absolute17h1a4e02c1ee1fca14E
libclamav.so.11:_ZN3std4path4Path11to_path_buf17hc039e4ed3ac10c7bE
libclamav.so.11:_ZN3std4path4Path12_starts_with17h846bb002b55deeacE
libclamav.so.11:_ZN3std4path4Path13_strip_prefix17h4016cb2b04f5f979E
libclamav.so.11:_ZN3std4path4Path13into_path_buf17h405f8b82c7501a4aE
libclamav.so.11:_ZN3std4path4Path15_with_extension17h673079afa24fef18E
libclamav.so.11:_ZN3std4path4Path15_with_file_name17hc9ef48f35ecb8533E
libclamav.so.11:_ZN3std4path4Path5_join17hb69a2bcbeffa3a50E
libclamav.so.11:_ZN3std4path4Path6is_dir17h01124d7ab7ad616aE
libclamav.so.11:_ZN3std4path4Path6parent17h2e384f58365011f5E
libclamav.so.11:_ZN3std4path4Path7is_file17h0c019dc92a47566aE
libclamav.so.11:_ZN3std4path4Path9extension17h4a6610aef65160f6E
libclamav.so.11:_ZN3std4path4Path9file_name17h83a02926f5e58e78E
libclamav.so.11:_ZN3std4path4Path9file_stem17hf8f4d8e4bb4c3068E
libclamav.so.11:_ZN3std4path6Prefix3len10os_str_len17h002289b9af046bd7E
libclamav.so.11:_ZN3std4path7PathBuf14_set_extension17h3da880c522e4f419E
libclamav.so.11:_ZN3std4path7PathBuf14_set_file_name17h31d9404af23a2d56E
libclamav.so.11:_ZN3std4path7PathBuf3pop17hb4acb1dad36596f5E
libclamav.so.11:_ZN3std4path7PathBuf5_push17hd0c24239cdcd91f0E
libclamav.so.11:_ZN3std4path9Component9as_os_str17he5faec0915ec2887E
libclamav.so.11:_ZN3std4sync4mpmc5utils7Backoff3new17hf11e9508224e4467E
libclamav.so.11:_ZN3std4sync4mpmc7context7Context3new17hc82f700641701059E
libclamav.so.11:_ZN3std4sync7barrier17BarrierWaitResult9is_leader17hc75f380b457cbbdeE
libclamav.so.11:_ZN3std4sync7barrier7Barrier3new17hdd90dc96e498a459E
libclamav.so.11:_ZN3std4sync7barrier7Barrier4wait17h6ddf68acc5b2d65bE
libclamav.so.11:_ZN3std4sync7condvar17WaitTimeoutResult9timed_out17h147ef46fffe1e3a4E
libclamav.so.11:_ZN3std4sync7condvar7Condvar10notify_all17h9046b602c0a55c8fE
libclamav.so.11:_ZN3std4sync7condvar7Condvar10notify_one17he6d72aa0ae0596beE
libclamav.so.11:_ZN3std4time10SystemTime11checked_add17hc5ce67e0f7004aa4E
libclamav.so.11:_ZN3std4time10SystemTime11checked_sub17h3006e71706c401c4E
libclamav.so.11:_ZN3std4time10SystemTime14duration_since17ha17b902c5df432bbE
libclamav.so.11:_ZN3std4time10SystemTime3now17hb1b701ea7979e33fE
libclamav.so.11:_ZN3std4time10SystemTime7elapsed17hc41d98b8274e70c1E
libclamav.so.11:_ZN3std4time15SystemTimeError8duration17hd38e908810ae91b7E
libclamav.so.11:_ZN3std4time7Instant11checked_add17h9cf9b0cb9a4ded31E
libclamav.so.11:_ZN3std4time7Instant11checked_sub17h8d94b18c19f84ee0E
libclamav.so.11:_ZN3std4time7Instant14duration_since17h1558cab969bce99dE
libclamav.so.11:_ZN3std4time7Instant22checked_duration_since17ha2f37bca4b245f5dE
libclamav.so.11:_ZN3std4time7Instant25saturating_duration_since17h5affc1ef7cb77477E
libclamav.so.11:_ZN3std4time7Instant3now17h03d0ebeee4a5d501E
libclamav.so.11:_ZN3std4time7Instant7elapsed17h0ff0f73401e95033E
libclamav.so.11:_ZN3std5alloc20set_alloc_error_hook17h24efe7466c209bfdE
libclamav.so.11:_ZN3std5alloc21take_alloc_error_hook17h51f61877a32b745aE
libclamav.so.11:_ZN3std5alloc8rust_oom17h7a5080eb37bd7b34E
libclamav.so.11:_ZN3std5panic12always_abort17h4ee21860f097f164E
libclamav.so.11:_ZN3std5panic13resume_unwind17h33b2cd98a05b7318E
libclamav.so.11:_ZN3std5panic19get_backtrace_style17hb8404607fa2c0dfdE
libclamav.so.11:_ZN3std5panic19set_backtrace_style17h8c5c049da0031338E
libclamav.so.11:_ZN3std6thread12park_timeout17h4aee1c24358d720fE
libclamav.so.11:_ZN3std6thread15park_timeout_ms17hd41b0ea87bac7addE
libclamav.so.11:_ZN3std6thread21available_parallelism17hfcb7265800bf98a1E
libclamav.so.11:_ZN3std6thread4park17hac46e90ddd6ee580E
libclamav.so.11:_ZN3std6thread5Inner6parker17h8af6a4dbcc923f13E
libclamav.so.11:_ZN3std6thread5sleep17hbea820ddc2a6d9afE
libclamav.so.11:_ZN3std6thread6Thread2id17he82e680e44e5db9aE
libclamav.so.11:_ZN3std6thread6Thread3new17hcfd0c2f7a4de58e2E
libclamav.so.11:_ZN3std6thread6Thread4name17h39fc293be842ef19E
libclamav.so.11:_ZN3std6thread6Thread5cname17haf39d2fd973c99bcE
libclamav.so.11:_ZN3std6thread6scoped9ScopeData29decrement_num_running_threads17h62848635562610b8E
libclamav.so.11:_ZN3std6thread6scoped9ScopeData29increment_num_running_threads17h09fbfbb32d7776eeE
libclamav.so.11:_ZN3std6thread7Builder10stack_size17h3c75ad7bd845b4dcE
libclamav.so.11:_ZN3std6thread7Builder3new17hb0bc420572c78024E
libclamav.so.11:_ZN3std6thread7Builder4name17hec1044e68b5961cdE
libclamav.so.11:_ZN3std6thread7current17h9e98f1c0380170cbE
libclamav.so.11:_ZN3std6thread8ThreadId6as_u6417ha8b78fccef0bfd29E
libclamav.so.11:_ZN3std6thread8sleep_ms17hbbda00e10290fb6dE
libclamav.so.11:_ZN3std6thread9yield_now17h318d5cd054421872E
libclamav.so.11:_ZN3std7process10ExitStatus4code17h7f693be204566a79E
libclamav.so.11:_ZN3std7process10ExitStatus7exit_ok17h63fc0c6799f4e543E
libclamav.so.11:_ZN3std7process10ExitStatus7success17h198b4a75bc760584E
libclamav.so.11:_ZN3std7process15ExitStatusError11into_status17h1d1344fdef98c59bE
libclamav.so.11:_ZN3std7process15ExitStatusError12code_nonzero17h29a1f3c904f5aa29E
libclamav.so.11:_ZN3std7process15ExitStatusError4code17h3abd27ebf7dca226E
libclamav.so.11:_ZN3std7process2id17ha96a5af0f170f679E
libclamav.so.11:_ZN3std7process4exit17hd665e754c8941da2E
libclamav.so.11:_ZN3std7process5Child16wait_with_output17h424ed02a037376f9E
libclamav.so.11:_ZN3std7process5Child2id17h226337fc1826997fE
libclamav.so.11:_ZN3std7process5Child4kill17h5e4221cc7debfc67E
libclamav.so.11:_ZN3std7process5Child4wait17h75b5acfbe82788c9E
libclamav.so.11:_ZN3std7process5Child8try_wait17h368976f6a9c10679E
libclamav.so.11:_ZN3std7process5Stdio10makes_pipe17h20a432fba37f1a7fE
libclamav.so.11:_ZN3std7process5Stdio4null17h87e5b3b76f5377cfE
libclamav.so.11:_ZN3std7process5Stdio5piped17ha749b326a162b0fcE
libclamav.so.11:_ZN3std7process5Stdio7inherit17h9111f0ae6ff1bb59E
libclamav.so.11:_ZN3std7process5abort17h6c0131b514072870E
libclamav.so.11:_ZN3std7process7Command11get_program17h0845c7f192dc6091E
libclamav.so.11:_ZN3std7process7Command15get_current_dir17h35e7fdae404ec711E
libclamav.so.11:_ZN3std7process7Command5spawn17h7f109fa83ca62a18E
libclamav.so.11:_ZN3std7process7Command6output17h7c28b00bf8a96e7cE
libclamav.so.11:_ZN3std7process7Command6status17h7f542579ec811fe8E
libclamav.so.11:_ZN3std7process7Command8get_args17h1ef3ef9f48e4105cE
libclamav.so.11:_ZN3std7process7Command8get_envs17h4f015da1ee870097E
libclamav.so.11:_ZN3std7process7Command9env_clear17h8c8f127537d558baE
libclamav.so.11:_ZN3std7process8ExitCode12exit_process17h0ca7ed6039a6afa3E
libclamav.so.11:_ZN3std9backtrace9Backtrace13force_capture17h6eb8146faf2c8872E
libclamav.so.11:_ZN3std9backtrace9Backtrace6frames17h4717d64a306b30a2E
libclamav.so.11:_ZN3std9backtrace9Backtrace6status17h74acb73a4ea04fc3E
libclamav.so.11:_ZN3std9backtrace9Backtrace7capture17hf551231c223311dfE
libclamav.so.11:_ZN3std9backtrace9Backtrace8disabled17h132160a62ec01af9E
libclamav.so.11:_ZN3std9panicking11panic_count16set_always_abort17h8b16ab6d3b79789fE
libclamav.so.11:_ZN3std9panicking11panic_count17is_zero_slow_path17hadf809a148ae720dE
libclamav.so.11:_ZN3std9panicking11panic_count8decrease17hf2886851717fbcf0E
libclamav.so.11:_ZN3std9panicking11panic_count8increase17h8a0c70743c99490fE
libclamav.so.11:_ZN3std9panicking11panic_count9get_count17h0de2877884abe7a0E
libclamav.so.11:_ZN3std9panicking12default_hook17hf289923f5baca0d7E
libclamav.so.11:_ZN3std9panicking20rust_panic_with_hook17h7316b8415e73d5d0E
libclamav.so.11:_ZN3std9panicking3try7cleanup17h6173c651d3113495E
libclamav.so.11:_ZN3std9panicking8set_hook17h6ad475acf29cd9daE
libclamav.so.11:_ZN3std9panicking9take_hook17hffd0c9fc8d85ce15E
libclamav.so.11:_ZN40_$LT$str$u20$as$u20$core..fmt..Debug$GT$3fmt17h13a7e8c084880c0eE
libclamav.so.11:_ZN41_$LT$char$u20$as$u20$core..fmt..Debug$GT$3fmt17h15977ac03b60e9f1E
libclamav.so.11:_ZN42_$LT$$u21$$u20$as$u20$core..fmt..Debug$GT$3fmt17h538de75ace8f105aE
libclamav.so.11:_ZN42_$LT$str$u20$as$u20$core..fmt..Display$GT$3fmt17h33b3e28841dc599aE
libclamav.so.11:_ZN43_$LT$bool$u20$as$u20$core..fmt..Display$GT$3fmt17h1e1a99717fa925d4E
libclamav.so.11:_ZN43_$LT$char$u20$as$u20$core..fmt..Display$GT$3fmt17h010daab3e906ca13E
libclamav.so.11:_ZN43_$LT$f32$u20$as$u20$image..traits..Lerp$GT$4lerp17h26a51257e46264eaE
libclamav.so.11:_ZN43_$LT$log..NopLogger$u20$as$u20$log..Log$GT$3log17hc299d80b61815572E
libclamav.so.11:_ZN43_$LT$log..NopLogger$u20$as$u20$log..Log$GT$5flush17h135505a701722882E
libclamav.so.11:_ZN43_$LT$log..NopLogger$u20$as$u20$log..Log$GT$7enabled17hb6da5dc577ca0258E
libclamav.so.11:_ZN44_$LT$$u21$$u20$as$u20$core..fmt..Display$GT$3fmt17h119b791c5a0f9099E
libclamav.so.11:_ZN46_$LT$i8$u20$as$u20$tiff..decoder..Wrapping$GT$12wrapping_add17h67d987a55e70eaa1E
libclamav.so.11:_ZN46_$LT$u8$u20$as$u20$tiff..decoder..Wrapping$GT$12wrapping_add17hc2026796ce2e6b47E
libclamav.so.11:_ZN47_$LT$i16$u20$as$u20$tiff..decoder..Wrapping$GT$12wrapping_add17hed2212ccea8ad748E
libclamav.so.11:_ZN47_$LT$i32$u20$as$u20$tiff..decoder..Wrapping$GT$12wrapping_add17h1ad447d68f7a3e99E
libclamav.so.11:_ZN47_$LT$i64$u20$as$u20$tiff..decoder..Wrapping$GT$12wrapping_add17h36f85d2d41fbd0bbE
libclamav.so.11:_ZN47_$LT$log..Level$u20$as$u20$core..fmt..Debug$GT$3fmt17hc510f2e302488a8aE
libclamav.so.11:_ZN47_$LT$std..fs..File$u20$as$u20$std..io..Read$GT$11read_to_end17h09a8cd54df25e95bE
libclamav.so.11:_ZN47_$LT$std..fs..File$u20$as$u20$std..io..Read$GT$13read_vectored17hff6415f6dad17a03E
libclamav.so.11:_ZN47_$LT$std..fs..File$u20$as$u20$std..io..Read$GT$14read_to_string17h51479bd79a9fa1c6E
libclamav.so.11:_ZN47_$LT$std..fs..File$u20$as$u20$std..io..Read$GT$4read17h8a2fb9f64547cf0eE
libclamav.so.11:_ZN47_$LT$std..fs..File$u20$as$u20$std..io..Read$GT$8read_buf17h46b5045752d82a83E
libclamav.so.11:_ZN47_$LT$std..fs..File$u20$as$u20$std..io..Seek$GT$4seek17ha237fb2ac0996f2fE
libclamav.so.11:_ZN47_$LT$u16$u20$as$u20$tiff..decoder..Wrapping$GT$12wrapping_add17h3765d1b960b13625E
libclamav.so.11:_ZN47_$LT$u32$u20$as$u20$tiff..decoder..Wrapping$GT$12wrapping_add17hc2dd48221ed615a4E
libclamav.so.11:_ZN47_$LT$u64$u20$as$u20$tiff..decoder..Wrapping$GT$12wrapping_add17hf9410b8a5009c5c4E
libclamav.so.11:_ZN48_$LT$log..Record$u20$as$u20$core..fmt..Debug$GT$3fmt17hf12ba942a0a31b71E
libclamav.so.11:_ZN48_$LT$std..fs..File$u20$as$u20$std..io..Write$GT$14write_vectored17h10a5326f653949dfE
libclamav.so.11:_ZN48_$LT$std..fs..File$u20$as$u20$std..io..Write$GT$5flush17hc0127e8848def138E
libclamav.so.11:_ZN48_$LT$std..fs..File$u20$as$u20$std..io..Write$GT$5write17had8a5c2e1a068410E
libclamav.so.11:_ZN49_$LT$i8$u20$as$u20$core..fmt..num..DisplayInt$GT$4zero17h2b6374ce318a8dd2E
libclamav.so.11:_ZN49_$LT$i8$u20$as$u20$core..fmt..num..DisplayInt$GT$5to_u817hfd902445bf066b1dE
libclamav.so.11:_ZN49_$LT$i8$u20$as$u20$core..fmt..num..DisplayInt$GT$6to_u1617h10aace20d8e6ba71E
libclamav.so.11:_ZN49_$LT$i8$u20$as$u20$core..fmt..num..DisplayInt$GT$6to_u3217hdfdd62c820d6be9aE
libclamav.so.11:_ZN49_$LT$i8$u20$as$u20$core..fmt..num..DisplayInt$GT$6to_u6417h98c00d2ff569f516E
libclamav.so.11:_ZN49_$LT$i8$u20$as$u20$core..fmt..num..DisplayInt$GT$7from_u817h6c1cb221ee1f2e22E
libclamav.so.11:_ZN49_$LT$i8$u20$as$u20$core..fmt..num..DisplayInt$GT$7to_u12817hd3cf6f3c92e86f1aE
libclamav.so.11:_ZN49_$LT$i8$u20$as$u20$std..sys..unix..IsMinusOne$GT$12is_minus_one17he2d234d6ccfd0becE
libclamav.so.11:_ZN49_$LT$log..Level$u20$as$u20$core..fmt..Display$GT$3fmt17hd590267634fb7388E
libclamav.so.11:_ZN49_$LT$u8$u20$as$u20$core..fmt..num..DisplayInt$GT$4zero17h9319ff81e1fb0564E
libclamav.so.11:_ZN49_$LT$u8$u20$as$u20$core..fmt..num..DisplayInt$GT$5to_u817h6cf4fde9eb349053E
libclamav.so.11:_ZN49_$LT$u8$u20$as$u20$core..fmt..num..DisplayInt$GT$6to_u1617haf870d9d0013fe59E
libclamav.so.11:_ZN49_$LT$u8$u20$as$u20$core..fmt..num..DisplayInt$GT$6to_u3217h1471cd6e76d10b74E
libclamav.so.11:_ZN49_$LT$u8$u20$as$u20$core..fmt..num..DisplayInt$GT$6to_u6417h0ca3a692aed2503aE
libclamav.so.11:_ZN49_$LT$u8$u20$as$u20$core..fmt..num..DisplayInt$GT$7from_u817h090330b415644645E
libclamav.so.11:_ZN49_$LT$u8$u20$as$u20$core..fmt..num..DisplayInt$GT$7to_u12817h3895831dcecff47fE
libclamav.so.11:_ZN49_$LT$u8$u20$as$u20$core..num..bignum..FullOps$GT$12full_div_rem17h28542aa3e6edd4b3E
libclamav.so.11:_ZN49_$LT$u8$u20$as$u20$core..num..bignum..FullOps$GT$12full_mul_add17h27b9645b2a4865afE
libclamav.so.11:_ZN4core10intrinsics3mir4Goto17h64b814e10d7b7543E
libclamav.so.11:_ZN4core10intrinsics3mir6Return17h1636b00a1ff80db7E
libclamav.so.11:_ZN4core3any6Demand3new17h66cbff4bdca03112E
libclamav.so.11:_ZN4core3cmp5impls50_$LT$impl$u20$core..cmp..Ord$u20$for$u20$$u21$$GT$3cmp17h7d4f5c895d640bb9E
libclamav.so.11:_ZN4core3cmp5impls56_$LT$impl$u20$core..cmp..PartialEq$u20$for$u20$$u21$$GT$2eq17h3f3a8307d57aeb96E
libclamav.so.11:_ZN4core3cmp5impls57_$LT$impl$u20$core..cmp..PartialOrd$u20$for$u20$$u21$$GT$11partial_cmp17h4bfef6a0acaba607E
libclamav.so.11:_ZN4core3f3221_$LT$impl$u20$f32$GT$13classify_bits17h5fa0f56a83901305E
libclamav.so.11:_ZN4core3f3221_$LT$impl$u20$f32$GT$16partial_classify17h235a92d11cb803f7E
libclamav.so.11:_ZN4core3f3221_$LT$impl$u20$f32$GT$7next_up17hbb9b93a78bcefbb5E
libclamav.so.11:_ZN4core3f3221_$LT$impl$u20$f32$GT$7to_bits13ct_f32_to_u3217h88b17475101f3988E
libclamav.so.11:_ZN4core3f3221_$LT$impl$u20$f32$GT$8classify17h8424fb5a96a45524E
libclamav.so.11:_ZN4core3f3221_$LT$impl$u20$f32$GT$9from_bits13ct_u32_to_f3217h416f3809b59857a5E
libclamav.so.11:_ZN4core3f3221_$LT$impl$u20$f32$GT$9next_down17hf3320494d04d9f47E
libclamav.so.11:_ZN4core3f6421_$LT$impl$u20$f64$GT$13classify_bits17h87c0b2d4301b729eE
libclamav.so.11:_ZN4core3f6421_$LT$impl$u20$f64$GT$16partial_classify17hb88f5b6c2872902cE
libclamav.so.11:_ZN4core3f6421_$LT$impl$u20$f64$GT$7next_up17h27d135e1ba9d3728E
libclamav.so.11:_ZN4core3f6421_$LT$impl$u20$f64$GT$7to_bits13ct_f64_to_u6417hc05335c48b9b2088E
libclamav.so.11:_ZN4core3f6421_$LT$impl$u20$f64$GT$8classify17h1b8734b6e964d83fE
libclamav.so.11:_ZN4core3f6421_$LT$impl$u20$f64$GT$9from_bits13ct_u64_to_f6417h48490456f706bebcE
libclamav.so.11:_ZN4core3f6421_$LT$impl$u20$f64$GT$9next_down17h851d0f5b7d8a13c2E
libclamav.so.11:_ZN4core3ffi5c_str21FromBytesWithNulError12interior_nul17h3f1c3cd4162e6055E
libclamav.so.11:_ZN4core3ffi5c_str21FromBytesWithNulError13__description17hc07fea3061f0cbdbE
libclamav.so.11:_ZN4core3ffi5c_str21FromBytesWithNulError18not_nul_terminated17ha33ff2a08ba4ec68E
libclamav.so.11:_ZN4core3ffi5c_str4CStr19from_bytes_with_nul17hb536657017dbc2e9E
libclamav.so.11:_ZN4core3ffi5c_str4CStr20from_bytes_until_nul17h4cd007caf3d5582cE
libclamav.so.11:_ZN4core3ffi5c_str4CStr29from_bytes_with_nul_unchecked10const_impl17h229740232fa5bc96E
libclamav.so.11:_ZN4core3ffi5c_str4CStr6to_str17h3e3b231609965677E
libclamav.so.11:_ZN4core3ffi5c_str4CStr8from_ptr9strlen_ct17h58dff2e02482faa7E
libclamav.so.11:_ZN4core3ffi5c_str4CStr8from_ptr9strlen_rt17h2aced9bb6a747e9aE
libclamav.so.11:_ZN4core3fmt10ArgumentV110from_usize17hf0820c4086dfe7e4E
libclamav.so.11:_ZN4core3fmt17pointer_fmt_inner17h87a38eb39682f030E
libclamav.so.11:_ZN4core3fmt3num3imp51_$LT$impl$u20$core..fmt..Display$u20$for$u20$i8$GT$3fmt17hc58fb82db942cc79E
libclamav.so.11:_ZN4core3fmt3num3imp51_$LT$impl$u20$core..fmt..Display$u20$for$u20$u8$GT$3fmt17h6f5838fb68554c3eE
libclamav.so.11:_ZN4core3fmt3num3imp52_$LT$impl$u20$core..fmt..Display$u20$for$u20$i16$GT$3fmt17h33e971a2f011e7fbE
libclamav.so.11:_ZN4core3fmt3num3imp52_$LT$impl$u20$core..fmt..Display$u20$for$u20$i32$GT$3fmt17h2d7d42876c5a5a3aE
libclamav.so.11:_ZN4core3fmt3num3imp52_$LT$impl$u20$core..fmt..Display$u20$for$u20$i64$GT$3fmt17he5915741aa92063cE
libclamav.so.11:_ZN4core3fmt3num3imp52_$LT$impl$u20$core..fmt..Display$u20$for$u20$u16$GT$3fmt17h97c18124482292a9E
libclamav.so.11:_ZN4core3fmt3num3imp52_$LT$impl$u20$core..fmt..Display$u20$for$u20$u32$GT$3fmt17hd5b9825ed6763fe2E
libclamav.so.11:_ZN4core3fmt3num3imp52_$LT$impl$u20$core..fmt..Display$u20$for$u20$u64$GT$3fmt17ha909fd9796ede49eE
libclamav.so.11:_ZN4core3fmt3num3imp52_$LT$impl$u20$core..fmt..LowerExp$u20$for$u20$i8$GT$3fmt17h7fa3754563f4cf1cE
libclamav.so.11:_ZN4core3fmt3num3imp52_$LT$impl$u20$core..fmt..LowerExp$u20$for$u20$u8$GT$3fmt17hbb6ced66870d478fE
libclamav.so.11:_ZN4core3fmt3num3imp52_$LT$impl$u20$core..fmt..UpperExp$u20$for$u20$i8$GT$3fmt17hcbb5b47ab3049245E
libclamav.so.11:_ZN4core3fmt3num3imp52_$LT$impl$u20$core..fmt..UpperExp$u20$for$u20$u8$GT$3fmt17h858f541ffafb26dcE
libclamav.so.11:_ZN4core3fmt3num3imp53_$LT$impl$u20$core..fmt..LowerExp$u20$for$u20$i16$GT$3fmt17hba2267e755d310c8E
libclamav.so.11:_ZN4core3fmt3num3imp53_$LT$impl$u20$core..fmt..LowerExp$u20$for$u20$i32$GT$3fmt17h6c527ea839b40c6eE
libclamav.so.11:_ZN4core3fmt3num3imp53_$LT$impl$u20$core..fmt..LowerExp$u20$for$u20$i64$GT$3fmt17he09677d7258058c0E
libclamav.so.11:_ZN4core3fmt3num3imp53_$LT$impl$u20$core..fmt..LowerExp$u20$for$u20$u16$GT$3fmt17h8fdfdfc152f30ac3E
libclamav.so.11:_ZN4core3fmt3num3imp53_$LT$impl$u20$core..fmt..LowerExp$u20$for$u20$u32$GT$3fmt17h37d6b2acd8cf9875E
libclamav.so.11:_ZN4core3fmt3num3imp53_$LT$impl$u20$core..fmt..LowerExp$u20$for$u20$u64$GT$3fmt17h8fc84824e9aed68aE
libclamav.so.11:_ZN4core3fmt3num3imp53_$LT$impl$u20$core..fmt..UpperExp$u20$for$u20$i16$GT$3fmt17h95d034f5c075108dE
libclamav.so.11:_ZN4core3fmt3num3imp53_$LT$impl$u20$core..fmt..UpperExp$u20$for$u20$i32$GT$3fmt17h6ffd1ebac49917ceE
libclamav.so.11:_ZN4core3fmt3num3imp53_$LT$impl$u20$core..fmt..UpperExp$u20$for$u20$i64$GT$3fmt17hda8494fd34f43ab2E
libclamav.so.11:_ZN4core3fmt3num3imp53_$LT$impl$u20$core..fmt..UpperExp$u20$for$u20$u16$GT$3fmt17h323cc0345d9b51a7E
libclamav.so.11:_ZN4core3fmt3num3imp53_$LT$impl$u20$core..fmt..UpperExp$u20$for$u20$u32$GT$3fmt17h472e653527a10fd1E
libclamav.so.11:_ZN4core3fmt3num3imp53_$LT$impl$u20$core..fmt..UpperExp$u20$for$u20$u64$GT$3fmt17h66e328d575a3e05cE
libclamav.so.11:_ZN4core3fmt3num3imp54_$LT$impl$u20$core..fmt..Display$u20$for$u20$isize$GT$3fmt17h3df66e086c836058E
libclamav.so.11:_ZN4core3fmt3num3imp54_$LT$impl$u20$core..fmt..Display$u20$for$u20$usize$GT$3fmt17h1002b9e655a00d4eE
libclamav.so.11:_ZN4core3fmt3num3imp55_$LT$impl$u20$core..fmt..LowerExp$u20$for$u20$isize$GT$3fmt17h01efb3b79a3f8727E
libclamav.so.11:_ZN4core3fmt3num3imp55_$LT$impl$u20$core..fmt..LowerExp$u20$for$u20$usize$GT$3fmt17h17fe62c6294218daE
libclamav.so.11:_ZN4core3fmt3num3imp55_$LT$impl$u20$core..fmt..UpperExp$u20$for$u20$isize$GT$3fmt17h35341ffe0d5d3735E
libclamav.so.11:_ZN4core3fmt3num3imp55_$LT$impl$u20$core..fmt..UpperExp$u20$for$u20$usize$GT$3fmt17h0a34ec3432f5f619E
libclamav.so.11:_ZN4core3fmt3num49_$LT$impl$u20$core..fmt..Octal$u20$for$u20$i8$GT$3fmt17hffde577d7d35ec41E
libclamav.so.11:_ZN4core3fmt3num49_$LT$impl$u20$core..fmt..Octal$u20$for$u20$u8$GT$3fmt17h8e9af4e51715df5cE
libclamav.so.11:_ZN4core3fmt3num50_$LT$impl$u20$core..fmt..Binary$u20$for$u20$i8$GT$3fmt17h8ae2a26bde0f3455E
libclamav.so.11:_ZN4core3fmt3num50_$LT$impl$u20$core..fmt..Binary$u20$for$u20$u8$GT$3fmt17h0b79aaf8d682e040E
libclamav.so.11:_ZN4core3fmt3num50_$LT$impl$u20$core..fmt..Octal$u20$for$u20$i16$GT$3fmt17h2e294b83955fe708E
libclamav.so.11:_ZN4core3fmt3num50_$LT$impl$u20$core..fmt..Octal$u20$for$u20$i32$GT$3fmt17h27660d7383f4fd47E
libclamav.so.11:_ZN4core3fmt3num50_$LT$impl$u20$core..fmt..Octal$u20$for$u20$i64$GT$3fmt17h4941a9e9796d701fE
libclamav.so.11:_ZN4core3fmt3num50_$LT$impl$u20$core..fmt..Octal$u20$for$u20$u16$GT$3fmt17h4b529466d14a5f82E
libclamav.so.11:_ZN4core3fmt3num50_$LT$impl$u20$core..fmt..Octal$u20$for$u20$u32$GT$3fmt17h0b01225197910634E
libclamav.so.11:_ZN4core3fmt3num50_$LT$impl$u20$core..fmt..Octal$u20$for$u20$u64$GT$3fmt17hb96d805b287c6638E
libclamav.so.11:_ZN4core3fmt3num51_$LT$impl$u20$core..fmt..Binary$u20$for$u20$i16$GT$3fmt17h3a9fd3636015cd37E
libclamav.so.11:_ZN4core3fmt3num51_$LT$impl$u20$core..fmt..Binary$u20$for$u20$i32$GT$3fmt17h2c70799ceb9b5a21E
libclamav.so.11:_ZN4core3fmt3num51_$LT$impl$u20$core..fmt..Binary$u20$for$u20$i64$GT$3fmt17h7fd5f73526ba8361E
libclamav.so.11:_ZN4core3fmt3num51_$LT$impl$u20$core..fmt..Binary$u20$for$u20$u16$GT$3fmt17h1a220f5ec6f52cd0E
libclamav.so.11:_ZN4core3fmt3num51_$LT$impl$u20$core..fmt..Binary$u20$for$u20$u32$GT$3fmt17h9dccc8212827a51fE
libclamav.so.11:_ZN4core3fmt3num51_$LT$impl$u20$core..fmt..Binary$u20$for$u20$u64$GT$3fmt17hc072f1bdfb888136E
libclamav.so.11:_ZN4core3fmt3num51_$LT$impl$u20$core..fmt..Octal$u20$for$u20$i128$GT$3fmt17h143ab69ade9412e6E
libclamav.so.11:_ZN4core3fmt3num51_$LT$impl$u20$core..fmt..Octal$u20$for$u20$u128$GT$3fmt17h584cc3acf01aac80E
libclamav.so.11:_ZN4core3fmt3num52_$LT$impl$u20$core..fmt..Binary$u20$for$u20$i128$GT$3fmt17h0149dba7ca06bdccE
libclamav.so.11:_ZN4core3fmt3num52_$LT$impl$u20$core..fmt..Binary$u20$for$u20$u128$GT$3fmt17hc2f03dfff86b5c3aE
libclamav.so.11:_ZN4core3fmt3num52_$LT$impl$u20$core..fmt..LowerHex$u20$for$u20$i8$GT$3fmt17h926ebdaea55e9ae2E
libclamav.so.11:_ZN4core3fmt3num52_$LT$impl$u20$core..fmt..LowerHex$u20$for$u20$u8$GT$3fmt17ha9808d6285bbb536E
libclamav.so.11:_ZN4core3fmt3num52_$LT$impl$u20$core..fmt..Octal$u20$for$u20$isize$GT$3fmt17h7233cb9f89f3dc20E
libclamav.so.11:_ZN4core3fmt3num52_$LT$impl$u20$core..fmt..Octal$u20$for$u20$usize$GT$3fmt17h079ab8e5d6a7137bE
libclamav.so.11:_ZN4core3fmt3num52_$LT$impl$u20$core..fmt..UpperHex$u20$for$u20$i8$GT$3fmt17h6dea679671a12be3E
libclamav.so.11:_ZN4core3fmt3num52_$LT$impl$u20$core..fmt..UpperHex$u20$for$u20$u8$GT$3fmt17hcf89879c9ced1b0eE
libclamav.so.11:_ZN4core3fmt3num53_$LT$impl$u20$core..fmt..Binary$u20$for$u20$isize$GT$3fmt17hc84d6924f14a0232E
libclamav.so.11:_ZN4core3fmt3num53_$LT$impl$u20$core..fmt..Binary$u20$for$u20$usize$GT$3fmt17h5ee4df23417f0c31E
libclamav.so.11:_ZN4core3fmt3num53_$LT$impl$u20$core..fmt..Display$u20$for$u20$i128$GT$3fmt17h666fb494f7bf05f8E
libclamav.so.11:_ZN4core3fmt3num53_$LT$impl$u20$core..fmt..Display$u20$for$u20$u128$GT$3fmt17h959f7404b7e000a9E
libclamav.so.11:_ZN4core3fmt3num53_$LT$impl$u20$core..fmt..LowerHex$u20$for$u20$i16$GT$3fmt17hf45fdf493c82cd01E
libclamav.so.11:_ZN4core3fmt3num53_$LT$impl$u20$core..fmt..LowerHex$u20$for$u20$i32$GT$3fmt17h3d0dd3933704db9dE
libclamav.so.11:_ZN4core3fmt3num53_$LT$impl$u20$core..fmt..LowerHex$u20$for$u20$i64$GT$3fmt17hefdf186c7b32eee1E
libclamav.so.11:_ZN4core3fmt3num53_$LT$impl$u20$core..fmt..LowerHex$u20$for$u20$u16$GT$3fmt17he04e01bb1e14123eE
libclamav.so.11:_ZN4core3fmt3num53_$LT$impl$u20$core..fmt..LowerHex$u20$for$u20$u32$GT$3fmt17hb2eb7a2bd43e5d72E
libclamav.so.11:_ZN4core3fmt3num53_$LT$impl$u20$core..fmt..LowerHex$u20$for$u20$u64$GT$3fmt17h4ea5e8f53566d570E
libclamav.so.11:_ZN4core3fmt3num53_$LT$impl$u20$core..fmt..UpperHex$u20$for$u20$i16$GT$3fmt17h305fed34e1ef7571E
libclamav.so.11:_ZN4core3fmt3num53_$LT$impl$u20$core..fmt..UpperHex$u20$for$u20$i32$GT$3fmt17h430ab7086427fea9E
libclamav.so.11:_ZN4core3fmt3num53_$LT$impl$u20$core..fmt..UpperHex$u20$for$u20$i64$GT$3fmt17h6cbdf1910c356608E
libclamav.so.11:_ZN4core3fmt3num53_$LT$impl$u20$core..fmt..UpperHex$u20$for$u20$u16$GT$3fmt17h382af1e5d0db0aa9E
libclamav.so.11:_ZN4core3fmt3num53_$LT$impl$u20$core..fmt..UpperHex$u20$for$u20$u32$GT$3fmt17had81175144178139E
libclamav.so.11:_ZN4core3fmt3num53_$LT$impl$u20$core..fmt..UpperHex$u20$for$u20$u64$GT$3fmt17h90c501e96ab66abdE
libclamav.so.11:_ZN4core3fmt3num54_$LT$impl$u20$core..fmt..LowerExp$u20$for$u20$i128$GT$3fmt17hd702381169666326E
libclamav.so.11:_ZN4core3fmt3num54_$LT$impl$u20$core..fmt..LowerExp$u20$for$u20$u128$GT$3fmt17h371a565e54327488E
libclamav.so.11:_ZN4core3fmt3num54_$LT$impl$u20$core..fmt..LowerHex$u20$for$u20$i128$GT$3fmt17he9f7cd74bb62320aE
libclamav.so.11:_ZN4core3fmt3num54_$LT$impl$u20$core..fmt..LowerHex$u20$for$u20$u128$GT$3fmt17hc49a52909451d7adE
libclamav.so.11:_ZN4core3fmt3num54_$LT$impl$u20$core..fmt..UpperExp$u20$for$u20$i128$GT$3fmt17h3aee11343acbf348E
libclamav.so.11:_ZN4core3fmt3num54_$LT$impl$u20$core..fmt..UpperExp$u20$for$u20$u128$GT$3fmt17h65346de468458054E
libclamav.so.11:_ZN4core3fmt3num54_$LT$impl$u20$core..fmt..UpperHex$u20$for$u20$i128$GT$3fmt17h300ad6e4a8f49580E
libclamav.so.11:_ZN4core3fmt3num54_$LT$impl$u20$core..fmt..UpperHex$u20$for$u20$u128$GT$3fmt17h94deb7ef35700f48E
libclamav.so.11:_ZN4core3fmt3num55_$LT$impl$u20$core..fmt..LowerHex$u20$for$u20$isize$GT$3fmt17ha9db045df8522b3dE
libclamav.so.11:_ZN4core3fmt3num55_$LT$impl$u20$core..fmt..LowerHex$u20$for$u20$usize$GT$3fmt17ha98e9e3658d8caf1E
libclamav.so.11:_ZN4core3fmt3num55_$LT$impl$u20$core..fmt..UpperHex$u20$for$u20$isize$GT$3fmt17h97c7636977a39c3cE
libclamav.so.11:_ZN4core3fmt3num55_$LT$impl$u20$core..fmt..UpperHex$u20$for$u20$usize$GT$3fmt17he17b8a02bf465ef7E
libclamav.so.11:_ZN4core3fmt5float50_$LT$impl$u20$core..fmt..Debug$u20$for$u20$f32$GT$3fmt17h53c7f465b7642236E
libclamav.so.11:_ZN4core3fmt5float50_$LT$impl$u20$core..fmt..Debug$u20$for$u20$f64$GT$3fmt17h58d4a39aa0de3690E
libclamav.so.11:_ZN4core3fmt5float52_$LT$impl$u20$core..fmt..Display$u20$for$u20$f32$GT$3fmt17h23286cb3002c1ec1E
libclamav.so.11:_ZN4core3fmt5float52_$LT$impl$u20$core..fmt..Display$u20$for$u20$f64$GT$3fmt17h589ab7be1a9d6307E
libclamav.so.11:_ZN4core3fmt5float53_$LT$impl$u20$core..fmt..LowerExp$u20$for$u20$f32$GT$3fmt17hef2f513ac062b582E
libclamav.so.11:_ZN4core3fmt5float53_$LT$impl$u20$core..fmt..LowerExp$u20$for$u20$f64$GT$3fmt17h3300ce46f4fe9761E
libclamav.so.11:_ZN4core3fmt5float53_$LT$impl$u20$core..fmt..UpperExp$u20$for$u20$f32$GT$3fmt17hc93bb4c9945d9cadE
libclamav.so.11:_ZN4core3fmt5float53_$LT$impl$u20$core..fmt..UpperExp$u20$for$u20$f64$GT$3fmt17h21b527dfc0f9450bE
libclamav.so.11:_ZN4core3fmt5write17h90f7706c3d31064cE
libclamav.so.11:_ZN4core3fmt8builders10DebugTuple5field17he2c29908863381daE
libclamav.so.11:_ZN4core3fmt8builders10DebugTuple6finish17h68b045c66cac051eE
libclamav.so.11:_ZN4core3fmt8builders11DebugStruct21finish_non_exhaustive17ha10a5c8e2fac5660E
libclamav.so.11:_ZN4core3fmt8builders11DebugStruct5field17hebb1d8adbe5df02aE
libclamav.so.11:_ZN4core3fmt8builders11DebugStruct6finish17h17e014c2f3a9b27cE
libclamav.so.11:_ZN4core3fmt8builders8DebugMap3key17h884e38b20ea94538E
libclamav.so.11:_ZN4core3fmt8builders8DebugMap5entry17hbbca5e4fc4fefe3cE
libclamav.so.11:_ZN4core3fmt8builders8DebugMap5value17h0c4a23d6930a6511E
libclamav.so.11:_ZN4core3fmt8builders8DebugMap6finish17h8819965f7ee89e68E
libclamav.so.11:_ZN4core3fmt8builders8DebugSet5entry17h5bfa8a58ba24659fE
libclamav.so.11:_ZN4core3fmt8builders8DebugSet6finish17hcc1a11c1d2b78019E
libclamav.so.11:_ZN4core3fmt8builders9DebugList5entry17hae495f02f0c2bf9aE
libclamav.so.11:_ZN4core3fmt8builders9DebugList6finish17h28f101160869a8d1E
libclamav.so.11:_ZN4core3fmt9Formatter10debug_list17hf5929cd9ea58c5a1E
libclamav.so.11:_ZN4core3fmt9Formatter10sign_minus17h17a57c128ee03e19E
libclamav.so.11:_ZN4core3fmt9Formatter11debug_tuple17h01930ccc3f215797E
libclamav.so.11:_ZN4core3fmt9Formatter12debug_struct17h753920c381129903E
libclamav.so.11:_ZN4core3fmt9Formatter12pad_integral17h1ccd3320e5d7b5a6E
libclamav.so.11:_ZN4core3fmt9Formatter15debug_lower_hex17h44af963a50db5d36E
libclamav.so.11:_ZN4core3fmt9Formatter15debug_upper_hex17h06c9ddead1f7b270E
libclamav.so.11:_ZN4core3fmt9Formatter19sign_aware_zero_pad17h218de2fe7bfbaacfE
libclamav.so.11:_ZN4core3fmt9Formatter25debug_tuple_field1_finish17h0da45a62d9811dc6E
libclamav.so.11:_ZN4core3fmt9Formatter25debug_tuple_field2_finish17h939fc7b8ed7e9daeE
libclamav.so.11:_ZN4core3fmt9Formatter25debug_tuple_field3_finish17hb9e6ae06e6dacf61E
libclamav.so.11:_ZN4core3fmt9Formatter25debug_tuple_field4_finish17hec9ede0f04df8194E
libclamav.so.11:_ZN4core3fmt9Formatter25debug_tuple_field5_finish17h5ab2de9eafbf88b0E
libclamav.so.11:_ZN4core3fmt9Formatter25debug_tuple_fields_finish17h2e884752737c663eE
libclamav.so.11:_ZN4core3fmt9Formatter26debug_struct_field1_finish17hf0bd1eb64773bd39E
libclamav.so.11:_ZN4core3fmt9Formatter26debug_struct_field2_finish17hd1acbebab78a936bE
libclamav.so.11:_ZN4core3fmt9Formatter26debug_struct_field3_finish17h1c1d7f479a25e45cE
libclamav.so.11:_ZN4core3fmt9Formatter26debug_struct_field4_finish17h43629fc670213984E
libclamav.so.11:_ZN4core3fmt9Formatter26debug_struct_field5_finish17hd5ddc80a3c2e8dd0E
libclamav.so.11:_ZN4core3fmt9Formatter26debug_struct_fields_finish17hd2baf06be9347355E
libclamav.so.11:_ZN4core3fmt9Formatter3new17h954f58b53a6fc98fE
libclamav.so.11:_ZN4core3fmt9Formatter3pad17h0eb14bce2451b21eE
libclamav.so.11:_ZN4core3fmt9Formatter4fill17h60a38cad4a8b74eaE
libclamav.so.11:_ZN4core3fmt9Formatter5align17h1cd35ec3bf99ea17E
libclamav.so.11:_ZN4core3fmt9Formatter5flags17hf1f96f8f6e27a68fE
libclamav.so.11:_ZN4core3fmt9Formatter5width17h9ce1de08a19766c6E
libclamav.so.11:_ZN4core3fmt9Formatter9alternate17h2445a0485bc8ef93E
libclamav.so.11:_ZN4core3fmt9Formatter9debug_map17h6e8b5269b533a6ccE
libclamav.so.11:_ZN4core3fmt9Formatter9debug_set17h97f30544191f70b8E
libclamav.so.11:_ZN4core3fmt9Formatter9precision17h85b5dcb5ba3bfb7cE
libclamav.so.11:_ZN4core3fmt9Formatter9sign_plus17h78d1104bb74b42f5E
libclamav.so.11:_ZN4core3fmt9Formatter9write_fmt17h3aa8a56e992f6052E
libclamav.so.11:_ZN4core3fmt9Formatter9write_str17h67baa95498831c2dE
libclamav.so.11:_ZN4core3mem15transmutability6Assume3and17hd5539912fc2dfb51E
libclamav.so.11:_ZN4core3mem15transmutability6Assume7but_not17h3a875c16a9e598c9E
libclamav.so.11:_ZN4core3num20_$LT$impl$u20$i8$GT$14from_str_radix17hd8fe587ddbbd5599E
libclamav.so.11:_ZN4core3num20_$LT$impl$u20$u8$GT$14from_str_radix17hfcb7911c30ed9ed3E
libclamav.so.11:_ZN4core3num21_$LT$impl$u20$i16$GT$14from_str_radix17h633cf4bce1d79a31E
libclamav.so.11:_ZN4core3num21_$LT$impl$u20$i32$GT$14from_str_radix17h5ac9183ee3e48cc9E
libclamav.so.11:_ZN4core3num21_$LT$impl$u20$i64$GT$14from_str_radix17h89790547c1617d9dE
libclamav.so.11:_ZN4core3num21_$LT$impl$u20$u16$GT$14from_str_radix17he541c575b61c3fd8E
libclamav.so.11:_ZN4core3num21_$LT$impl$u20$u32$GT$14from_str_radix17h671fb68c1f2e8e6dE
libclamav.so.11:_ZN4core3num21_$LT$impl$u20$u64$GT$14from_str_radix17h12dca93d2f76de6bE
libclamav.so.11:_ZN4core3num22_$LT$impl$u20$i128$GT$14from_str_radix17h3328b112a13545ccE
libclamav.so.11:_ZN4core3num22_$LT$impl$u20$u128$GT$14from_str_radix17he8f1b0c36af3d6dcE
libclamav.so.11:_ZN4core3num23_$LT$impl$u20$isize$GT$14from_str_radix17h4fa5b9deac79eecfE
libclamav.so.11:_ZN4core3num23_$LT$impl$u20$usize$GT$14from_str_radix17h5b900e1f659ec62cE
libclamav.so.11:_ZN4core3num3fmt4Part3len17h7bee1ab2bdd71210E
libclamav.so.11:_ZN4core3num3fmt4Part5write17h6c8271e8a7cddeb0E
libclamav.so.11:_ZN4core3num3fmt9Formatted3len17hc2f1329f2a91623dE
libclamav.so.11:_ZN4core3num3fmt9Formatted5write17hcff3f198e0aa218aE
libclamav.so.11:_ZN4core3num59_$LT$impl$u20$core..str..traits..FromStr$u20$for$u20$i8$GT$8from_str17h209e195c4d6d8330E
libclamav.so.11:_ZN4core3num59_$LT$impl$u20$core..str..traits..FromStr$u20$for$u20$u8$GT$8from_str17h7d808bb4ee5842a0E
libclamav.so.11:_ZN4core3num5error13ParseIntError13__description17h821ba4f2a4579011E
libclamav.so.11:_ZN4core3num5error13ParseIntError4kind17hfd2f9faaaf021a99E
libclamav.so.11:_ZN4core3num5error15TryFromIntError13__description17hef29774d90160439E
libclamav.so.11:_ZN4core3num60_$LT$impl$u20$core..str..traits..FromStr$u20$for$u20$i16$GT$8from_str17hbe0062317207e2d2E
libclamav.so.11:_ZN4core3num60_$LT$impl$u20$core..str..traits..FromStr$u20$for$u20$i32$GT$8from_str17hc9fd4814150e7a06E
libclamav.so.11:_ZN4core3num60_$LT$impl$u20$core..str..traits..FromStr$u20$for$u20$i64$GT$8from_str17h7663d32c2a3b7f6fE
libclamav.so.11:_ZN4core3num60_$LT$impl$u20$core..str..traits..FromStr$u20$for$u20$u16$GT$8from_str17h266ea33f05aed2dbE
libclamav.so.11:_ZN4core3num60_$LT$impl$u20$core..str..traits..FromStr$u20$for$u20$u32$GT$8from_str17h597d178ec9b0aa43E
libclamav.so.11:_ZN4core3num60_$LT$impl$u20$core..str..traits..FromStr$u20$for$u20$u64$GT$8from_str17h299eb560c2da92caE
libclamav.so.11:_ZN4core3num61_$LT$impl$u20$core..str..traits..FromStr$u20$for$u20$i128$GT$8from_str17h4d01becb2a2270d6E
libclamav.so.11:_ZN4core3num61_$LT$impl$u20$core..str..traits..FromStr$u20$for$u20$u128$GT$8from_str17he60017a6db2d6cebE
libclamav.so.11:_ZN4core3num62_$LT$impl$u20$core..str..traits..FromStr$u20$for$u20$isize$GT$8from_str17h24f4cea93b59674aE
libclamav.so.11:_ZN4core3num62_$LT$impl$u20$core..str..traits..FromStr$u20$for$u20$usize$GT$8from_str17h8dc9d83fa05909f7E
libclamav.so.11:_ZN4core3num6bignum5tests6Big8x310bit_length17h46e5509b9cffbd78E
libclamav.so.11:_ZN4core3num6bignum5tests6Big8x310from_small17hb1336b2aa3fb5dd7E
libclamav.so.11:_ZN4core3num6bignum5tests6Big8x310mul_digits17he9857d09b18064efE
libclamav.so.11:_ZN4core3num6bignum5tests6Big8x313div_rem_small17h98ad85e41b3ee173E
libclamav.so.11:_ZN4core3num6bignum5tests6Big8x33add17h73bf72b7ad88a1d3E
libclamav.so.11:_ZN4core3num6bignum5tests6Big8x33sub17h7f29e94a86515f28E
libclamav.so.11:_ZN4core3num6bignum5tests6Big8x36digits17h6baa9c2808dc2603E
libclamav.so.11:_ZN4core3num6bignum5tests6Big8x37div_rem17hb990ee63e21cbd27E
libclamav.so.11:_ZN4core3num6bignum5tests6Big8x37get_bit17h2bf302a7505c0941E
libclamav.so.11:_ZN4core3num6bignum5tests6Big8x37is_zero17hcbc42b2c08b4f977E
libclamav.so.11:_ZN4core3num6bignum5tests6Big8x38from_u6417ha17cd718ddf4c998E
libclamav.so.11:_ZN4core3num6bignum5tests6Big8x38mul_pow217hac7b0baf1b71ba76E
libclamav.so.11:_ZN4core3num6bignum5tests6Big8x38mul_pow517h495e697a034336afE
libclamav.so.11:_ZN4core3num6bignum5tests6Big8x39add_small17h1fd3004ea3b931b6E
libclamav.so.11:_ZN4core3num6bignum5tests6Big8x39mul_small17h718475c8d6ec205fE
libclamav.so.11:_ZN4core3num6bignum8Big32x4010bit_length17h4b6f3f47756faacfE
libclamav.so.11:_ZN4core3num6bignum8Big32x4010from_small17h7aa0afe89c305ba5E
libclamav.so.11:_ZN4core3num6bignum8Big32x4010mul_digits17h188995a3393c8c93E
libclamav.so.11:_ZN4core3num6bignum8Big32x4013div_rem_small17h7cb4a25db485f250E
libclamav.so.11:_ZN4core3num6bignum8Big32x403add17ha16de0a787a75a14E
libclamav.so.11:_ZN4core3num6bignum8Big32x403sub17h141326cba365a17dE
libclamav.so.11:_ZN4core3num6bignum8Big32x406digits17h9c2bcf85dd68199fE
libclamav.so.11:_ZN4core3num6bignum8Big32x407div_rem17h5c6c5ca932fa9c08E
libclamav.so.11:_ZN4core3num6bignum8Big32x407get_bit17h9561e8c2d1114c7fE
libclamav.so.11:_ZN4core3num6bignum8Big32x407is_zero17h8862768b9b7aa21eE
libclamav.so.11:_ZN4core3num6bignum8Big32x408from_u6417h86a3de1b59f7a2e5E
libclamav.so.11:_ZN4core3num6bignum8Big32x408mul_pow217h6195b63dba498593E
libclamav.so.11:_ZN4core3num6bignum8Big32x408mul_pow517h86d03cadb9ee7b5fE
libclamav.so.11:_ZN4core3num6bignum8Big32x409add_small17h255e5d026a378139E
libclamav.so.11:_ZN4core3num6bignum8Big32x409mul_small17he9b67bec387b20cdE
libclamav.so.11:_ZN4core3num7dec2flt11pfe_invalid17ha7766bf085879a05E
libclamav.so.11:_ZN4core3num7dec2flt15ParseFloatError13__description17h2128c4f1bd556cc9E
libclamav.so.11:_ZN4core3num7dec2flt5parse12parse_number17had9ca5022c53168dE
libclamav.so.11:_ZN4core3num7dec2flt5parse21parse_partial_inf_nan14parse_inf_rest17h9a00e34101754a2dE
libclamav.so.11:_ZN4core3num7dec2flt6common8BiasedFp9zero_pow217h141b0f566595efafE
libclamav.so.11:_ZN4core3num7dec2flt6lemire22compute_product_approx17h0a16f6e19c7117ceE
libclamav.so.11:_ZN4core3num7dec2flt6lemire5power17hff5be90703f5ddd1E
libclamav.so.11:_ZN4core3num7dec2flt7decimal13parse_decimal17h8be29172ceff46d5E
libclamav.so.11:_ZN4core3num7dec2flt7decimal7Decimal10left_shift17hf15ba4824d17f4e9E
libclamav.so.11:_ZN4core3num7dec2flt7decimal7Decimal11right_shift17hd18a090cda82f239E
libclamav.so.11:_ZN4core3num7dec2flt7decimal7Decimal5round17h90b76f5f642c708eE
libclamav.so.11:_ZN4core3num7dec2flt9pfe_empty17hbc48740f4740b25bE
libclamav.so.11:_ZN4core3num7flt2dec14determine_sign17h438f080b189b56ceE
libclamav.so.11:_ZN4core3num7flt2dec17digits_to_dec_str17h396b0a193f06c587E
libclamav.so.11:_ZN4core3num7flt2dec17digits_to_exp_str17ha123538a82968600E
libclamav.so.11:_ZN4core3num7flt2dec20estimate_max_buf_len17hbbc580c07927a3cfE
libclamav.so.11:_ZN4core3num7flt2dec8round_up17h19f09cfb46a1a1eaE
libclamav.so.11:_ZN4core3num7flt2dec8strategy5grisu12cached_power17h3155ff59c09bdfbeE
libclamav.so.11:_ZN4core3num7flt2dec8strategy5grisu12format_exact17h283ef2039f38a761E
libclamav.so.11:_ZN4core3num7flt2dec8strategy5grisu15format_shortest17h7e445d9a7ab9ec19E
libclamav.so.11:_ZN4core3num7flt2dec8strategy5grisu16format_exact_opt17hd0fd36726b1fde24E
libclamav.so.11:_ZN4core3num7flt2dec8strategy5grisu19format_shortest_opt17h644fd5947f93c1b3E
libclamav.so.11:_ZN4core3num7flt2dec8strategy5grisu22max_pow10_no_more_than17h7c030c1876f4e824E
libclamav.so.11:_ZN4core3num7flt2dec8strategy6dragon12format_exact17ha89f2a58528dca66E
libclamav.so.11:_ZN4core3num7flt2dec8strategy6dragon15format_shortest17h1f4f0cf1c5504bf0E
libclamav.so.11:_ZN4core3num7flt2dec8strategy6dragon9mul_pow1017h04ffc6356f015bacE
libclamav.so.11:_ZN4core3num7flt2dec9estimator23estimate_scaling_factor17he0bf4b900aef376cE
libclamav.so.11:_ZN4core3num7nonzero10NonZeroI1613new_unchecked8comptime17hbb0eec861c5799e9E
libclamav.so.11:_ZN4core3num7nonzero10NonZeroI3213new_unchecked8comptime17h425b3ecd7c0c33adE
libclamav.so.11:_ZN4core3num7nonzero10NonZeroI6413new_unchecked8comptime17h5d6cbbee3b5cbcaaE
libclamav.so.11:_ZN4core3num7nonzero10NonZeroU1613new_unchecked8comptime17hcd3e32b7d7b73d5fE
libclamav.so.11:_ZN4core3num7nonzero10NonZeroU3213new_unchecked8comptime17hd5f84c8b9937d569E
libclamav.so.11:_ZN4core3num7nonzero10NonZeroU6413new_unchecked8comptime17ha3ea5d1508ac1987E
libclamav.so.11:_ZN4core3num7nonzero11NonZeroI12813new_unchecked8comptime17h980913ee14938ed1E
libclamav.so.11:_ZN4core3num7nonzero11NonZeroU12813new_unchecked8comptime17h324dea8dbf04a9f7E
libclamav.so.11:_ZN4core3num7nonzero12NonZeroIsize13new_unchecked8comptime17h96642cdd08e99648E
libclamav.so.11:_ZN4core3num7nonzero12NonZeroUsize13new_unchecked8comptime17h2c5a0e0469e739e4E
libclamav.so.11:_ZN4core3num7nonzero9NonZeroI813new_unchecked8comptime17h95bee348ea576d4aE
libclamav.so.11:_ZN4core3num7nonzero9NonZeroU813new_unchecked8comptime17h01be71a37e5fde18E
libclamav.so.11:_ZN4core3num84_$LT$impl$u20$core..error..Error$u20$for$u20$core..num..dec2flt..ParseFloatError$GT$11description17h77806f3734072251E
libclamav.so.11:_ZN4core3num9diy_float2Fp12normalize_to17h63eb2073517afebbE
libclamav.so.11:_ZN4core3num9diy_float2Fp3mul17hecabb6ed7f931dc8E
libclamav.so.11:_ZN4core3num9diy_float2Fp9normalize17hd153b79aa1d25b87E
libclamav.so.11:_ZN4core3ops11index_range10IndexRange13new_unchecked8comptime17h4fbee22aa4a79378E
libclamav.so.11:_ZN4core3ptr9alignment9Alignment13new_unchecked8comptime17ha192901e27aa8710E
libclamav.so.11:_ZN4core3str16slice_error_fail17hd85edc52ec055026E
libclamav.so.11:_ZN4core3str19slice_error_fail_ct17h1923db46a3aa8bb5E
libclamav.so.11:_ZN4core3str19slice_error_fail_rt17hf09919124e586008E
libclamav.so.11:_ZN4core3str21_$LT$impl$u20$str$GT$12encode_utf1617h6544aa413c1b4c10E
libclamav.so.11:_ZN4core3str21_$LT$impl$u20$str$GT$12escape_debug17hd6de6e80b82ece01E
libclamav.so.11:_ZN4core3str21_$LT$impl$u20$str$GT$14escape_default17hbf6e4225ded875c8E
libclamav.so.11:_ZN4core3str21_$LT$impl$u20$str$GT$14escape_unicode17h5e889c69c79a941fE
libclamav.so.11:_ZN4core3str5count14do_count_chars17hf95eb60fe3e04aa4E
libclamav.so.11:_ZN4core3str5count23char_count_general_case17h2ab757559bfb4e61E
libclamav.so.11:_ZN4core3str5lossy10Utf8Chunks3new17h3e506930c569662cE
libclamav.so.11:_ZN4core3str5lossy10Utf8Chunks5debug17hd08f64ebd9d9c0e9E
libclamav.so.11:_ZN4core3str5lossy9Utf8Chunk5valid17hd9e27af13b14f6deE
libclamav.so.11:_ZN4core3str5lossy9Utf8Chunk7invalid17h30be6b2ccefb3070E
libclamav.so.11:_ZN4core3str6traits23str_index_overflow_fail17h5c2aeaa4ab8d1e27E
libclamav.so.11:_ZN4core3str7pattern11StrSearcher3new17hfa87ff1fa3a1d12aE
libclamav.so.11:_ZN4core3str8converts13from_utf8_mut17hb3c0e8e05fc34ac6E
libclamav.so.11:_ZN4core3str8converts9from_utf817hedd29c41369c3332E
libclamav.so.11:_ZN4core4char15CaseMappingIter3new17he0a87bae1f83a372E
libclamav.so.11:_ZN4core4char6decode16DecodeUtf16Error18unpaired_surrogate17h165a1b03361f8a6bE
libclamav.so.11:_ZN4core4char7convert14ParseCharError13__description17hf3680ea40634cd5eE
libclamav.so.11:_ZN4core4hint21unreachable_unchecked8comptime17h516774271c4f375cE
libclamav.so.11:_ZN4core4task4wake14RawWakerVTable3new17h5a8d6c815ba1a6c8E
libclamav.so.11:_ZN4core4time21TryFromFloatSecsError11description17h144afb9b5df9765aE
libclamav.so.11:_ZN4core4time83_$LT$impl$u20$core..ops..arith..Mul$LT$core..time..Duration$GT$$u20$for$u20$u32$GT$3mul17h6b45b934af6d07f9E
libclamav.so.11:_ZN4core5ascii14escape_default17h2e18798ccb4ab5f6E
libclamav.so.11:_ZN4core5panic10panic_info9PanicInfo10can_unwind17h49c3c2a8e9186babE
libclamav.so.11:_ZN4core5panic10panic_info9PanicInfo7message17h829b2dddc177effaE
libclamav.so.11:_ZN4core5panic10panic_info9PanicInfo7payload17h60dacfb7187bd867E
libclamav.so.11:_ZN4core5panic10panic_info9PanicInfo8location17h14c1aa61ee802250E
libclamav.so.11:_ZN4core5panic8location8Location20internal_constructor17h7cfa97c5862a1d68E
libclamav.so.11:_ZN4core5slice29_$LT$impl$u20$$u5b$T$u5d$$GT$15copy_from_slice17len_mismatch_fail17hf863611eec7c0d75E
libclamav.so.11:_ZN4core5slice29_$LT$impl$u20$$u5b$T$u5d$$GT$22split_at_mut_unchecked8comptime17h5ed4f7f1b529e416E
libclamav.so.11:_ZN4core5slice5ascii30_$LT$impl$u20$$u5b$u8$u5d$$GT$10trim_ascii17hf8951262ad59949bE
libclamav.so.11:_ZN4core5slice5ascii30_$LT$impl$u20$$u5b$u8$u5d$$GT$12escape_ascii17h273e2d43d28531f7E
libclamav.so.11:_ZN4core5slice5ascii30_$LT$impl$u20$$u5b$u8$u5d$$GT$14trim_ascii_end17h7f7b6d563eccb5d8E
libclamav.so.11:_ZN4core5slice5ascii30_$LT$impl$u20$$u5b$u8$u5d$$GT$16trim_ascii_start17h1a9c34d9baab55b3E
libclamav.so.11:_ZN4core5slice5index10into_range17hf58ecf9b174f6af4E
libclamav.so.11:_ZN4core5slice5index16into_slice_range17h70da8dc68fd917e3E
libclamav.so.11:_ZN4core5slice5index20into_range_unchecked17h644ff6c1767815afE
libclamav.so.11:_ZN4core5slice5index22slice_index_order_fail17h5feace2d99abb190E
libclamav.so.11:_ZN4core5slice5index24slice_end_index_len_fail17h01a65e88cdd541b3E
libclamav.so.11:_ZN4core5slice5index26slice_start_index_len_fail17h3af9cc3b205f177aE
libclamav.so.11:_ZN4core5slice5index29slice_end_index_overflow_fail17h44730fee837e5074E
libclamav.so.11:_ZN4core5slice5index31slice_start_index_overflow_fail17hfe2e4fbab16ed261E
libclamav.so.11:_ZN4core5slice6memchr14memchr_aligned17h40a80eb71c0deeb1E
libclamav.so.11:_ZN4core5slice6memchr7memrchr17h5a94facca4e61cb3E
libclamav.so.11:_ZN4core6option13expect_failed17h17da123054413adaE
libclamav.so.11:_ZN4core6result13unwrap_failed17h1b3823a9293ee8daE
libclamav.so.11:_ZN4core7unicode12unicode_data10alphabetic6lookup17h351b9ecd3654cb39E
libclamav.so.11:_ZN4core7unicode12unicode_data11conversions8to_lower17h0ed35322e6346e97E
libclamav.so.11:_ZN4core7unicode12unicode_data11conversions8to_upper17h234ee5ef3528d7dcE
libclamav.so.11:_ZN4core7unicode12unicode_data14case_ignorable6lookup17h7bb8b7cb2ebeeff7E
libclamav.so.11:_ZN4core7unicode12unicode_data15grapheme_extend6lookup17ha693b8731512947aE
libclamav.so.11:_ZN4core7unicode12unicode_data1n6lookup17h97d92008622db85aE
libclamav.so.11:_ZN4core7unicode12unicode_data2cc6lookup17hd39882e078d888daE
libclamav.so.11:_ZN4core7unicode12unicode_data5cased6lookup17he8a4cbed618e8835E
libclamav.so.11:_ZN4core7unicode12unicode_data9lowercase6lookup17hc9a1f7e9a0d240fdE
libclamav.so.11:_ZN4core7unicode12unicode_data9uppercase6lookup17h1baf3a03e02f8e98E
libclamav.so.11:_ZN4core7unicode9printable12is_printable17h3b00dfeaa1d9d3e6E
libclamav.so.11:_ZN4core9core_arch3x864avx219_mm256_bslli_epi1284mask17h6abf84c83888797cE
libclamav.so.11:_ZN4core9core_arch3x864sse219_mm_slli_si128_impl4mask17h04a69fd777e957b6E
libclamav.so.11:_ZN4core9core_arch3x864sse219_mm_srli_si128_impl4mask17h1d472753c5fc3250E
libclamav.so.11:_ZN4core9core_arch3x865ssse315_mm_alignr_epi84mask17h9367634d7601326fE
libclamav.so.11:_ZN4core9core_arch3x868avx512bw19_mm512_bslli_epi1284mask17h227a0af265857ea2E
libclamav.so.11:_ZN4core9core_simd5masks71_$LT$impl$u20$core..core_simd..masks..sealed..Sealed$u20$for$u20$i8$GT$2eq17h8011de905b4cf7e5E
libclamav.so.11:_ZN4core9core_simd5masks72_$LT$impl$u20$core..core_simd..masks..sealed..Sealed$u20$for$u20$i16$GT$2eq17h1bd36fd2081ae0f4E
libclamav.so.11:_ZN4core9core_simd5masks72_$LT$impl$u20$core..core_simd..masks..sealed..Sealed$u20$for$u20$i32$GT$2eq17h9780871a3777f1eaE
libclamav.so.11:_ZN4core9core_simd5masks72_$LT$impl$u20$core..core_simd..masks..sealed..Sealed$u20$for$u20$i64$GT$2eq17he70eabc7cc1f8eccE
libclamav.so.11:_ZN4core9core_simd5masks74_$LT$impl$u20$core..core_simd..masks..sealed..Sealed$u20$for$u20$isize$GT$2eq17h4107278c703d654fE
libclamav.so.11:_ZN4core9panicking15const_panic_fmt17h1a2a1fce7b1ba5e8E
libclamav.so.11:_ZN4core9panicking15panic_no_unwind17hf6c8b74c5ba9d748E
libclamav.so.11:_ZN4core9panicking18panic_bounds_check17h6eb809c41a6dab41E
libclamav.so.11:_ZN4core9panicking18panic_str_nounwind17h78c78fbebe1445e4E
libclamav.so.11:_ZN4core9panicking19assert_failed_inner17h40b5af706901f262E
libclamav.so.11:_ZN4core9panicking5panic17ha4fa55ea0ad61c73E
libclamav.so.11:_ZN4core9panicking9panic_fmt17h7f3e8ce3ffab9b24E
libclamav.so.11:_ZN4half13leading_zeros17leading_zeros_u1617h7bb4e2e692c290fdE
libclamav.so.11:_ZN4half8binary163f166signum17h67582c363683c379E
libclamav.so.11:_ZN4half8binary163f168classify17h11abb86888578f88E
libclamav.so.11:_ZN4libc4unix10linux_like5linux3gnu76_$LT$impl$u20$libc..unix..linux_like..linux..gnu..b64..x86_64..siginfo_t$GT$6si_pid17h23c331b029b34a83E
libclamav.so.11:_ZN4libc4unix10linux_like5linux3gnu76_$LT$impl$u20$libc..unix..linux_like..linux..gnu..b64..x86_64..siginfo_t$GT$6si_uid17h0cc8b3f32c2d3447E
libclamav.so.11:_ZN4libc4unix10linux_like5linux3gnu76_$LT$impl$u20$libc..unix..linux_like..linux..gnu..b64..x86_64..siginfo_t$GT$7si_addr17h6aaf2375e4851f0fE
libclamav.so.11:_ZN4libc4unix10linux_like5linux3gnu76_$LT$impl$u20$libc..unix..linux_like..linux..gnu..b64..x86_64..siginfo_t$GT$8si_stime17h2ff2ee19ca351477E
libclamav.so.11:_ZN4libc4unix10linux_like5linux3gnu76_$LT$impl$u20$libc..unix..linux_like..linux..gnu..b64..x86_64..siginfo_t$GT$8si_utime17h67b422442dcb1228E
libclamav.so.11:_ZN4libc4unix10linux_like5linux3gnu76_$LT$impl$u20$libc..unix..linux_like..linux..gnu..b64..x86_64..siginfo_t$GT$8si_value17h2b14ec99bca67402E
libclamav.so.11:_ZN4libc4unix10linux_like5linux3gnu76_$LT$impl$u20$libc..unix..linux_like..linux..gnu..b64..x86_64..siginfo_t$GT$9si_status17h91b283cca85e9e6fE
libclamav.so.11:_ZN4tiff7decoder13invert_colors17h475ddd2c7ce60e28E
libclamav.so.11:_ZN4tiff7decoder14DecodingBuffer12as_bytes_mut17h34449e801331dec9E
libclamav.so.11:_ZN4tiff7decoder14DecodingBuffer4copy17hba7d195beb8b8e48E
libclamav.so.11:_ZN4tiff7decoder14DecodingBuffer8byte_len17h738acb545f184a6fE
libclamav.so.11:_ZN4tiff7decoder14DecodingBuffer8subrange17h19034676d174931bE
libclamav.so.11:_ZN4tiff7decoder14DecodingResult6new_i817h04538ebf20ea662dE
libclamav.so.11:_ZN4tiff7decoder14DecodingResult6new_u817h44f4be894359df21E
libclamav.so.11:_ZN4tiff7decoder14DecodingResult7new_f3217hf8497e523f46f129E
libclamav.so.11:_ZN4tiff7decoder14DecodingResult7new_f6417h38594e404641446eE
libclamav.so.11:_ZN4tiff7decoder14DecodingResult7new_i1617he071affd0b96f81fE
libclamav.so.11:_ZN4tiff7decoder14DecodingResult7new_i3217h6355dc4c7301fd9dE
libclamav.so.11:_ZN4tiff7decoder14DecodingResult7new_i6417hac4c8c0d2364b80fE
libclamav.so.11:_ZN4tiff7decoder14DecodingResult7new_u1617h0f3bae75412ee73fE
libclamav.so.11:_ZN4tiff7decoder14DecodingResult7new_u3217hb2d2cc87a85aa98cE
libclamav.so.11:_ZN4tiff7decoder14DecodingResult7new_u6417h5ae861ee4c3c8fceE
libclamav.so.11:_ZN4tiff7decoder14DecodingResult9as_buffer17ha96b9ce87e477438E
libclamav.so.11:_ZN4tiff7decoder14fp_predict_f3217h50fc7b92bed9c05dE
libclamav.so.11:_ZN4tiff7decoder14fp_predict_f6417h7f60e72bd0d99ecbE
libclamav.so.11:_ZN4tiff7decoder26fix_endianness_and_predict17h42d47fa2e5fbdb87E
libclamav.so.11:_ZN4tiff7decoder3ifd5Entry1r17hd0a522aca65b66e3E
libclamav.so.11:_ZN4tiff7decoder3ifd5Entry3new17h2c1211bc955df5c9E
libclamav.so.11:_ZN4tiff7decoder3ifd5Entry7new_u6417h58013e34f2bcccd0E
libclamav.so.11:_ZN4tiff7decoder3ifd5Value11into_string17h19d9ef5ed9e5918eE
libclamav.so.11:_ZN4tiff7decoder3ifd5Value11into_u8_vec17h459dead8c6fdd84fE
libclamav.so.11:_ZN4tiff7decoder3ifd5Value12into_f32_vec17hcdd323ed6d63d3d8E
libclamav.so.11:_ZN4tiff7decoder3ifd5Value12into_f64_vec17h7182d25e0f1c18a0E
libclamav.so.11:_ZN4tiff7decoder3ifd5Value12into_i32_vec17h1bf7245a67288e6dE
libclamav.so.11:_ZN4tiff7decoder3ifd5Value12into_i64_vec17h4839fbcd522e44f6E
libclamav.so.11:_ZN4tiff7decoder3ifd5Value12into_u16_vec17h439dc17ae874051bE
libclamav.so.11:_ZN4tiff7decoder3ifd5Value12into_u32_vec17hdc072d75fab92c15E
libclamav.so.11:_ZN4tiff7decoder3ifd5Value12into_u64_vec17hb84bdbb374858282E
libclamav.so.11:_ZN4tiff7decoder3ifd5Value7into_u817h45884346b9b924d5E
libclamav.so.11:_ZN4tiff7decoder3ifd5Value8into_f3217h216f231dbf8a18e5E
libclamav.so.11:_ZN4tiff7decoder3ifd5Value8into_f6417h8300fb212a757a9eE
libclamav.so.11:_ZN4tiff7decoder3ifd5Value8into_i3217hb02a0a488bcc2d92E
libclamav.so.11:_ZN4tiff7decoder3ifd5Value8into_i6417h280aabc14cf2659cE
libclamav.so.11:_ZN4tiff7decoder3ifd5Value8into_u1617h3010c8cfdd34011aE
libclamav.so.11:_ZN4tiff7decoder3ifd5Value8into_u3217hfc664d848e8c91c4E
libclamav.so.11:_ZN4tiff7decoder3ifd5Value8into_u6417h6c43da038682484dE
libclamav.so.11:_ZN4tiff7decoder5image14TileAttributes10tiles_down17h8d213ec4019f8ba8E
libclamav.so.11:_ZN4tiff7decoder5image14TileAttributes12tiles_across17ha821deb77323f5ebE
libclamav.so.11:_ZN4tiff7decoder5image5Image16chunk_dimensions17h7f27021930f6ba55E
libclamav.so.11:_ZN4tiff7decoder5image5Image16chunk_file_range17he51aa191c740e7a3E
libclamav.so.11:_ZN4tiff7decoder5image5Image21chunk_data_dimensions17h029ff152876b34e0E
libclamav.so.11:_ZN4tiff7decoder5image5Image9colortype17h99ca75c27bcfb176E
libclamav.so.11:_ZN4tiff7decoder6Limits9unlimited17h49c6f6b40d1702e5E
libclamav.so.11:_ZN4tiff7encoder11compression7deflate7Deflate10with_level17h84142ed8f424bad6E
libclamav.so.11:_ZN50_$LT$fastrand..Rng$u20$as$u20$core..fmt..Debug$GT$3fmt17h47ca8cad26e5e599E
libclamav.so.11:_ZN50_$LT$i16$u20$as$u20$core..fmt..num..DisplayInt$GT$4zero17h2ab030340a1e38bbE
libclamav.so.11:_ZN50_$LT$i16$u20$as$u20$core..fmt..num..DisplayInt$GT$5to_u817h7dbea053f792a8beE
libclamav.so.11:_ZN50_$LT$i16$u20$as$u20$core..fmt..num..DisplayInt$GT$6to_u1617h1e2af4c7e23dea42E
libclamav.so.11:_ZN50_$LT$i16$u20$as$u20$core..fmt..num..DisplayInt$GT$6to_u3217h8398da1fc61419edE
libclamav.so.11:_ZN50_$LT$i16$u20$as$u20$core..fmt..num..DisplayInt$GT$6to_u6417he83d1783b79d5c21E
libclamav.so.11:_ZN50_$LT$i16$u20$as$u20$core..fmt..num..DisplayInt$GT$7from_u817h71980bcef81acd67E
libclamav.so.11:_ZN50_$LT$i16$u20$as$u20$core..fmt..num..DisplayInt$GT$7to_u12817h09baae2845c9c4a1E
libclamav.so.11:_ZN50_$LT$i16$u20$as$u20$std..sys..unix..IsMinusOne$GT$12is_minus_one17h8a39abb54000c762E
libclamav.so.11:_ZN50_$LT$i32$u20$as$u20$core..fmt..num..DisplayInt$GT$4zero17hfba8e61ff953427fE
libclamav.so.11:_ZN50_$LT$i32$u20$as$u20$core..fmt..num..DisplayInt$GT$5to_u817h4ad04331d32ae29bE
libclamav.so.11:_ZN50_$LT$i32$u20$as$u20$core..fmt..num..DisplayInt$GT$6to_u1617h640648f1d1ea19f1E
libclamav.so.11:_ZN50_$LT$i32$u20$as$u20$core..fmt..num..DisplayInt$GT$6to_u3217hc93ea7082c72008eE
libclamav.so.11:_ZN50_$LT$i32$u20$as$u20$core..fmt..num..DisplayInt$GT$6to_u6417h4a29b87ecf1ec7fcE
libclamav.so.11:_ZN50_$LT$i32$u20$as$u20$core..fmt..num..DisplayInt$GT$7from_u817h3e1665026f80d9f4E
libclamav.so.11:_ZN50_$LT$i32$u20$as$u20$core..fmt..num..DisplayInt$GT$7to_u12817h99286263f134c2e1E
libclamav.so.11:_ZN50_$LT$i32$u20$as$u20$std..sys..unix..IsMinusOne$GT$12is_minus_one17h078b654ea396d916E
libclamav.so.11:_ZN50_$LT$i64$u20$as$u20$core..fmt..num..DisplayInt$GT$4zero17h5e1e1c6c80d16b41E
libclamav.so.11:_ZN50_$LT$i64$u20$as$u20$core..fmt..num..DisplayInt$GT$5to_u817h69dfa49da52f0029E
libclamav.so.11:_ZN50_$LT$i64$u20$as$u20$core..fmt..num..DisplayInt$GT$6to_u1617h29757d3871774ac3E
libclamav.so.11:_ZN50_$LT$i64$u20$as$u20$core..fmt..num..DisplayInt$GT$6to_u3217h85efa9649faf1156E
libclamav.so.11:_ZN50_$LT$i64$u20$as$u20$core..fmt..num..DisplayInt$GT$6to_u6417hdb7b9e81ef21ae7bE
libclamav.so.11:_ZN50_$LT$i64$u20$as$u20$core..fmt..num..DisplayInt$GT$7from_u817hcae42fe4663716d9E
libclamav.so.11:_ZN50_$LT$i64$u20$as$u20$core..fmt..num..DisplayInt$GT$7to_u12817he6e5095f47a1c316E
libclamav.so.11:_ZN50_$LT$i64$u20$as$u20$std..sys..unix..IsMinusOne$GT$12is_minus_one17heb63c9f159096f3cE
libclamav.so.11:_ZN50_$LT$log..Metadata$u20$as$u20$core..fmt..Debug$GT$3fmt17h9d2dcd4e3d091c80E
libclamav.so.11:_ZN50_$LT$std..fs..File$u20$as$u20$core..fmt..Debug$GT$3fmt17he7b7e0cc38362aefE
libclamav.so.11:_ZN50_$LT$u16$u20$as$u20$core..fmt..num..DisplayInt$GT$4zero17h8b8211c40a692c02E
libclamav.so.11:_ZN50_$LT$u16$u20$as$u20$core..fmt..num..DisplayInt$GT$5to_u817h0a2824e013469891E
libclamav.so.11:_ZN50_$LT$u16$u20$as$u20$core..fmt..num..DisplayInt$GT$6to_u1617hea51b6344dccd2a7E
libclamav.so.11:_ZN50_$LT$u16$u20$as$u20$core..fmt..num..DisplayInt$GT$6to_u3217h15cd5dbe60a40cc7E
libclamav.so.11:_ZN50_$LT$u16$u20$as$u20$core..fmt..num..DisplayInt$GT$6to_u6417hf1e391a7654aa006E
libclamav.so.11:_ZN50_$LT$u16$u20$as$u20$core..fmt..num..DisplayInt$GT$7from_u817h11f32445b352cb90E
libclamav.so.11:_ZN50_$LT$u16$u20$as$u20$core..fmt..num..DisplayInt$GT$7to_u12817h8a89c383b551ee4bE
libclamav.so.11:_ZN50_$LT$u16$u20$as$u20$core..num..bignum..FullOps$GT$12full_div_rem17hb6c8d072f14404c2E
libclamav.so.11:_ZN50_$LT$u16$u20$as$u20$core..num..bignum..FullOps$GT$12full_mul_add17h26211d6f1838ef2fE
libclamav.so.11:_ZN50_$LT$u32$u20$as$u20$core..fmt..num..DisplayInt$GT$4zero17h237ca8889ee89834E
libclamav.so.11:_ZN50_$LT$u32$u20$as$u20$core..fmt..num..DisplayInt$GT$5to_u817h0aa5c6b17edda0baE
libclamav.so.11:_ZN50_$LT$u32$u20$as$u20$core..fmt..num..DisplayInt$GT$6to_u1617hcb716d6507c9340aE
libclamav.so.11:_ZN50_$LT$u32$u20$as$u20$core..fmt..num..DisplayInt$GT$6to_u3217hd624ecfe82482064E
libclamav.so.11:_ZN50_$LT$u32$u20$as$u20$core..fmt..num..DisplayInt$GT$6to_u6417hbfffc4f4cb821de6E
libclamav.so.11:_ZN50_$LT$u32$u20$as$u20$core..fmt..num..DisplayInt$GT$7from_u817h22c90d3c7f41b1beE
libclamav.so.11:_ZN50_$LT$u32$u20$as$u20$core..fmt..num..DisplayInt$GT$7to_u12817h9d9de1599267b72aE
libclamav.so.11:_ZN50_$LT$u32$u20$as$u20$core..num..bignum..FullOps$GT$12full_div_rem17h12423d3dc36a2a45E
libclamav.so.11:_ZN50_$LT$u32$u20$as$u20$core..num..bignum..FullOps$GT$12full_mul_add17h83c1825d8ca12c5bE
libclamav.so.11:_ZN50_$LT$u64$u20$as$u20$core..fmt..num..DisplayInt$GT$4zero17h45e1e5573e216e50E
libclamav.so.11:_ZN50_$LT$u64$u20$as$u20$core..fmt..num..DisplayInt$GT$5to_u817h09acb4552c9d83e1E
libclamav.so.11:_ZN50_$LT$u64$u20$as$u20$core..fmt..num..DisplayInt$GT$6to_u1617hbddc92734f08e152E
libclamav.so.11:_ZN50_$LT$u64$u20$as$u20$core..fmt..num..DisplayInt$GT$6to_u3217h4350662139e49f3fE
libclamav.so.11:_ZN50_$LT$u64$u20$as$u20$core..fmt..num..DisplayInt$GT$6to_u6417h08fdddb18170e623E
libclamav.so.11:_ZN50_$LT$u64$u20$as$u20$core..fmt..num..DisplayInt$GT$7from_u817hb3ea8dc79b7ea17eE
libclamav.so.11:_ZN50_$LT$u64$u20$as$u20$core..fmt..num..DisplayInt$GT$7to_u12817h72ac41dea3f519b2E
libclamav.so.11:_ZN51_$LT$$RF$std..fs..File$u20$as$u20$std..io..Read$GT$11read_to_end17h6295ae0b27413d15E
libclamav.so.11:_ZN51_$LT$$RF$std..fs..File$u20$as$u20$std..io..Read$GT$13read_vectored17h38ca5351f8eb2f82E
libclamav.so.11:_ZN51_$LT$$RF$std..fs..File$u20$as$u20$std..io..Read$GT$14read_to_string17h9d1d276e1b0518c0E
libclamav.so.11:_ZN51_$LT$$RF$std..fs..File$u20$as$u20$std..io..Read$GT$4read17h92015ed6bea7f1b7E
libclamav.so.11:_ZN51_$LT$$RF$std..fs..File$u20$as$u20$std..io..Read$GT$8read_buf17h2e8be2584555738eE
libclamav.so.11:_ZN51_$LT$$RF$std..fs..File$u20$as$u20$std..io..Seek$GT$4seek17he619daf66af22217E
libclamav.so.11:_ZN51_$LT$$u21$$u20$as$u20$std..process..Termination$GT$6report17ha36a867ed136a426E
libclamav.so.11:_ZN51_$LT$adler..Adler32$u20$as$u20$core..fmt..Debug$GT$3fmt17h212843a5587a5116E
libclamav.so.11:_ZN51_$LT$adler..Adler32$u20$as$u20$core..fmt..Debug$GT$3fmt17hbc7ff7339839fe5eE
libclamav.so.11:_ZN51_$LT$exr..io..LateFile$u20$as$u20$std..io..Seek$GT$4seek17haa3ac93b71a90ac8E
libclamav.so.11:_ZN51_$LT$i128$u20$as$u20$core..fmt..num..DisplayInt$GT$4zero17h326940652b770cc7E
libclamav.so.11:_ZN51_$LT$i128$u20$as$u20$core..fmt..num..DisplayInt$GT$5to_u817h1d1487a2aa9e5beeE
libclamav.so.11:_ZN51_$LT$i128$u20$as$u20$core..fmt..num..DisplayInt$GT$6to_u1617h3c77e2b4f04499f0E
libclamav.so.11:_ZN51_$LT$i128$u20$as$u20$core..fmt..num..DisplayInt$GT$6to_u3217h90fddc1c7f82da80E
libclamav.so.11:_ZN51_$LT$i128$u20$as$u20$core..fmt..num..DisplayInt$GT$6to_u6417h3533119a8c6d95fbE
libclamav.so.11:_ZN51_$LT$i128$u20$as$u20$core..fmt..num..DisplayInt$GT$7from_u817h2c4cff7ccf4a9818E
libclamav.so.11:_ZN51_$LT$i128$u20$as$u20$core..fmt..num..DisplayInt$GT$7to_u12817h02af67197a6150d6E
libclamav.so.11:_ZN51_$LT$std..env..Args$u20$as$u20$core..fmt..Debug$GT$3fmt17h835c25fc3e513821E
libclamav.so.11:_ZN51_$LT$std..env..Vars$u20$as$u20$core..fmt..Debug$GT$3fmt17h1f5aeedf262a8547E
libclamav.so.11:_ZN51_$LT$u128$u20$as$u20$core..fmt..num..DisplayInt$GT$4zero17h34cb3d201da967bfE
libclamav.so.11:_ZN51_$LT$u128$u20$as$u20$core..fmt..num..DisplayInt$GT$5to_u817hc12efc98d8b38fd1E
libclamav.so.11:_ZN51_$LT$u128$u20$as$u20$core..fmt..num..DisplayInt$GT$6to_u1617h82787e21c26b5240E
libclamav.so.11:_ZN51_$LT$u128$u20$as$u20$core..fmt..num..DisplayInt$GT$6to_u3217ha40fba395b765135E
libclamav.so.11:_ZN51_$LT$u128$u20$as$u20$core..fmt..num..DisplayInt$GT$6to_u6417hdbfbbe91a8f7d4eeE
libclamav.so.11:_ZN51_$LT$u128$u20$as$u20$core..fmt..num..DisplayInt$GT$7from_u817h1e0924276fc8b307E
libclamav.so.11:_ZN51_$LT$u128$u20$as$u20$core..fmt..num..DisplayInt$GT$7to_u12817hc650ad2e855dab3cE
libclamav.so.11:_ZN52_$LT$$RF$std..fs..File$u20$as$u20$std..io..Write$GT$14write_vectored17h0d53672d95a752f9E
libclamav.so.11:_ZN52_$LT$$RF$std..fs..File$u20$as$u20$std..io..Write$GT$5flush17h4b7abe3392cd0149E
libclamav.so.11:_ZN52_$LT$$RF$std..fs..File$u20$as$u20$std..io..Write$GT$5write17h0f8543e8d82b0dbfE
libclamav.so.11:_ZN52_$LT$exr..io..LateFile$u20$as$u20$std..io..Write$GT$5flush17hd29cb1c8a2ad74f7E
libclamav.so.11:_ZN52_$LT$exr..io..LateFile$u20$as$u20$std..io..Write$GT$5write17h67deee12b1ef3f41E
libclamav.so.11:_ZN52_$LT$fastrand..Rng$u20$as$u20$core..clone..Clone$GT$5clone17ha2e371c6ccb84742E
libclamav.so.11:_ZN52_$LT$isize$u20$as$u20$core..fmt..num..DisplayInt$GT$4zero17hc63ce9a1e1c2052bE
libclamav.so.11:_ZN52_$LT$isize$u20$as$u20$core..fmt..num..DisplayInt$GT$5to_u817hc322aa52fafc4a6fE
libclamav.so.11:_ZN52_$LT$isize$u20$as$u20$core..fmt..num..DisplayInt$GT$6to_u1617hb89671fd89735ac1E
libclamav.so.11:_ZN52_$LT$isize$u20$as$u20$core..fmt..num..DisplayInt$GT$6to_u3217hdabf4f9df6e5be93E
libclamav.so.11:_ZN52_$LT$isize$u20$as$u20$core..fmt..num..DisplayInt$GT$6to_u6417h87e0b6387e8bfc71E
libclamav.so.11:_ZN52_$LT$isize$u20$as$u20$core..fmt..num..DisplayInt$GT$7from_u817ha5dc841513176b9eE
libclamav.so.11:_ZN52_$LT$isize$u20$as$u20$core..fmt..num..DisplayInt$GT$7to_u12817h34850d36229c7895E
libclamav.so.11:_ZN52_$LT$isize$u20$as$u20$std..sys..unix..IsMinusOne$GT$12is_minus_one17h86fc995f3e92a136E
libclamav.so.11:_ZN52_$LT$std..path..Iter$u20$as$u20$core..fmt..Debug$GT$3fmt17he5c98b8139d87bc9E
libclamav.so.11:_ZN52_$LT$std..path..Path$u20$as$u20$core..fmt..Debug$GT$3fmt17h7342a801bd1cc8d4E
libclamav.so.11:_ZN52_$LT$tiff..ColorType$u20$as$u20$core..fmt..Debug$GT$3fmt17h48f1abea854a9e90E
libclamav.so.11:_ZN52_$LT$tiff..tags..Tag$u20$as$u20$core..fmt..Debug$GT$3fmt17hf9859d7a030777c3E
libclamav.so.11:_ZN52_$LT$usize$u20$as$u20$core..fmt..num..DisplayInt$GT$4zero17h0639b655e99b3cb9E
libclamav.so.11:_ZN52_$LT$usize$u20$as$u20$core..fmt..num..DisplayInt$GT$5to_u817h4e5ff8485514c4beE
libclamav.so.11:_ZN52_$LT$usize$u20$as$u20$core..fmt..num..DisplayInt$GT$6to_u1617h91c9ffcdfffcb130E
libclamav.so.11:_ZN52_$LT$usize$u20$as$u20$core..fmt..num..DisplayInt$GT$6to_u3217hf9577f246aacda0dE
libclamav.so.11:_ZN52_$LT$usize$u20$as$u20$core..fmt..num..DisplayInt$GT$6to_u6417hf2e4e8703ad9b9feE
libclamav.so.11:_ZN52_$LT$usize$u20$as$u20$core..fmt..num..DisplayInt$GT$7from_u817h57cf44fcdbb61f8dE
libclamav.so.11:_ZN52_$LT$usize$u20$as$u20$core..fmt..num..DisplayInt$GT$7to_u12817he4284a5db556d995E
libclamav.so.11:_ZN52_$LT$weezl..BitOrder$u20$as$u20$core..fmt..Debug$GT$3fmt17h8e76c2e389b3deaaE
libclamav.so.11:_ZN53_$LT$adler..Adler32$u20$as$u20$core..hash..Hasher$GT$5write17h2ebde6f5c21a6f9eE
libclamav.so.11:_ZN53_$LT$adler..Adler32$u20$as$u20$core..hash..Hasher$GT$5write17hfaa5152302f4cd9bE
libclamav.so.11:_ZN53_$LT$core..fmt..Error$u20$as$u20$core..fmt..Debug$GT$3fmt17h88d7a53ad150cdd8E
libclamav.so.11:_ZN53_$LT$flate2..crc..Crc$u20$as$u20$core..fmt..Debug$GT$3fmt17h0d6cb93af4a47df0E
libclamav.so.11:_ZN53_$LT$flume..RecvError$u20$as$u20$core..fmt..Debug$GT$3fmt17hed5bba146ac7bfa9E
libclamav.so.11:_ZN53_$LT$gimli..arch..Arm$u20$as$u20$core..fmt..Debug$GT$3fmt17h22c5208ba1a18bbeE
libclamav.so.11:_ZN53_$LT$gimli..arch..X86$u20$as$u20$core..fmt..Debug$GT$3fmt17h691d0f614dd54ec6E
libclamav.so.11:_ZN53_$LT$image..flat..Dim$u20$as$u20$core..fmt..Debug$GT$3fmt17hd3ce39aa2a89bcabE
libclamav.so.11:_ZN53_$LT$log..LevelFilter$u20$as$u20$core..fmt..Debug$GT$3fmt17h2a84e0b120cd2bfeE
libclamav.so.11:_ZN53_$LT$memchr..cow..Imp$u20$as$u20$core..fmt..Debug$GT$3fmt17h9b1e85f7db398428E
libclamav.so.11:_ZN53_$LT$object..pe..Guid$u20$as$u20$core..fmt..Debug$GT$3fmt17h5ce0dc286b7e9c4aE
libclamav.so.11:_ZN53_$LT$std..env..ArgsOs$u20$as$u20$core..fmt..Debug$GT$3fmt17he32609b4a17eecf0E
libclamav.so.11:_ZN53_$LT$std..env..VarsOs$u20$as$u20$core..fmt..Debug$GT$3fmt17h2d6a23f1825c7044E
libclamav.so.11:_ZN53_$LT$std..fs..ReadDir$u20$as$u20$core..fmt..Debug$GT$3fmt17h2a3bad4c503b6ebfE
libclamav.so.11:_ZN53_$LT$std..io..IoSlice$u20$as$u20$core..fmt..Debug$GT$3fmt17hec4b5801c247f26dE
libclamav.so.11:_ZN53_$LT$std..path..State$u20$as$u20$core..fmt..Debug$GT$3fmt17h5d9ae253f8daaa87E
libclamav.so.11:_ZN53_$LT$tiff..tags..Type$u20$as$u20$core..fmt..Debug$GT$3fmt17h3f5a3060d04ba999E
libclamav.so.11:_ZN54_$LT$core..any..Demand$u20$as$u20$core..fmt..Debug$GT$3fmt17h2f393b7c3fbeb07aE
libclamav.so.11:_ZN54_$LT$core..any..TypeId$u20$as$u20$core..fmt..Debug$GT$3fmt17h76950ec28f604905E
libclamav.so.11:_ZN54_$LT$core..ffi..VaList$u20$as$u20$core..fmt..Debug$GT$3fmt17h1f912e5ce8839f40E
libclamav.so.11:_ZN54_$LT$core..ffi..c_void$u20$as$u20$core..fmt..Debug$GT$3fmt17h463879d318ca4e4fE
libclamav.so.11:_ZN54_$LT$crc32fast..Hasher$u20$as$u20$core..fmt..Debug$GT$3fmt17h304fa39c22615696E
libclamav.so.11:_ZN54_$LT$exr..error..Error$u20$as$u20$core..fmt..Debug$GT$3fmt17h0899a56ec6b890a5E
libclamav.so.11:_ZN54_$LT$exr..io..LateFile$u20$as$u20$core..fmt..Debug$GT$3fmt17h66d6f24a481dc020E
libclamav.so.11:_ZN54_$LT$image..io..Limits$u20$as$u20$core..fmt..Debug$GT$3fmt17h46d1cbd078305437E
libclamav.so.11:_ZN54_$LT$libc..unix..DIR$u20$as$u20$core..clone..Clone$GT$5clone17h806c0ddb0fbb6d3fE
libclamav.so.11:_ZN54_$LT$libc..unix..tms$u20$as$u20$core..clone..Clone$GT$5clone17h8bd369d353ed6139E
libclamav.so.11:_ZN54_$LT$png..common..Info$u20$as$u20$core..fmt..Debug$GT$3fmt17h097657a09b163a19E
libclamav.so.11:_ZN54_$LT$png..common..Unit$u20$as$u20$core..fmt..Debug$GT$3fmt17hadb0a64e316be8fcE
libclamav.so.11:_ZN54_$LT$png..decoder..Row$u20$as$u20$core..fmt..Debug$GT$3fmt17hee180fba85497f1aE
libclamav.so.11:_ZN54_$LT$std..fs..DirEntry$u20$as$u20$core..fmt..Debug$GT$3fmt17hd7df5c8109724036E
libclamav.so.11:_ZN54_$LT$std..fs..FileType$u20$as$u20$core..fmt..Debug$GT$3fmt17h631e6337d51047a6E
libclamav.so.11:_ZN54_$LT$std..fs..Metadata$u20$as$u20$core..fmt..Debug$GT$3fmt17hca55f5f22716cad4E
libclamav.so.11:_ZN54_$LT$std..io..SeekFrom$u20$as$u20$core..fmt..Debug$GT$3fmt17h457e4fd9cd8ddff6E
libclamav.so.11:_ZN54_$LT$std..io..util..Empty$u20$as$u20$std..io..Seek$GT$10stream_len17h99fa2143ea148142E
libclamav.so.11:_ZN54_$LT$std..io..util..Empty$u20$as$u20$std..io..Seek$GT$15stream_position17h9fddf60f3293963aE
libclamav.so.11:_ZN54_$LT$std..io..util..Empty$u20$as$u20$std..io..Seek$GT$4seek17h5094679e3c90a433E
libclamav.so.11:_ZN54_$LT$std..path..Prefix$u20$as$u20$core..fmt..Debug$GT$3fmt17hb2d8e067080f763dE
libclamav.so.11:_ZN54_$LT$tempfile..Builder$u20$as$u20$core..fmt..Debug$GT$3fmt17h530d0185515a8f61E
libclamav.so.11:_ZN55_$LT$core..fmt..Error$u20$as$u20$core..error..Error$GT$11description17h79ef5378e854e682E
libclamav.so.11:_ZN55_$LT$core..fmt..Error$u20$as$u20$core..fmt..Display$GT$3fmt17h59181f198d9ada61E
libclamav.so.11:_ZN55_$LT$exr..image..Blocks$u20$as$u20$core..fmt..Debug$GT$3fmt17h66982707d8c3b848E
libclamav.so.11:_ZN55_$LT$f32$u20$as$u20$core..fmt..float..GeneralFormat$GT$44already_rounded_value_should_use_exponential17hec16d21602c910a8E
libclamav.so.11:_ZN55_$LT$f64$u20$as$u20$core..fmt..float..GeneralFormat$GT$44already_rounded_value_should_use_exponential17h749efdddf1ef4aa4E
libclamav.so.11:_ZN55_$LT$flume..RecvError$u20$as$u20$core..fmt..Display$GT$3fmt17he943f8687d66a1b3E
libclamav.so.11:_ZN55_$LT$gif..common..Block$u20$as$u20$core..fmt..Debug$GT$3fmt17h0cfb3c306f23def4E
libclamav.so.11:_ZN55_$LT$gif..common..Frame$u20$as$u20$core..fmt..Debug$GT$3fmt17h81923d7fe80a26b7E
libclamav.so.11:_ZN55_$LT$gimli..arch..RiscV$u20$as$u20$core..fmt..Debug$GT$3fmt17h13c21ea7ea093bcaE
libclamav.so.11:_ZN55_$LT$gimli..read..Error$u20$as$u20$core..fmt..Debug$GT$3fmt17h31871fb7452cc3e5E
libclamav.so.11:_ZN55_$LT$image..flat..Error$u20$as$u20$core..fmt..Debug$GT$3fmt17h61ed980b3c13c0f0E
libclamav.so.11:_ZN55_$LT$libc..unix..FILE$u20$as$u20$core..clone..Clone$GT$5clone17h6cc79c55269c668eE
libclamav.so.11:_ZN55_$LT$log..LevelFilter$u20$as$u20$core..fmt..Display$GT$3fmt17hc889d34384f4da23E
libclamav.so.11:_ZN55_$LT$log..RecordBuilder$u20$as$u20$core..fmt..Debug$GT$3fmt17h0d4d47c28b8e009eE
libclamav.so.11:_ZN55_$LT$object..elf..Ident$u20$as$u20$core..fmt..Debug$GT$3fmt17h56fed037dcb30e02E
libclamav.so.11:_ZN55_$LT$std..alloc..System$u20$as$u20$core..fmt..Debug$GT$3fmt17h6f371d4808711456E
libclamav.so.11:_ZN55_$LT$std..env..VarError$u20$as$u20$core..fmt..Debug$GT$3fmt17h1d395df30c8567baE
libclamav.so.11:_ZN55_$LT$std..fs..FileTimes$u20$as$u20$core..fmt..Debug$GT$3fmt17h84057385c3ad5761E
libclamav.so.11:_ZN55_$LT$std..io..stdio..Stdin$u20$as$u20$std..io..Read$GT$10read_exact17h7cd21144fdfec976E
libclamav.so.11:_ZN55_$LT$std..io..stdio..Stdin$u20$as$u20$std..io..Read$GT$11read_to_end17hf6b65ce4738c0f79E
libclamav.so.11:_ZN55_$LT$std..io..stdio..Stdin$u20$as$u20$std..io..Read$GT$13read_vectored17h75f4be39542ee918E
libclamav.so.11:_ZN55_$LT$std..io..stdio..Stdin$u20$as$u20$std..io..Read$GT$14read_to_string17h6bc7f3e0adc7a8f0E
libclamav.so.11:_ZN55_$LT$std..io..stdio..Stdin$u20$as$u20$std..io..Read$GT$4read17hf38bf9c23d6a25e3E
libclamav.so.11:_ZN55_$LT$std..io..util..Repeat$u20$as$u20$std..io..Read$GT$8read_buf17h3e43c133d7be398cE
libclamav.so.11:_ZN55_$LT$std..net..Shutdown$u20$as$u20$core..fmt..Debug$GT$3fmt17h7fea626bcecef3bcE
libclamav.so.11:_ZN55_$LT$std..path..Display$u20$as$u20$core..fmt..Debug$GT$3fmt17h70e9439d33a07544E
libclamav.so.11:_ZN55_$LT$std..path..PathBuf$u20$as$u20$core..fmt..Debug$GT$3fmt17h06f5cbe19a9cf338E
libclamav.so.11:_ZN55_$LT$std..time..Instant$u20$as$u20$core..fmt..Debug$GT$3fmt17h90538ef8ee47f867E
libclamav.so.11:_ZN56_$LT$core..cmp..Ordering$u20$as$u20$core..fmt..Debug$GT$3fmt17hc94bf895e23878f3E
libclamav.so.11:_ZN56_$LT$core..error..Source$u20$as$u20$core..fmt..Debug$GT$3fmt17h6c915d6c710b01baE
libclamav.so.11:_ZN56_$LT$crc32fast..Hasher$u20$as$u20$core..hash..Hasher$GT$5write17h4eb13809b5d1cfeeE
libclamav.so.11:_ZN56_$LT$crc32fast..Hasher$u20$as$u20$core..hash..Hasher$GT$6finish17hf662a0c34786c1bdE
libclamav.so.11:_ZN56_$LT$exr..error..Error$u20$as$u20$core..error..Error$GT$6source17hbabc8f32cdcdb714E
libclamav.so.11:_ZN56_$LT$exr..error..Error$u20$as$u20$core..fmt..Display$GT$3fmt17h64d71601452fe429E
libclamav.so.11:_ZN56_$LT$exr..meta..MetaData$u20$as$u20$core..fmt..Debug$GT$3fmt17h8adbdc4c9fcb8b2cE
libclamav.so.11:_ZN56_$LT$flate2..Compression$u20$as$u20$core..fmt..Debug$GT$3fmt17h3fb8cd4da189e3f6E
libclamav.so.11:_ZN56_$LT$flate2..mem..Status$u20$as$u20$core..fmt..Debug$GT$3fmt17h5742c5568b71c2f7E
libclamav.so.11:_ZN56_$LT$flume..TryRecvError$u20$as$u20$core..fmt..Debug$GT$3fmt17hb0ad87af1e7b0adcE
libclamav.so.11:_ZN56_$LT$gimli..arch..X86_64$u20$as$u20$core..fmt..Debug$GT$3fmt17ha0585942ea4d27b2E
libclamav.so.11:_ZN56_$LT$half..binary16..f16$u20$as$u20$core..fmt..Debug$GT$3fmt17hc62d4ad22e2b3450E
libclamav.so.11:_ZN56_$LT$half..binary16..f16$u20$as$u20$core..fmt..Octal$GT$3fmt17h3bee4e26b9bbf5e2E
libclamav.so.11:_ZN56_$LT$libc..unix..group$u20$as$u20$core..clone..Clone$GT$5clone17h61af8fff9f78afc3E
libclamav.so.11:_ZN56_$LT$libc..unix..iovec$u20$as$u20$core..clone..Clone$GT$5clone17he28f243dcb8a4c6fE
libclamav.so.11:_ZN56_$LT$log..MaybeStaticStr$u20$as$u20$core..fmt..Debug$GT$3fmt17h6bbe4138655424efE
libclamav.so.11:_ZN56_$LT$log..SetLoggerError$u20$as$u20$core..fmt..Debug$GT$3fmt17h4fe6422e0a28866dE
libclamav.so.11:_ZN56_$LT$object..read..Error$u20$as$u20$core..fmt..Debug$GT$3fmt17h21262428bc8f0dbfE
libclamav.so.11:_ZN56_$LT$std..fs..DirBuilder$u20$as$u20$core..fmt..Debug$GT$3fmt17he064b1ff7a99c6c9E
libclamav.so.11:_ZN56_$LT$std..io..Guard$u20$as$u20$core..ops..drop..Drop$GT$4drop17hd23e8839964a4f18E
libclamav.so.11:_ZN56_$LT$std..io..IoSliceMut$u20$as$u20$core..fmt..Debug$GT$3fmt17h8c5ac35a91e80867E
libclamav.so.11:_ZN56_$LT$std..io..util..Sink$u20$as$u20$core..fmt..Debug$GT$3fmt17h79f6f4dab62310d8E
libclamav.so.11:_ZN56_$LT$std..process..Child$u20$as$u20$core..fmt..Debug$GT$3fmt17ha10d5c2e83601dc1E
libclamav.so.11:_ZN56_$LT$std..process..Stdio$u20$as$u20$core..fmt..Debug$GT$3fmt17hfaa242822cde6880E
libclamav.so.11:_ZN56_$LT$std..thread..Thread$u20$as$u20$core..fmt..Debug$GT$3fmt17hd3d067aef2455e4dE
libclamav.so.11:_ZN57_$LT$alloc..alloc..Global$u20$as$u20$core..fmt..Debug$GT$3fmt17h2e3a88576b1d6b3dE
libclamav.so.11:_ZN57_$LT$alloc..string..Drain$u20$as$u20$core..fmt..Debug$GT$3fmt17h4c4935d5ee6b9996E
libclamav.so.11:_ZN57_$LT$core..ffi..c_str..CStr$u20$as$u20$core..cmp..Ord$GT$3cmp17h0e7b28f01473d9b8E
libclamav.so.11:_ZN57_$LT$core..fmt..Alignment$u20$as$u20$core..fmt..Debug$GT$3fmt17h0e669f3113d1f6cbE
libclamav.so.11:_ZN57_$LT$core..fmt..Arguments$u20$as$u20$core..fmt..Debug$GT$3fmt17h85711a9d43192769E
libclamav.so.11:_ZN57_$LT$core..fmt..Formatter$u20$as$u20$core..fmt..Write$GT$10write_char17h4f6797a5ff7f0f8aE
libclamav.so.11:_ZN57_$LT$core..fmt..Formatter$u20$as$u20$core..fmt..Write$GT$9write_fmt17h0c2b221da0cc19bcE
libclamav.so.11:_ZN57_$LT$core..fmt..Formatter$u20$as$u20$core..fmt..Write$GT$9write_str17ha273756140c9288fE
libclamav.so.11:_ZN57_$LT$core..num..fmt..Part$u20$as$u20$core..fmt..Debug$GT$3fmt17h341d55c71a72bcffE
libclamav.so.11:_ZN57_$LT$core..time..Duration$u20$as$u20$core..fmt..Debug$GT$3fmt17h8a57323dd8def679E
libclamav.so.11:_ZN57_$LT$exr..image..Encoding$u20$as$u20$core..fmt..Debug$GT$3fmt17h0282bc41cb68f149E
libclamav.so.11:_ZN57_$LT$flate2..gz..GzHeader$u20$as$u20$core..fmt..Debug$GT$3fmt17h1cf28bc7cad3e23aE
libclamav.so.11:_ZN57_$LT$gif..encoder..Repeat$u20$as$u20$core..fmt..Debug$GT$3fmt17h1027399cd907c8bbE
libclamav.so.11:_ZN57_$LT$gimli..arch..AArch64$u20$as$u20$core..fmt..Debug$GT$3fmt17h13630249e5b8f994E
libclamav.so.11:_ZN57_$LT$gimli..common..DwoId$u20$as$u20$core..fmt..Debug$GT$3fmt17he4bd53ba0bd1b129E
libclamav.so.11:_ZN57_$LT$half..binary16..f16$u20$as$u20$core..fmt..Binary$GT$3fmt17hd72543ca5b5f6903E
libclamav.so.11:_ZN57_$LT$image..flat..Error$u20$as$u20$core..fmt..Display$GT$3fmt17hd0964eea6413f9f0E
libclamav.so.11:_ZN57_$LT$libc..unix..fpos_t$u20$as$u20$core..clone..Clone$GT$5clone17hcf645712d7ee2d34E
libclamav.so.11:_ZN57_$LT$libc..unix..linger$u20$as$u20$core..clone..Clone$GT$5clone17h32694129901e00b4E
libclamav.so.11:_ZN57_$LT$libc..unix..pollfd$u20$as$u20$core..clone..Clone$GT$5clone17hac5a0ad7e238cdc3E
libclamav.so.11:_ZN57_$LT$libc..unix..rlimit$u20$as$u20$core..clone..Clone$GT$5clone17h9f26777519900356E
libclamav.so.11:_ZN57_$LT$libc..unix..rusage$u20$as$u20$core..clone..Clone$GT$5clone17h3130a4b17e628bb6E
libclamav.so.11:_ZN57_$LT$libc..unix..sigval$u20$as$u20$core..clone..Clone$GT$5clone17hceb5f27d0d070226E
libclamav.so.11:_ZN57_$LT$log..Level$u20$as$u20$core..str..traits..FromStr$GT$8from_str17hf2f3e86fe488cae9E
libclamav.so.11:_ZN57_$LT$log..MetadataBuilder$u20$as$u20$core..fmt..Debug$GT$3fmt17h1d7c79960c01ba2aE
libclamav.so.11:_ZN57_$LT$log..ParseLevelError$u20$as$u20$core..fmt..Debug$GT$3fmt17hfe17a26ad44cc4c5E
libclamav.so.11:_ZN57_$LT$miniz_oxide..MZError$u20$as$u20$core..fmt..Debug$GT$3fmt17h4fa8006e46973f53E
libclamav.so.11:_ZN57_$LT$miniz_oxide..MZError$u20$as$u20$core..fmt..Debug$GT$3fmt17hcc35f5da647f753dE
libclamav.so.11:_ZN57_$LT$miniz_oxide..MZFlush$u20$as$u20$core..fmt..Debug$GT$3fmt17h0437fa38c8d3c63aE
libclamav.so.11:_ZN57_$LT$miniz_oxide..MZFlush$u20$as$u20$core..fmt..Debug$GT$3fmt17hfdbeea4ce0e7b8eaE
libclamav.so.11:_ZN57_$LT$object..read..Export$u20$as$u20$core..fmt..Debug$GT$3fmt17hf6881bc70be9397dE
libclamav.so.11:_ZN57_$LT$object..read..Import$u20$as$u20$core..fmt..Debug$GT$3fmt17hbc3c691c444beba9E
libclamav.so.11:_ZN57_$LT$png..common..BlendOp$u20$as$u20$core..fmt..Debug$GT$3fmt17h2816f63674007357E
libclamav.so.11:_ZN57_$LT$png..decoder..Limits$u20$as$u20$core..fmt..Debug$GT$3fmt17h99f7524d76ebe429E
libclamav.so.11:_ZN57_$LT$std..env..SplitPaths$u20$as$u20$core..fmt..Debug$GT$3fmt17h3993a411fe5285e6E
libclamav.so.11:_ZN57_$LT$std..env..VarError$u20$as$u20$core..error..Error$GT$11description17he11ddb556ba26affE
libclamav.so.11:_ZN57_$LT$std..env..VarError$u20$as$u20$core..fmt..Display$GT$3fmt17hd00271cebb88d179E
libclamav.so.11:_ZN57_$LT$std..fs..OpenOptions$u20$as$u20$core..fmt..Debug$GT$3fmt17he0781093539ea1d2E
libclamav.so.11:_ZN57_$LT$std..fs..Permissions$u20$as$u20$core..fmt..Debug$GT$3fmt17hd09cd887ca96845fE
libclamav.so.11:_ZN57_$LT$std..io..stdio..Stderr$u20$as$u20$std..io..Write$GT$14write_vectored17h378c6834f1e5d6dfE
libclamav.so.11:_ZN57_$LT$std..io..stdio..Stderr$u20$as$u20$std..io..Write$GT$18write_all_vectored17hcd737716b6b35d2cE
libclamav.so.11:_ZN57_$LT$std..io..stdio..Stderr$u20$as$u20$std..io..Write$GT$5flush17h523b1b49c3e85f5dE
libclamav.so.11:_ZN57_$LT$std..io..stdio..Stderr$u20$as$u20$std..io..Write$GT$5write17he57b0ef48804b7c4E
libclamav.so.11:_ZN57_$LT$std..io..stdio..Stderr$u20$as$u20$std..io..Write$GT$9write_all17h973b1cc45c79c5dfE
libclamav.so.11:_ZN57_$LT$std..io..stdio..Stderr$u20$as$u20$std..io..Write$GT$9write_fmt17h88c267c3f6bc6ee2E
libclamav.so.11:_ZN57_$LT$std..io..stdio..Stdout$u20$as$u20$std..io..Write$GT$14write_vectored17hd1e589c2bb9ed2fbE
libclamav.so.11:_ZN57_$LT$std..io..stdio..Stdout$u20$as$u20$std..io..Write$GT$18write_all_vectored17h4dc5bdc9f650728aE
libclamav.so.11:_ZN57_$LT$std..io..stdio..Stdout$u20$as$u20$std..io..Write$GT$5flush17h1d0d11e66be3cabbE
libclamav.so.11:_ZN57_$LT$std..io..stdio..Stdout$u20$as$u20$std..io..Write$GT$5write17h8f8c9ec7efa21b07E
libclamav.so.11:_ZN57_$LT$std..io..stdio..Stdout$u20$as$u20$std..io..Write$GT$9write_all17ha1ea9ae794270177E
libclamav.so.11:_ZN57_$LT$std..io..stdio..Stdout$u20$as$u20$std..io..Write$GT$9write_fmt17h4a676630d5488e8aE
libclamav.so.11:_ZN57_$LT$std..io..util..Empty$u20$as$u20$core..fmt..Debug$GT$3fmt17hfd860b67d94eea9dE
libclamav.so.11:_ZN57_$LT$std..path..Ancestors$u20$as$u20$core..fmt..Debug$GT$3fmt17h61bd95fab4d834eaE
libclamav.so.11:_ZN57_$LT$std..path..Component$u20$as$u20$core..fmt..Debug$GT$3fmt17h1daa0462f01f90d4E
libclamav.so.11:_ZN57_$LT$std..path..Display$u20$as$u20$core..fmt..Display$GT$3fmt17h5b68e2ed34307020E
libclamav.so.11:_ZN57_$LT$std..process..Output$u20$as$u20$core..fmt..Debug$GT$3fmt17h4b2b2e47a6ebfe82E
libclamav.so.11:_ZN57_$LT$std..thread..Builder$u20$as$u20$core..fmt..Debug$GT$3fmt17hcfa3a4ad97a70f62E
libclamav.so.11:_ZN58_$LT$core..ffi..VaListImpl$u20$as$u20$core..fmt..Debug$GT$3fmt17hd23a6fbf1124a1afE
libclamav.so.11:_ZN58_$LT$core..num..FpCategory$u20$as$u20$core..fmt..Debug$GT$3fmt17h823b8650d1b76d67E
libclamav.so.11:_ZN58_$LT$flate2..gz..GzBuilder$u20$as$u20$core..fmt..Debug$GT$3fmt17h1e40ac7a41193635E
libclamav.so.11:_ZN58_$LT$flate2..mem..Compress$u20$as$u20$core..fmt..Debug$GT$3fmt17hba558604b1c1c7fdE
libclamav.so.11:_ZN58_$LT$flate2..mem..Compress$u20$as$u20$flate2..zio..Ops$GT$3run17h695e54315889ad4eE
libclamav.so.11:_ZN58_$LT$flate2..mem..Compress$u20$as$u20$flate2..zio..Ops$GT$7run_vec17h4d2ba5f12462250fE
libclamav.so.11:_ZN58_$LT$flate2..mem..Compress$u20$as$u20$flate2..zio..Ops$GT$8total_in17h7750d423112ffef6E
libclamav.so.11:_ZN58_$LT$flate2..mem..Compress$u20$as$u20$flate2..zio..Ops$GT$9total_out17h6ae7bd92cbc847d4E
libclamav.so.11:_ZN58_$LT$flume..TryRecvError$u20$as$u20$core..fmt..Display$GT$3fmt17ha7367160c533180aE
libclamav.so.11:_ZN58_$LT$gimli..common..Format$u20$as$u20$core..fmt..Debug$GT$3fmt17h127ad06d74fa603eE
libclamav.so.11:_ZN58_$LT$half..binary16..f16$u20$as$u20$core..fmt..Display$GT$3fmt17h5cd0d0df6435a2edE
libclamav.so.11:_ZN58_$LT$libc..unix..hostent$u20$as$u20$core..clone..Clone$GT$5clone17h6a358913ab3c751aE
libclamav.so.11:_ZN58_$LT$libc..unix..servent$u20$as$u20$core..clone..Clone$GT$5clone17h6b324c3f048db0feE
libclamav.so.11:_ZN58_$LT$libc..unix..timeval$u20$as$u20$core..clone..Clone$GT$5clone17hca3bd95d2c2b95e3E
libclamav.so.11:_ZN58_$LT$libc..unix..utimbuf$u20$as$u20$core..clone..Clone$GT$5clone17hd0de0e82ae1ce679E
libclamav.so.11:_ZN58_$LT$libc..unix..winsize$u20$as$u20$core..clone..Clone$GT$5clone17h1715d5cde146b056E
libclamav.so.11:_ZN58_$LT$log..SetLoggerError$u20$as$u20$core..fmt..Display$GT$3fmt17h024d7ab752dfc5a2E
libclamav.so.11:_ZN58_$LT$memchr..cow..CowBytes$u20$as$u20$core..fmt..Debug$GT$3fmt17hdfd2f77c9e72841aE
libclamav.so.11:_ZN58_$LT$miniz_oxide..MZStatus$u20$as$u20$core..fmt..Debug$GT$3fmt17h4ea7e3a4dff39881E
libclamav.so.11:_ZN58_$LT$miniz_oxide..MZStatus$u20$as$u20$core..fmt..Debug$GT$3fmt17h94d1f28599ed0f1aE
libclamav.so.11:_ZN58_$LT$png..chunk..ChunkType$u20$as$u20$core..fmt..Debug$GT$3fmt17hff80b6b988499f76E
libclamav.so.11:_ZN58_$LT$png..common..BitDepth$u20$as$u20$core..fmt..Debug$GT$3fmt17h94d79d22fe5b5024E
libclamav.so.11:_ZN58_$LT$rayon_core..ErrorKind$u20$as$u20$core..fmt..Debug$GT$3fmt17hafb1625d35e8215cE
libclamav.so.11:_ZN58_$LT$rayon_core..FnContext$u20$as$u20$core..fmt..Debug$GT$3fmt17hfed7c8d833b71c4eE
libclamav.so.11:_ZN58_$LT$rustfft..FftDirection$u20$as$u20$core..fmt..Debug$GT$3fmt17hc9a32a06dd9ae9ceE
libclamav.so.11:_ZN58_$LT$rustfft..plan..Recipe$u20$as$u20$core..fmt..Debug$GT$3fmt17hbfad5cef11892019E
libclamav.so.11:_ZN58_$LT$std..io..error..Error$u20$as$u20$core..fmt..Debug$GT$3fmt17h126849fb799aa4a5E
libclamav.so.11:_ZN58_$LT$std..io..stdio..Stdin$u20$as$u20$core..fmt..Debug$GT$3fmt17h81f3280a550bf522E
libclamav.so.11:_ZN58_$LT$std..io..stdio..StdinRaw$u20$as$u20$std..io..Read$GT$11read_to_end17hfce168e057b3b3f4E
libclamav.so.11:_ZN58_$LT$std..io..stdio..StdinRaw$u20$as$u20$std..io..Read$GT$13read_vectored17h6c7c3ef4e385b4f4E
libclamav.so.11:_ZN58_$LT$std..io..stdio..StdinRaw$u20$as$u20$std..io..Read$GT$14read_to_string17h9298880bf9929b18E
libclamav.so.11:_ZN58_$LT$std..io..stdio..StdinRaw$u20$as$u20$std..io..Read$GT$4read17he1ef5eede20f3f91E
libclamav.so.11:_ZN58_$LT$std..io..util..Repeat$u20$as$u20$core..fmt..Debug$GT$3fmt17h6040447cc9710a84E
libclamav.so.11:_ZN58_$LT$std..net..tcp..TcpStream$u20$as$u20$std..io..Read$GT$13read_vectored17h20288d8733040cddE
libclamav.so.11:_ZN58_$LT$std..net..tcp..TcpStream$u20$as$u20$std..io..Read$GT$4read17ha48c5b3746fc8404E
libclamav.so.11:_ZN58_$LT$std..path..Components$u20$as$u20$core..fmt..Debug$GT$3fmt17h060a9ee8331ebc57E
libclamav.so.11:_ZN58_$LT$std..process..Command$u20$as$u20$core..fmt..Debug$GT$3fmt17h0070d5b059400f03E
libclamav.so.11:_ZN58_$LT$std..sync..once..Once$u20$as$u20$core..fmt..Debug$GT$3fmt17h85468c34433d2080E
libclamav.so.11:_ZN58_$LT$std..thread..ThreadId$u20$as$u20$core..fmt..Debug$GT$3fmt17h7028629489dc7355E
libclamav.so.11:_ZN58_$LT$std..time..SystemTime$u20$as$u20$core..fmt..Debug$GT$3fmt17hf46fde5593c104e1E
libclamav.so.11:_ZN58_$LT$tiff..decoder..Limits$u20$as$u20$core..fmt..Debug$GT$3fmt17ha70a4dc0e93c3ff2E
libclamav.so.11:_ZN58_$LT$tiff..tags..Predictor$u20$as$u20$core..fmt..Debug$GT$3fmt17h1b48a00bd1bb7b6aE
libclamav.so.11:_ZN59_$LT$bytemuck..PodCastError$u20$as$u20$core..fmt..Debug$GT$3fmt17hb21499d8d5e55cbdE
libclamav.so.11:_ZN59_$LT$core..ffi..c_str..CStr$u20$as$u20$core..fmt..Debug$GT$3fmt17h48c800df5cfcf81eE
libclamav.so.11:_ZN59_$LT$core..fmt..Arguments$u20$as$u20$core..fmt..Display$GT$3fmt17h5963c7e6aec20a52E
libclamav.so.11:_ZN59_$LT$core..future..ResumeTy$u20$as$u20$core..fmt..Debug$GT$3fmt17h4024fdb1ca33a0b2E
libclamav.so.11:_ZN59_$LT$core..hash..sip..State$u20$as$u20$core..fmt..Debug$GT$3fmt17h694dded3992aeb1cE
libclamav.so.11:_ZN59_$LT$core..str..iter..Bytes$u20$as$u20$core..fmt..Debug$GT$3fmt17h53189087050a2900E
libclamav.so.11:_ZN59_$LT$core..str..iter..Chars$u20$as$u20$core..fmt..Debug$GT$3fmt17ha40cf8a55b15ea5dE
libclamav.so.11:_ZN59_$LT$core..str..iter..Lines$u20$as$u20$core..fmt..Debug$GT$3fmt17hfc4e0ad2eb4cf4d2E
libclamav.so.11:_ZN59_$LT$dyn$u20$core..any..Any$u20$as$u20$core..fmt..Debug$GT$3fmt17h6d25198b609fd137E
libclamav.so.11:_ZN59_$LT$exr..block..BlockIndex$u20$as$u20$core..fmt..Debug$GT$3fmt17hea8af5df5b021e5eE
libclamav.so.11:_ZN59_$LT$exr..meta..TileIndices$u20$as$u20$core..fmt..Debug$GT$3fmt17h71840c4e5f02fc9bE
libclamav.so.11:_ZN59_$LT$f32$u20$as$u20$core..num..dec2flt..float..RawFloat$GT$13from_u64_bits17ha4c4dc418fb4f740E
libclamav.so.11:_ZN59_$LT$f32$u20$as$u20$core..num..dec2flt..float..RawFloat$GT$14integer_decode17hd98d054cd8d965bdE
libclamav.so.11:_ZN59_$LT$f32$u20$as$u20$core..num..dec2flt..float..RawFloat$GT$15pow10_fast_path17h1c6f9b8e6df8b5ddE
libclamav.so.11:_ZN59_$LT$f32$u20$as$u20$core..num..dec2flt..float..RawFloat$GT$8classify17h6b18fa0568327b14E
libclamav.so.11:_ZN59_$LT$f32$u20$as$u20$core..num..dec2flt..float..RawFloat$GT$8from_u6417h8e8e8d8aca495cdbE
libclamav.so.11:_ZN59_$LT$f64$u20$as$u20$core..num..dec2flt..float..RawFloat$GT$13from_u64_bits17h428061df91c68615E
libclamav.so.11:_ZN59_$LT$f64$u20$as$u20$core..num..dec2flt..float..RawFloat$GT$14integer_decode17hbd844b3e35c23030E
libclamav.so.11:_ZN59_$LT$f64$u20$as$u20$core..num..dec2flt..float..RawFloat$GT$15pow10_fast_path17h0dd391b4c7bcc105E
libclamav.so.11:_ZN59_$LT$f64$u20$as$u20$core..num..dec2flt..float..RawFloat$GT$8classify17h7650ebc5caad8cc9E
libclamav.so.11:_ZN59_$LT$f64$u20$as$u20$core..num..dec2flt..float..RawFloat$GT$8from_u6417h3d84667b48b69766E
libclamav.so.11:_ZN59_$LT$flate2..crc..Crc$u20$as$u20$core..default..Default$GT$7default17hce7609959c59c614E
libclamav.so.11:_ZN59_$LT$gif..common..Extension$u20$as$u20$core..fmt..Debug$GT$3fmt17he5ee4b1432aa86fbE
libclamav.so.11:_ZN59_$LT$gimli..constants..DwAt$u20$as$u20$core..fmt..Debug$GT$3fmt17h306b768c0bee1845E
libclamav.so.11:_ZN59_$LT$gimli..constants..DwCc$u20$as$u20$core..fmt..Debug$GT$3fmt17h16c45167889707efE
libclamav.so.11:_ZN59_$LT$gimli..constants..DwDs$u20$as$u20$core..fmt..Debug$GT$3fmt17h2424e1e57699c84eE
libclamav.so.11:_ZN59_$LT$gimli..constants..DwId$u20$as$u20$core..fmt..Debug$GT$3fmt17hf896e070052f160fE
libclamav.so.11:_ZN59_$LT$gimli..constants..DwOp$u20$as$u20$core..fmt..Debug$GT$3fmt17hfb1d411fbffabf86E
libclamav.so.11:_ZN59_$LT$gimli..constants..DwUt$u20$as$u20$core..fmt..Debug$GT$3fmt17h1734faf11e0881caE
libclamav.so.11:_ZN59_$LT$half..binary16..f16$u20$as$u20$core..fmt..LowerExp$GT$3fmt17h63b7e1fddd566b36E
libclamav.so.11:_ZN59_$LT$half..binary16..f16$u20$as$u20$core..fmt..LowerHex$GT$3fmt17h592284ffb045974aE
libclamav.so.11:_ZN59_$LT$half..binary16..f16$u20$as$u20$core..fmt..UpperExp$GT$3fmt17h9248fc7a30bbed9aE
libclamav.so.11:_ZN59_$LT$half..binary16..f16$u20$as$u20$core..fmt..UpperHex$GT$3fmt17h297d18216c17b508E
libclamav.so.11:_ZN59_$LT$i8$u20$as$u20$tiff..encoder..tiff_value..TiffValue$GT$4data17h6bf486c83f719e6cE
libclamav.so.11:_ZN59_$LT$i8$u20$as$u20$tiff..encoder..tiff_value..TiffValue$GT$5count17h7aa824bbab5db860E
libclamav.so.11:_ZN59_$LT$image..image..Progress$u20$as$u20$core..fmt..Debug$GT$3fmt17ha8c0344623e0fc7bE
libclamav.so.11:_ZN59_$LT$libc..unix..protoent$u20$as$u20$core..clone..Clone$GT$5clone17h49d224e7d32443dfE
libclamav.so.11:_ZN59_$LT$libc..unix..timespec$u20$as$u20$core..clone..Clone$GT$5clone17h9298d787e9228b38E
libclamav.so.11:_ZN59_$LT$log..ParseLevelError$u20$as$u20$core..fmt..Display$GT$3fmt17h601777569e4a5ad2E
libclamav.so.11:_ZN59_$LT$memchr..memmem..Finder$u20$as$u20$core..fmt..Debug$GT$3fmt17h3c26377b07f98a2dE
libclamav.so.11:_ZN59_$LT$object..read..CodeView$u20$as$u20$core..fmt..Debug$GT$3fmt17he4085648fc6977bbE
libclamav.so.11:_ZN59_$LT$object..read..FileKind$u20$as$u20$core..fmt..Debug$GT$3fmt17ha38f50afeffd9f2cE
libclamav.so.11:_ZN59_$LT$png..common..BlendOp$u20$as$u20$core..fmt..Display$GT$3fmt17h9c317be35756f3cbE
libclamav.so.11:_ZN59_$LT$png..common..ColorType$u20$as$u20$core..fmt..Debug$GT$3fmt17h549f64e935a0f776E
libclamav.so.11:_ZN59_$LT$png..common..DisposeOp$u20$as$u20$core..fmt..Debug$GT$3fmt17h77f1eeb0cc91c691E
libclamav.so.11:_ZN59_$LT$std..io..error..Custom$u20$as$u20$core..fmt..Debug$GT$3fmt17h16f1061089163947E
libclamav.so.11:_ZN59_$LT$std..io..stdio..Stderr$u20$as$u20$core..fmt..Debug$GT$3fmt17ha2c9b8c4526ef48cE
libclamav.so.11:_ZN59_$LT$std..io..stdio..StdinLock$u20$as$u20$std..io..Read$GT$10read_exact17h3e2f00d90d2edc3eE
libclamav.so.11:_ZN59_$LT$std..io..stdio..StdinLock$u20$as$u20$std..io..Read$GT$11read_to_end17h32b758ff857943aeE
libclamav.so.11:_ZN59_$LT$std..io..stdio..StdinLock$u20$as$u20$std..io..Read$GT$13read_vectored17h4ad46f40fd0b38a0E
libclamav.so.11:_ZN59_$LT$std..io..stdio..StdinLock$u20$as$u20$std..io..Read$GT$14read_to_string17hf0947f13c2a6579eE
libclamav.so.11:_ZN59_$LT$std..io..stdio..StdinLock$u20$as$u20$std..io..Read$GT$4read17he3d67c21cc7908aaE
libclamav.so.11:_ZN59_$LT$std..io..stdio..Stdout$u20$as$u20$core..fmt..Debug$GT$3fmt17hfb5006248cfbff30E
libclamav.so.11:_ZN59_$LT$std..net..tcp..TcpStream$u20$as$u20$std..io..Write$GT$14write_vectored17hd03b8f4a05e740c0E
libclamav.so.11:_ZN59_$LT$std..net..tcp..TcpStream$u20$as$u20$std..io..Write$GT$5flush17ha6e833838fa3cd7bE
libclamav.so.11:_ZN59_$LT$std..net..tcp..TcpStream$u20$as$u20$std..io..Write$GT$5write17hfd818fbb154ae8b3E
libclamav.so.11:_ZN59_$LT$std..process..ChildStderr$u20$as$u20$std..io..Read$GT$13read_vectored17h172e2140420ec159E
libclamav.so.11:_ZN59_$LT$std..process..ChildStderr$u20$as$u20$std..io..Read$GT$4read17h96403c4cd97c51cbE
libclamav.so.11:_ZN59_$LT$std..process..ChildStdin$u20$as$u20$std..io..Write$GT$14write_vectored17hc5f57077d0830b6aE
libclamav.so.11:_ZN59_$LT$std..process..ChildStdin$u20$as$u20$std..io..Write$GT$17is_write_vectored17he0b1a7a7529b0987E
libclamav.so.11:_ZN59_$LT$std..process..ChildStdin$u20$as$u20$std..io..Write$GT$5flush17h331fc63325fa7f19E
libclamav.so.11:_ZN59_$LT$std..process..ChildStdin$u20$as$u20$std..io..Write$GT$5write17h0331eca39721b315E
libclamav.so.11:_ZN59_$LT$std..process..ChildStdout$u20$as$u20$std..io..Read$GT$13read_vectored17h76e3f886fab311ccE
libclamav.so.11:_ZN59_$LT$std..process..ChildStdout$u20$as$u20$std..io..Read$GT$4read17h89dc8f4ad7ac0aacE
libclamav.so.11:_ZN59_$LT$std..process..ExitCode$u20$as$u20$core..fmt..Debug$GT$3fmt17h74ca88561a89c983E
libclamav.so.11:_ZN59_$LT$tempfile..dir..TempDir$u20$as$u20$core..fmt..Debug$GT$3fmt17h3f32e6ab10288435E
libclamav.so.11:_ZN59_$LT$threadpool..ThreadPool$u20$as$u20$core..fmt..Debug$GT$3fmt17h98865ccabb576de5E
libclamav.so.11:_ZN59_$LT$tiff..error..TiffError$u20$as$u20$core..fmt..Debug$GT$3fmt17h4c8f4a08b8de67e6E
libclamav.so.11:_ZN59_$LT$u8$u20$as$u20$tiff..encoder..tiff_value..TiffValue$GT$4data17h477d3f4c570f0bc0E
libclamav.so.11:_ZN59_$LT$u8$u20$as$u20$tiff..encoder..tiff_value..TiffValue$GT$5count17h9830ced9a3e1d588E
libclamav.so.11:_ZN59_$LT$weezl..error..LzwError$u20$as$u20$core..fmt..Debug$GT$3fmt17h676149fa1f2a7e2eE
libclamav.so.11:_ZN5adler13adler32_slice17h60846af25d82fb9aE
libclamav.so.11:_ZN5adler13adler32_slice17he1ba49e72c0e6449E
libclamav.so.11:_ZN5adler7Adler3211write_slice17h0794fbbbd071a8f4E
libclamav.so.11:_ZN5adler7Adler3211write_slice17h964aeda54e525a70E
libclamav.so.11:_ZN5alloc11collections5btree4node10splitpoint17hd10cc93b79d5699dE
libclamav.so.11:_ZN5alloc2rc29rcbox_layout_for_value_layout17h224be106266e357dE
libclamav.so.11:_ZN5alloc3ffi5c_str100_$LT$impl$u20$core..default..Default$u20$for$u20$alloc..boxed..Box$LT$core..ffi..c_str..CStr$GT$$GT$7default17h6ab6fa71fc1d03efE
libclamav.so.11:_ZN5alloc3ffi5c_str131_$LT$impl$u20$core..convert..From$LT$$RF$core..ffi..c_str..CStr$GT$$u20$for$u20$alloc..boxed..Box$LT$core..ffi..c_str..CStr$GT$$GT$4from17h365a9f10b86a3da3E
libclamav.so.11:_ZN5alloc3ffi5c_str15IntoStringError10utf8_error17heac2fcb36272cd82E
libclamav.so.11:_ZN5alloc3ffi5c_str15IntoStringError12into_cstring17hde15c21ae4da8f0eE
libclamav.so.11:_ZN5alloc3ffi5c_str15IntoStringError8__source17h94bb80d903f6bbf6E
libclamav.so.11:_ZN5alloc3ffi5c_str19FromVecWithNulError10into_bytes17hd75e44599ed9f4b3E
libclamav.so.11:_ZN5alloc3ffi5c_str19FromVecWithNulError8as_bytes17h69f5572a11a0be37E
libclamav.so.11:_ZN5alloc3ffi5c_str40_$LT$impl$u20$core..ffi..c_str..CStr$GT$13into_c_string17h70b2b12d7387db05E
libclamav.so.11:_ZN5alloc3ffi5c_str40_$LT$impl$u20$core..ffi..c_str..CStr$GT$15to_string_lossy17h5fcfbacb625627d4E
libclamav.so.11:_ZN5alloc3ffi5c_str75_$LT$impl$u20$alloc..borrow..ToOwned$u20$for$u20$core..ffi..c_str..CStr$GT$10clone_into17h4f36360f0909f662E
libclamav.so.11:_ZN5alloc3ffi5c_str75_$LT$impl$u20$alloc..borrow..ToOwned$u20$for$u20$core..ffi..c_str..CStr$GT$8to_owned17h99604b92acdff9ffE
libclamav.so.11:_ZN5alloc3ffi5c_str7CString10into_bytes17h15f274d557a523e4E
libclamav.so.11:_ZN5alloc3ffi5c_str7CString11into_string17h2b2419cb6fd1097aE
libclamav.so.11:_ZN5alloc3ffi5c_str7CString16into_boxed_c_str17hc2587ab3c32198edE
libclamav.so.11:_ZN5alloc3ffi5c_str7CString17from_vec_with_nul17h013b7a21b2add523E
libclamav.so.11:_ZN5alloc3ffi5c_str7CString18from_vec_unchecked17h0151af7cb185b053E
libclamav.so.11:_ZN5alloc3ffi5c_str7CString19_from_vec_unchecked17h695058ff6a4da84eE
libclamav.so.11:_ZN5alloc3ffi5c_str7CString19into_bytes_with_nul17h3a6fdfa06e82464cE
libclamav.so.11:_ZN5alloc3ffi5c_str7CString27from_vec_with_nul_unchecked17ha09599cd9216b356E
libclamav.so.11:_ZN5alloc3ffi5c_str7CString8from_raw17h66b24acb8f736378E
libclamav.so.11:_ZN5alloc3ffi5c_str8NulError12nul_position17h0f951ab81db12a97E
libclamav.so.11:_ZN5alloc3ffi5c_str8NulError8into_vec17he609e7243f95e3c9E
libclamav.so.11:_ZN5alloc3fmt6format12format_inner17hd7fdd0ce5a7abd64E
libclamav.so.11:_ZN5alloc3str21_$LT$impl$u20$str$GT$12to_lowercase17h2df04354a3e1b9c9E
libclamav.so.11:_ZN5alloc3str21_$LT$impl$u20$str$GT$12to_uppercase17h90e1d0030769c8b9E
libclamav.so.11:_ZN5alloc3str21_$LT$impl$u20$str$GT$6repeat17h9ce144272f3182c3E
libclamav.so.11:_ZN5alloc3str56_$LT$impl$u20$alloc..borrow..ToOwned$u20$for$u20$str$GT$10clone_into17h680f6a4b76f47d28E
libclamav.so.11:_ZN5alloc3vec16Vec$LT$T$C$A$GT$11swap_remove13assert_failed17h5478f800556ee95fE
libclamav.so.11:_ZN5alloc3vec16Vec$LT$T$C$A$GT$6insert13assert_failed17h0fc6b3e900a7d158E
libclamav.so.11:_ZN5alloc3vec16Vec$LT$T$C$A$GT$6remove13assert_failed17h55efb810e5e37706E
libclamav.so.11:_ZN5alloc3vec16Vec$LT$T$C$A$GT$9split_off13assert_failed17h712c5970a4654abfE
libclamav.so.11:_ZN5alloc4sync32arcinner_layout_for_value_layout17h35c6428c9b0132a7E
libclamav.so.11:_ZN5alloc5alloc18handle_alloc_error17hd2da1c27a23288f8E
libclamav.so.11:_ZN5alloc5alloc18handle_alloc_error8ct_error17h0269c12cf442281bE
libclamav.so.11:_ZN5alloc5alloc18handle_alloc_error8rt_error17h0f6e6d1e22de6781E
libclamav.so.11:_ZN5alloc6string104_$LT$impl$u20$core..convert..From$LT$alloc..string..String$GT$$u20$for$u20$alloc..vec..Vec$LT$u8$GT$$GT$4from17h339e58964d9ce135E
libclamav.so.11:_ZN5alloc6string107_$LT$impl$u20$core..convert..From$LT$alloc..string..String$GT$$u20$for$u20$alloc..boxed..Box$LT$str$GT$$GT$4from17h9c151cd5143415beE
libclamav.so.11:_ZN5alloc6string13FromUtf8Error10into_bytes17hb964494967f197b0E
libclamav.so.11:_ZN5alloc6string13FromUtf8Error10utf8_error17h9e03b7decafc850eE
libclamav.so.11:_ZN5alloc6string13FromUtf8Error8as_bytes17hf25d31e89a8fc87aE
libclamav.so.11:_ZN5alloc6string5Drain6as_str17hc692bf28b0c0cb3bE
libclamav.so.11:_ZN5alloc6string6String10from_utf1617h7bdea2519a3199aeE
libclamav.so.11:_ZN5alloc6string6String11try_reserve17h3b37f5860784a8e5E
libclamav.so.11:_ZN5alloc6string6String12insert_bytes17hf038716490bd618dE
libclamav.so.11:_ZN5alloc6string6String14into_raw_parts17hc7da692fbe058cfaE
libclamav.so.11:_ZN5alloc6string6String15from_utf8_lossy17h24870eae99652e37E
libclamav.so.11:_ZN5alloc6string6String17try_reserve_exact17h4793e411d72259b2E
libclamav.so.11:_ZN5alloc7raw_vec17capacity_overflow17h7cfff60cafef2592E
libclamav.so.11:_ZN5flume6signal10SyncSignal12wait_timeout17hc0de667769c1b3e3E
libclamav.so.11:_ZN5flume6signal10SyncSignal4wait17h9a8355009fc399edE
libclamav.so.11:_ZN5gimli4arch3Arm13register_name17h6cb2f84803bd32d1E
libclamav.so.11:_ZN5gimli4arch3Arm16name_to_register17h8c952273ea75d99aE
libclamav.so.11:_ZN5gimli4arch3X8613register_name17hb487143d7ffa74c1E
libclamav.so.11:_ZN5gimli4arch3X8616name_to_register17h9eadecbf9b9e19e1E
libclamav.so.11:_ZN5gimli4arch5RiscV13register_name17hf541fbfe4dfca228E
libclamav.so.11:_ZN5gimli4arch5RiscV16name_to_register17heba00bd442f3e5e2E
libclamav.so.11:_ZN5gimli4arch6X86_6413register_name17he5a32114f25db9deE
libclamav.so.11:_ZN5gimli4arch6X86_6416name_to_register17h559d73172bf43b05E
libclamav.so.11:_ZN5gimli4arch7AArch6413register_name17h342c3c9210f9346aE
libclamav.so.11:_ZN5gimli4arch7AArch6416name_to_register17hb38090925d85c0abE
libclamav.so.11:_ZN5gimli4read41_$LT$impl$u20$gimli..common..Register$GT$8from_u6417h6f8f37cc0d04fd1eE
libclamav.so.11:_ZN5gimli4read4line7LineRow18apply_line_advance17hcfcbdfa1599de7c7E
libclamav.so.11:_ZN5gimli4read4unit20allow_section_offset17hdf14612aad0e42f2E
libclamav.so.11:_ZN5gimli4read5Error11description17h6a8c33341218d4b9E
libclamav.so.11:_ZN5gimli4read5value5Value10value_type17h07d184c7a607054aE
libclamav.so.11:_ZN5gimli4read5value5Value11reinterpret17h1db541e18fc612b3E
libclamav.so.11:_ZN5gimli4read5value5Value2eq17h747012f02c0819b1E
libclamav.so.11:_ZN5gimli4read5value5Value2ge17hcd25e44d52a5d34bE
libclamav.so.11:_ZN5gimli4read5value5Value2gt17h77b86c91d1e4fdeaE
libclamav.so.11:_ZN5gimli4read5value5Value2le17h11b192f2019898b0E
libclamav.so.11:_ZN5gimli4read5value5Value2lt17hbc8db5a7b9e3d8a4E
libclamav.so.11:_ZN5gimli4read5value5Value2ne17hf8ebc6dc5cbbb618E
libclamav.so.11:_ZN5gimli4read5value5Value2or17h878cfa12333e4f2fE
libclamav.so.11:_ZN5gimli4read5value5Value3abs17ha269fb20d85e7745E
libclamav.so.11:_ZN5gimli4read5value5Value3add17h982051dda7172f40E
libclamav.so.11:_ZN5gimli4read5value5Value3and17h34696a8350e51935E
libclamav.so.11:_ZN5gimli4read5value5Value3div17h6b6c9ed57d1e7901E
libclamav.so.11:_ZN5gimli4read5value5Value3mul17h7bec000089c34295E
libclamav.so.11:_ZN5gimli4read5value5Value3neg17hbc95563a2a067bb8E
libclamav.so.11:_ZN5gimli4read5value5Value3not17h243193b94a395467E
libclamav.so.11:_ZN5gimli4read5value5Value3rem17h1a2c1ca1904efdbeE
libclamav.so.11:_ZN5gimli4read5value5Value3shl17h15c3365e697c908cE
libclamav.so.11:_ZN5gimli4read5value5Value3shr17h425211e986f7a64eE
libclamav.so.11:_ZN5gimli4read5value5Value3sub17he06a0030da392cc4E
libclamav.so.11:_ZN5gimli4read5value5Value3xor17hbcec685e8eeaaad0E
libclamav.so.11:_ZN5gimli4read5value5Value4shra17hd69f0f1e56d6c964E
libclamav.so.11:_ZN5gimli4read5value5Value6to_u6417hfa73c2a19f139d48E
libclamav.so.11:_ZN5gimli4read5value5Value7convert17h1093261d05f65473E
libclamav.so.11:_ZN5gimli4read5value5Value8from_u6417h810f98a427ba2e0fE
libclamav.so.11:_ZN5gimli4read5value9ValueType13from_encoding17h370e7ccb79ebf9dbE
libclamav.so.11:_ZN5gimli4read5value9ValueType8bit_size17h248ba89e85c4bfe5E
libclamav.so.11:_ZN5gimli4read6abbrev10Attributes3new17hef11a563e0e37e9bE
libclamav.so.11:_ZN5gimli4read6abbrev10Attributes4push17h5f76404cee7d92a9E
libclamav.so.11:_ZN5gimli4read6abbrev12Abbreviation3new17hc49a1fab696ad545E
libclamav.so.11:_ZN5gimli4read6abbrev13Abbreviations5empty17h0b09b6554d07dfa6E
libclamav.so.11:_ZN5gimli4read6abbrev13Abbreviations6insert17hd0ce8c5acc91526fE
libclamav.so.11:_ZN5gimli6common9SectionId4name17h74acddb8af03469cE
libclamav.so.11:_ZN5gimli6common9SectionId8dwo_name17ha63b4e1be521a4ddE
libclamav.so.11:_ZN5gimli9constants10DwChildren13static_string17h9140f91ecd738b33E
libclamav.so.11:_ZN5gimli9constants11DwDefaulted13static_string17h8a90f04b81f1f7b6E
libclamav.so.11:_ZN5gimli9constants12DwVirtuality13static_string17h83c83af7a2972e3dE
libclamav.so.11:_ZN5gimli9constants4DwAt13static_string17h57334723339b57a2E
libclamav.so.11:_ZN5gimli9constants4DwCc13static_string17h085a7f077e55eeadE
libclamav.so.11:_ZN5gimli9constants4DwDs13static_string17hd380e9321c3ceec7E
libclamav.so.11:_ZN5gimli9constants4DwId13static_string17hb3d88d3d15cd8602E
libclamav.so.11:_ZN5gimli9constants4DwOp13static_string17h4705319a2640642eE
libclamav.so.11:_ZN5gimli9constants4DwUt13static_string17h19dae513fba2a070E
libclamav.so.11:_ZN5gimli9constants5DwAte13static_string17hac3a4a41e2b1d94bE
libclamav.so.11:_ZN5gimli9constants5DwCfa13static_string17heb6e3809aafb36abE
libclamav.so.11:_ZN5gimli9constants5DwDsc13static_string17hb4227988ed41c24fE
libclamav.so.11:_ZN5gimli9constants5DwEnd13static_string17h4cd82633cb9222ffE
libclamav.so.11:_ZN5gimli9constants5DwIdx13static_string17h8ffd7fcb7f4585f9E
libclamav.so.11:_ZN5gimli9constants5DwInl13static_string17hb9cfd2d2ae54bbe7E
libclamav.so.11:_ZN5gimli9constants5DwLle13static_string17h1f74597bb1e1d497E
libclamav.so.11:_ZN5gimli9constants5DwLne13static_string17hd4e34ed0f87687ddE
libclamav.so.11:_ZN5gimli9constants5DwLns13static_string17h3aec20944b197f23E
libclamav.so.11:_ZN5gimli9constants5DwOrd13static_string17h7a9b8b306fe4987fE
libclamav.so.11:_ZN5gimli9constants5DwRle13static_string17h295a4477a9d851ebE
libclamav.so.11:_ZN5gimli9constants5DwTag13static_string17hbcfd15e786b8f118E
libclamav.so.11:_ZN5gimli9constants5DwVis13static_string17h5baf65f56c495ad2E
libclamav.so.11:_ZN5gimli9constants6DwAddr13static_string17h112f9517d5d37e4bE
libclamav.so.11:_ZN5gimli9constants6DwEhPe13static_string17h9897be767d6dc57fE
libclamav.so.11:_ZN5gimli9constants6DwEhPe17is_valid_encoding17h9375ad80f820d3ddE
libclamav.so.11:_ZN5gimli9constants6DwForm13static_string17hd63706aa272da0b6E
libclamav.so.11:_ZN5gimli9constants6DwLang13static_string17h8061f966158e4c13E
libclamav.so.11:_ZN5gimli9constants6DwLang19default_lower_bound17h7bbf7e38ec55efa6E
libclamav.so.11:_ZN5gimli9constants6DwLnct13static_string17h307c5541965c08b7E
libclamav.so.11:_ZN5gimli9constants6DwSect13static_string17h95c6a93272a290a0E
libclamav.so.11:_ZN5gimli9constants7DwMacro13static_string17h9cc2868a9d6ad58dE
libclamav.so.11:_ZN5gimli9constants8DwAccess13static_string17h40fca13f1a83bd8cE
libclamav.so.11:_ZN5gimli9constants8DwSectV213static_string17h7677dc34d187152fE
libclamav.so.11:_ZN5image2io14free_functions12guess_format17h143f191956381ed2E
libclamav.so.11:_ZN5image2io14free_functions16save_buffer_impl17hc8684a3d284c4ca7E
libclamav.so.11:_ZN5image2io14free_functions17guess_format_impl17he2a38eeeaeddfe43E
libclamav.so.11:_ZN5image2io14free_functions21image_dimensions_impl17hb2788757a01d7c54E
libclamav.so.11:_ZN5image2io14free_functions28save_buffer_with_format_impl17hbd882e748154af71E
libclamav.so.11:_ZN5image2io14free_functions9open_impl17h865c1a4de4a9cdcdE
libclamav.so.11:_ZN5image2io6Limits10free_usize17hb35868636ab45edeE
libclamav.so.11:_ZN5image2io6Limits13check_support17hc07b42e81fccf511E
libclamav.so.11:_ZN5image2io6Limits13reserve_usize17h90544e7e22dc93e5E
libclamav.so.11:_ZN5image2io6Limits16check_dimensions17hd7e5fb2baafbd29eE
libclamav.so.11:_ZN5image2io6Limits4free17h1a47150610e3cacdE
libclamav.so.11:_ZN5image2io6Limits7reserve17he70c2c05995feb4bE
libclamav.so.11:_ZN5image2io6Limits9no_limits17h6638fc3b3e695fbeE
libclamav.so.11:_ZN5image2io6reader74Reader$LT$std..io..buffered..bufreader..BufReader$LT$std..fs..File$GT$$GT$9open_impl17h06303b8cbc8afb98E
libclamav.so.11:_ZN5image4flat100_$LT$impl$u20$core..convert..From$LT$image..flat..Error$GT$$u20$for$u20$image..error..ImageError$GT$4from17haa6422e0e3e1a777E
libclamav.so.11:_ZN5image4flat12SampleLayout10min_length17h08b26ecb839a9a50E
libclamav.so.11:_ZN5image4flat12SampleLayout11strides_cwh17h511e98c052dfb754E
libclamav.so.11:_ZN5image4flat12SampleLayout15in_bounds_index17h8e1e718feb84342aE
libclamav.so.11:_ZN5image4flat12SampleLayout16row_major_packed17h2bd3c72d8fb8b8dcE
libclamav.so.11:_ZN5image4flat12SampleLayout19column_major_packed17he8caec395278c1e6E
libclamav.so.11:_ZN5image4flat12SampleLayout19has_aliased_samples17h8e9ff03babccb3daE
libclamav.so.11:_ZN5image4flat12SampleLayout21index_ignoring_bounds17ha35ce9667c4a9e05E
libclamav.so.11:_ZN5image4flat12SampleLayout4fits17h33914570ffaa574bE
libclamav.so.11:_ZN5image4flat12SampleLayout5index17h95b9ceb887bd1772E
libclamav.so.11:_ZN5image4flat12SampleLayout6bounds17ha461edad850eada7E
libclamav.so.11:_ZN5image4flat12SampleLayout7extents17h0aa5d220617041eeE
libclamav.so.11:_ZN5image4flat12SampleLayout9in_bounds17h4c9e12792175133bE
libclamav.so.11:_ZN5image4flat12SampleLayout9is_normal17ha1a7acda6525361aE
libclamav.so.11:_ZN5image4flat12SampleLayout9shrink_to17h64cfe1092d8eaadaE
libclamav.so.11:_ZN5image4flat23panic_cwh_out_of_bounds17hd3d09d102e203e63E
libclamav.so.11:_ZN5image4flat25panic_pixel_out_of_bounds17h63375b40b69663eaE
libclamav.so.11:_ZN5image5color17ExtendedColorType13channel_count17h2ea6871a3b9267aeE
libclamav.so.11:_ZN5image5color9ColorType13channel_count17hc81140b1e3b1f27eE
libclamav.so.11:_ZN5image5color9ColorType14bits_per_pixel17hc48bf860cd962705E
libclamav.so.11:_ZN5image5color9ColorType15bytes_per_pixel17h57aa0ca2e6127739E
libclamav.so.11:_ZN5image5color9ColorType9has_alpha17h472e1d2ef7b52c85E
libclamav.so.11:_ZN5image5color9ColorType9has_color17h6821145d48befa3aE
libclamav.so.11:_ZN5image5error10LimitError4kind17hf672eecdc24380f5E
libclamav.so.11:_ZN5image5error10LimitError9from_kind17h9ef313a1bea85c37E
libclamav.so.11:_ZN5image5error13DecodingError11format_hint17h67eb45e48106b6bfE
libclamav.so.11:_ZN5image5error13DecodingError16from_format_hint17h721f8ac8bb6f5e7eE
libclamav.so.11:_ZN5image5error13EncodingError11format_hint17h93577f3e77e66958E
libclamav.so.11:_ZN5image5error13EncodingError16from_format_hint17h7098c0cd544dd30bE
libclamav.so.11:_ZN5image5error14ParameterError4kind17hdc6a249cd2e49544E
libclamav.so.11:_ZN5image5error14ParameterError9from_kind17hd9bd5a69ff44c57cE
libclamav.so.11:_ZN5image5error16UnsupportedError11format_hint17h3f7ec16680db213fE
libclamav.so.11:_ZN5image5error16UnsupportedError20from_format_and_kind17h2b75302579ce9e7eE
libclamav.so.11:_ZN5image5error16UnsupportedError4kind17h03ba7aa531be2167E
libclamav.so.11:_ZN5image5image11ImageFormat14extensions_str17h9e591d70aa2828bbE
libclamav.so.11:_ZN5image5image11ImageFormat14from_extension5inner17h6b2f8e46d8e0b21eE
libclamav.so.11:_ZN5image5image11ImageFormat9from_path5inner17hd16db3bc73f7a546E
libclamav.so.11:_ZN5image5image15ImageReadBuffer3new17h44c0bf659b40d728E
libclamav.so.11:_ZN5image5image8Progress3new17h9261c8cc569a31c4E
libclamav.so.11:_ZN5image5image8Progress5total17hd59a7047a0fbed4bE
libclamav.so.11:_ZN5image5image8Progress7current17h0278e78c2c4d9bb3E
libclamav.so.11:_ZN5image5image8Progress9remaining17hc5b1fbd756b65aa1E
libclamav.so.11:_ZN5image5utils24check_dimension_overflow17h0193dfb8509bc99dE
libclamav.so.11:_ZN5image6codecs3bmp7decoder123_$LT$impl$u20$core..convert..From$LT$image..codecs..bmp..decoder..DecoderError$GT$$u20$for$u20$image..error..ImageError$GT$4from17h78a6add63aacd682E
libclamav.so.11:_ZN5image6codecs3bmp7decoder13extend_buffer17hf44e9869ee7d7b20E
libclamav.so.11:_ZN5image6codecs3bmp7decoder18check_for_overflow17h0138561697e44dc9E
libclamav.so.11:_ZN5image6codecs3bmp7decoder8Bitfield4read17h656d33a8342c94ddE
libclamav.so.11:_ZN5image6codecs3bmp7decoder9Bitfields9from_mask17hef81b3b49262083bE
libclamav.so.11:_ZN5image6codecs3bmp7decoder9num_bytes17h96be22530d1f5afbE
libclamav.so.11:_ZN5image6codecs3bmp7encoder14get_pixel_info17hde43d64cb0b483ddE
libclamav.so.11:_ZN5image6codecs3bmp7encoder29get_unsupported_error_message17hd8cbd0c137daa010E
libclamav.so.11:_ZN5image6codecs3dds10DX10Header11from_reader17h01d05ae4034c8688E
libclamav.so.11:_ZN5image6codecs3dds114_$LT$impl$u20$core..convert..From$LT$image..codecs..dds..DecoderError$GT$$u20$for$u20$image..error..ImageError$GT$4from17h06fb113f7e41a04dE
libclamav.so.11:_ZN5image6codecs3dds6Header11from_reader17h50bc04f0a9d63f61E
libclamav.so.11:_ZN5image6codecs3dxt10DxtVariant10color_type17h45671413360dd93aE
libclamav.so.11:_ZN5image6codecs3dxt10DxtVariant23decoded_bytes_per_block17h2eb46691fb849bf8E
libclamav.so.11:_ZN5image6codecs3dxt10DxtVariant23encoded_bytes_per_block17h367ad7605cfe0706E
libclamav.so.11:_ZN5image6codecs3dxt15decode_dxt1_row17h0ed261a8eaa69c31E
libclamav.so.11:_ZN5image6codecs3dxt15decode_dxt3_row17h3e916a2aedbef426E
libclamav.so.11:_ZN5image6codecs3dxt15decode_dxt5_row17h02c045905c46c2b4E
libclamav.so.11:_ZN5image6codecs3dxt15encode_dxt1_row17hc702a17ceeda7042E
libclamav.so.11:_ZN5image6codecs3dxt15encode_dxt3_row17hd046432eefbc84b9E
libclamav.so.11:_ZN5image6codecs3dxt15encode_dxt5_row17h27261e80fee73332E
libclamav.so.11:_ZN5image6codecs3gif19GifEncoder$LT$W$GT$14gif_dimensions16inner_dimensions17h2e083cce6270b787E
libclamav.so.11:_ZN5image6codecs3gif42_$LT$impl$u20$image..error..ImageError$GT$13from_decoding17h647c1114b441d4d0E
libclamav.so.11:_ZN5image6codecs3gif42_$LT$impl$u20$image..error..ImageError$GT$13from_encoding17h804a9f8f63b737fbE
libclamav.so.11:_ZN5image6codecs3gif6Repeat11to_gif_enum17hc00394487f008252E
libclamav.so.11:_ZN5image6codecs3gif9FrameInfo14new_from_frame17h2f70d8b01de451a8E
libclamav.so.11:_ZN5image6codecs3hdr7decoder11HdrMetadata18update_header_info17h6c1a9cd70dccf167E
libclamav.so.11:_ZN5image6codecs3hdr7decoder11HdrMetadata3new17h00a7fd88d3f2d2cdE
libclamav.so.11:_ZN5image6codecs3hdr7decoder123_$LT$impl$u20$core..convert..From$LT$image..codecs..hdr..decoder..DecoderError$GT$$u20$for$u20$image..error..ImageError$GT$4from17h4a558730a45c228aE
libclamav.so.11:_ZN5image6codecs3hdr7decoder21parse_dimensions_line17h9e4ffe0994fb6615E
libclamav.so.11:_ZN5image6codecs3hdr7decoder5rgbe817hada769e31867a7f8E
libclamav.so.11:_ZN5image6codecs3hdr7encoder12rle_compress17h63a158026d844dccE
libclamav.so.11:_ZN5image6codecs3hdr7encoder8to_rgbe817h6d95c3a2b32a191aE
libclamav.so.11:_ZN5image6codecs3ico7decoder10best_entry17h35cd36ccccb45506E
libclamav.so.11:_ZN5image6codecs3ico7decoder123_$LT$impl$u20$core..convert..From$LT$image..codecs..ico..decoder..DecoderError$GT$$u20$for$u20$image..error..ImageError$GT$4from17h6a50a41e25436aa1E
libclamav.so.11:_ZN5image6codecs3ico7decoder8DirEntry10real_width17h6de7ad5795967e46E
libclamav.so.11:_ZN5image6codecs3ico7decoder8DirEntry11real_height17h2483e36f6ffb7de6E
libclamav.so.11:_ZN5image6codecs3ico7decoder8DirEntry18matches_dimensions17h2f826bde59de7fddE
libclamav.so.11:_ZN5image6codecs3ico7encoder8IcoFrame6as_png17hd8ad196a6606fb66E
libclamav.so.11:_ZN5image6codecs3png17unsupported_color17h7a106073b7cc9675E
libclamav.so.11:_ZN5image6codecs3png42_$LT$impl$u20$image..error..ImageError$GT$8from_png17hd3e1ecc076ff46b3E
libclamav.so.11:_ZN5image6codecs3pnm6header10PnmSubtype14magic_constant17hb0e2f88b2d71cac1E
libclamav.so.11:_ZN5image6codecs3pnm6header10PnmSubtype15sample_encoding17he9053ac2bbf778c5E
libclamav.so.11:_ZN5image6codecs3pnm6header9PnmHeader10as_graymap17ha0031689da566aaeE
libclamav.so.11:_ZN5image6codecs3pnm6header9PnmHeader12as_arbitrary17hc0872153e96bfd71E
libclamav.so.11:_ZN5image6codecs3pnm6header9PnmHeader14maximal_sample17h75e205e5975be95cE
libclamav.so.11:_ZN5image6codecs3pnm6header9PnmHeader5width17h049d6b2a7f6dffbfE
libclamav.so.11:_ZN5image6codecs3pnm6header9PnmHeader5write17hfcf7b4b54d1498c8E
libclamav.so.11:_ZN5image6codecs3pnm6header9PnmHeader6height17h76bd1171d57518d3E
libclamav.so.11:_ZN5image6codecs3pnm6header9PnmHeader7subtype17hfc58931cd2b8468fE
libclamav.so.11:_ZN5image6codecs3pnm6header9PnmHeader9as_bitmap17h0397a440070461e4E
libclamav.so.11:_ZN5image6codecs3pnm6header9PnmHeader9as_pixmap17hb273a93af3e41b8cE
libclamav.so.11:_ZN5image6codecs3pnm7decoder123_$LT$impl$u20$core..convert..From$LT$image..codecs..pnm..decoder..DecoderError$GT$$u20$for$u20$image..error..ImageError$GT$4from17h8506e810a205d1c1E
libclamav.so.11:_ZN5image6codecs3pnm7decoder12HeaderReader21read_arbitrary_header23parse_single_value_line17h2ad2f0a89c19b9e2E
libclamav.so.11:_ZN5image6codecs3pnm7encoder13CheckedHeader12write_header17h251b0b8ec4fc8174E
libclamav.so.11:_ZN5image6codecs3pnm7encoder13TupleEncoding11write_image17h47952b895c35ce50E
libclamav.so.11:_ZN5image6codecs3pnm7encoder15UncheckedHeader23check_header_dimensions17hec057af7db97a70aE
libclamav.so.11:_ZN5image6codecs3pnm7encoder17CheckedDimensions18check_header_color17h71a7fd286fbcf59bE
libclamav.so.11:_ZN5image6codecs3pnm7encoder18CheckedHeaderColor19check_sample_values17hb5d5a9be1f8de435E
libclamav.so.11:_ZN5image6codecs3tga6header6Header11from_reader17hf147422d42ccc476E
libclamav.so.11:_ZN5image6codecs3tga6header6Header15from_pixel_info17hd34f9a2825e35460E
libclamav.so.11:_ZN5image6codecs3tga6header6Header8write_to17heda931761c24d1b4E
libclamav.so.11:_ZN5image6codecs3tga6header9ImageType10is_encoded17h9da0347c06ce9919E
libclamav.so.11:_ZN5image6codecs3tga6header9ImageType15is_color_mapped17h30a21b281564ca93E
libclamav.so.11:_ZN5image6codecs3tga6header9ImageType3new17h06e63381a8c00508E
libclamav.so.11:_ZN5image6codecs3tga6header9ImageType8is_color17h0f4ccf9819650cf8E
libclamav.so.11:_ZN5image6codecs3tga7decoder8ColorMap11from_reader17h039023de14b2805dE
libclamav.so.11:_ZN5image6codecs3tga7decoder8ColorMap3get17hb0886c057321df53E
libclamav.so.11:_ZN5image6codecs3tga7encoder123_$LT$impl$u20$core..convert..From$LT$image..codecs..tga..encoder..EncoderError$GT$$u20$for$u20$image..error..ImageError$GT$4from17hfccd44153c5d5ea7E
libclamav.so.11:_ZN5image6codecs4jpeg7decoder11cmyk_to_rgb17hbf38a00e91aa87b1E
libclamav.so.11:_ZN5image6codecs4jpeg7decoder41_$LT$impl$u20$image..color..ColorType$GT$9from_jpeg17h0276224fcd4dd783E
libclamav.so.11:_ZN5image6codecs4jpeg7decoder42_$LT$impl$u20$image..error..ImageError$GT$9from_jpeg17he6172c7b996acbd3E
libclamav.so.11:_ZN5image6codecs4jpeg7encoder12PixelDensity3dpi17hb3858be45978c135E
libclamav.so.11:_ZN5image6codecs4jpeg7encoder17build_jfif_header17ha221c3fe7fb77384E
libclamav.so.11:_ZN5image6codecs4jpeg7encoder17build_scan_header17hfda2655b9dd018f0E
libclamav.so.11:_ZN5image6codecs4jpeg7encoder18build_frame_header17hd94429c533986f03E
libclamav.so.11:_ZN5image6codecs4jpeg7encoder18encode_coefficient17h47337ab781e731a8E
libclamav.so.11:_ZN5image6codecs4jpeg7encoder21build_huffman_segment17h65dd60b6955d7db1E
libclamav.so.11:_ZN5image6codecs4jpeg7encoder26build_quantization_segment17hc9f95b3625b721c7E
libclamav.so.11:_ZN5image6codecs4jpeg9transform4fdct17h356d3e4c31c32d08E
libclamav.so.11:_ZN5image6codecs4tiff15u8_slice_as_u1617h01d96a59b194887aE
libclamav.so.11:_ZN5image6codecs4tiff19check_sample_format17haae0b15e8b7e7777E
libclamav.so.11:_ZN5image6codecs4tiff22err_unknown_color_type17h6144091223cedf2cE
libclamav.so.11:_ZN5image6codecs4tiff42_$LT$impl$u20$image..error..ImageError$GT$16from_tiff_decode17hbaae7579aecd1ff5E
libclamav.so.11:_ZN5image6codecs4tiff42_$LT$impl$u20$image..error..ImageError$GT$16from_tiff_encode17hd891f63a1e449a2eE
libclamav.so.11:_ZN5image6codecs4webp11loop_filter14simple_segment17he722106c7527595bE
libclamav.so.11:_ZN5image6codecs4webp11loop_filter15subblock_filter17hab5bd1b9204e6dcbE
libclamav.so.11:_ZN5image6codecs4webp11loop_filter17macroblock_filter17h91d835b1443f1a52E
libclamav.so.11:_ZN5image6codecs4webp18lossless_transform10add_pixels17h809edfee2a13b9ddE
libclamav.so.11:_ZN5image6codecs4webp18lossless_transform13TransformType15apply_transform17hdb183611b257b4e5E
libclamav.so.11:_ZN5image6codecs4webp3vp810BoolReader12read_literal17h630ab0a2edde6f39E
libclamav.so.11:_ZN5image6codecs4webp3vp810BoolReader14read_with_tree17h30209cd9e7069e07E
libclamav.so.11:_ZN5image6codecs4webp3vp810BoolReader23read_magnitude_and_sign17h9eb79fc220d5d485E
libclamav.so.11:_ZN5image6codecs4webp3vp810BoolReader3new17h3fcf8421188d5243E
libclamav.so.11:_ZN5image6codecs4webp3vp810BoolReader4init17h03724ea3b0548bd3E
libclamav.so.11:_ZN5image6codecs4webp3vp810BoolReader9read_bool17h320cff0e67e4b221E
libclamav.so.11:_ZN5image6codecs4webp3vp810BoolReader9read_flag17ha7ad1cc3461898acE
libclamav.so.11:_ZN5image6codecs4webp3vp810ChromaMode7from_i817h97c8e34d08be414cE
libclamav.so.11:_ZN5image6codecs4webp3vp811add_residue17hcf90a0ee161c4699E
libclamav.so.11:_ZN5image6codecs4webp3vp811predict_4x417h3d89f83d8dbf2877E
libclamav.so.11:_ZN5image6codecs4webp3vp8120_$LT$impl$u20$core..convert..From$LT$image..codecs..webp..vp8..DecoderError$GT$$u20$for$u20$image..error..ImageError$GT$4from17h4a4ea17c8b016cd4E
libclamav.so.11:_ZN5image6codecs4webp3vp813predict_hpred17hdf5ca6d3a42045c7E
libclamav.so.11:_ZN5image6codecs4webp3vp813predict_vpred17ha1ba182da7c8056cE
libclamav.so.11:_ZN5image6codecs4webp3vp814predict_dcpred17ha130e84170640ccfE
libclamav.so.11:_ZN5image6codecs4webp3vp814predict_tmpred17h6af8cbac7c6a69d4E
libclamav.so.11:_ZN5image6codecs4webp3vp818create_border_luma17h551940ee4516ad7fE
libclamav.so.11:_ZN5image6codecs4webp3vp819Vp8Decoder$LT$R$GT$25read_quantization_indices8ac_quant17h471aef7bf9d91ff4E
libclamav.so.11:_ZN5image6codecs4webp3vp819Vp8Decoder$LT$R$GT$25read_quantization_indices8dc_quant17h7656c0edb2afb426E
libclamav.so.11:_ZN5image6codecs4webp3vp820init_top_macroblocks17h0b4ba297ed947673E
libclamav.so.11:_ZN5image6codecs4webp3vp85Frame12chroma_width17h0c284762e1c9c670E
libclamav.so.11:_ZN5image6codecs4webp3vp85Frame12get_buf_size17hc4e5057ffbdfb3b8E
libclamav.so.11:_ZN5image6codecs4webp3vp85Frame13chroma_height17hf6abdd5647bee358E
libclamav.so.11:_ZN5image6codecs4webp3vp85Frame8fill_rgb17hdfd649e6564ba487E
libclamav.so.11:_ZN5image6codecs4webp3vp88LumaMode10into_intra17h0ecc25ece038b164E
libclamav.so.11:_ZN5image6codecs4webp3vp88LumaMode7from_i817h96a61b321f5f0d2aE
libclamav.so.11:_ZN5image6codecs4webp3vp89IntraMode7from_i817had0be967f7c91d43E
libclamav.so.11:_ZN5image6codecs4webp7decoder124_$LT$impl$u20$core..convert..From$LT$image..codecs..webp..decoder..DecoderError$GT$$u20$for$u20$image..error..ImageError$GT$4from17hc963d618b1fdcdc6E
libclamav.so.11:_ZN5image6codecs4webp7decoder13WebPRiffChunk11from_fourcc17h65ddeda2706a2dd1E
libclamav.so.11:_ZN5image6codecs4webp7decoder13WebPRiffChunk9to_fourcc17hed91fc3d245caf61E
libclamav.so.11:_ZN5image6codecs4webp7huffman11HuffmanTree11read_symbol17h760b73c679f1bf12E
libclamav.so.11:_ZN5image6codecs4webp7huffman11HuffmanTree14build_explicit17h347d802ff924efefE
libclamav.so.11:_ZN5image6codecs4webp7huffman11HuffmanTree14build_implicit17hed9bab8b0f23c687E
libclamav.so.11:_ZN5image6codecs4webp8extended10WebPStatic10from_lossy17hc393f039f29af823E
libclamav.so.11:_ZN5image6codecs4webp8extended10WebPStatic16from_alpha_lossy17h00f717dcd44479e2E
libclamav.so.11:_ZN5image6codecs4webp8extended10read_lossy17haae74cc1a1b702a4E
libclamav.so.11:_ZN5image6codecs4webp8extended125_$LT$impl$u20$core..convert..From$LT$image..codecs..webp..extended..DecoderError$GT$$u20$for$u20$image..error..ImageError$GT$4from17hbb184b5ef7a8d8d0E
libclamav.so.11:_ZN5image6codecs4webp8extended13ExtendedImage10color_type17h358b18f34f732f31E
libclamav.so.11:_ZN5image6codecs4webp8extended13ExtendedImage10dimensions17h2ecc4b6d702586b3E
libclamav.so.11:_ZN5image6codecs4webp8extended13ExtendedImage11into_frames17h075bde2472c4c8d9E
libclamav.so.11:_ZN5image6codecs4webp8extended13ExtendedImage12get_buf_size17h7cfc68e07003758fE
libclamav.so.11:_ZN5image6codecs4webp8extended13ExtendedImage8fill_buf17h7434c249ac97ca8dE
libclamav.so.11:_ZN5image6codecs4webp8lossless10ColorCache6insert17h6ef05fe7fc6d0370E
libclamav.so.11:_ZN5image6codecs4webp8lossless10ColorCache6lookup17h5693676b6ad76de4E
libclamav.so.11:_ZN5image6codecs4webp8lossless11HuffmanInfo14get_huff_index17hca845ed3d8f92cfbE
libclamav.so.11:_ZN5image6codecs4webp8lossless125_$LT$impl$u20$core..convert..From$LT$image..codecs..webp..lossless..DecoderError$GT$$u20$for$u20$image..error..ImageError$GT$4from17hbcf39407b38d5da7E
libclamav.so.11:_ZN5image6codecs4webp8lossless13LosslessFrame10fill_green17h6eee4b1d8309a1c1E
libclamav.so.11:_ZN5image6codecs4webp8lossless13LosslessFrame12get_buf_size17h1660313f6f4fb129E
libclamav.so.11:_ZN5image6codecs4webp8lossless13LosslessFrame9fill_rgba17ha77264d461e25365E
libclamav.so.11:_ZN5image6codecs4webp8lossless9BitReader3new17hcdbecb03562f629fE
libclamav.so.11:_ZN5image6codecs4webp8lossless9BitReader4init17hedad6a796d54437fE
libclamav.so.11:_ZN5image6codecs4webp9transform7idct4x417h28e7ca3b4e2745beE
libclamav.so.11:_ZN5image6codecs4webp9transform7iwht4x417hd530536a6cc6e00eE
libclamav.so.11:_ZN5image6codecs7openexr12to_image_err17h31701b11d626d044E
libclamav.so.11:_ZN5image7buffer_75ImageBuffer$LT$image..color..Luma$LT$u8$GT$$C$alloc..vec..Vec$LT$u8$GT$$GT$14expand_palette17hb9c775a875d1af95E
libclamav.so.11:_ZN5image8dynimage12DynamicImage10as_rgba32f17h7cb9746862742b1aE
libclamav.so.11:_ZN5image8dynimage12DynamicImage10into_bytes17hd24865f0573545d0E
libclamav.so.11:_ZN5image8dynimage12DynamicImage10into_luma817h101c9e8f5913b7e7E
libclamav.so.11:_ZN5image8dynimage12DynamicImage10into_rgb1617h72ad549eaee4b0caE
libclamav.so.11:_ZN5image8dynimage12DynamicImage10into_rgba817hf11c3bda8d4f619aE
libclamav.so.11:_ZN5image8dynimage12DynamicImage10new_luma1617h9c429bcfeae8e2a4E
libclamav.so.11:_ZN5image8dynimage12DynamicImage10new_rgb32f17h664fb2f8e51f9c24E
libclamav.so.11:_ZN5image8dynimage12DynamicImage10new_rgba1617h8bd2275849be88e4E
libclamav.so.11:_ZN5image8dynimage12DynamicImage10to_luma32f17h73aed54055522e98E
libclamav.so.11:_ZN5image8dynimage12DynamicImage10to_rgba32f17hd3979d8106357ec0E
libclamav.so.11:_ZN5image8dynimage12DynamicImage11as_mut_rgb817hd2f0e16022cbd319E
libclamav.so.11:_ZN5image8dynimage12DynamicImage11inner_bytes17h756d8c2f86d07c05E
libclamav.so.11:_ZN5image8dynimage12DynamicImage11into_luma1617hc9bda9ad5f2d9c97E
libclamav.so.11:_ZN5image8dynimage12DynamicImage11into_rgb32f17h41e78a37a013786eE
libclamav.so.11:_ZN5image8dynimage12DynamicImage11into_rgba1617he2243393c08f5bb8E
libclamav.so.11:_ZN5image8dynimage12DynamicImage11new_luma_a817h58e801537b2648f7E
libclamav.so.11:_ZN5image8dynimage12DynamicImage11new_rgba32f17h0e335a3d4ef67258E
libclamav.so.11:_ZN5image8dynimage12DynamicImage12as_mut_luma817h35e20f9994d9863eE
libclamav.so.11:_ZN5image8dynimage12DynamicImage12as_mut_rgb1617hdd7cb258a36aa5a9E
libclamav.so.11:_ZN5image8dynimage12DynamicImage12as_mut_rgba817hfc6f9d85f699446fE
libclamav.so.11:_ZN5image8dynimage12DynamicImage12into_rgba32f17h696b8f721d7fed38E
libclamav.so.11:_ZN5image8dynimage12DynamicImage12new_luma_a1617h6b28cfc7cca2ed52E
libclamav.so.11:_ZN5image8dynimage12DynamicImage12resize_exact17h97acf5da9d0870bbE
libclamav.so.11:_ZN5image8dynimage12DynamicImage13as_mut_luma1617h8bbab3c3bf0d6140E
libclamav.so.11:_ZN5image8dynimage12DynamicImage13as_mut_rgb32f17he7abf1aa17a56becE
libclamav.so.11:_ZN5image8dynimage12DynamicImage13as_mut_rgba1617hcf36b04dc02e5d86E
libclamav.so.11:_ZN5image8dynimage12DynamicImage14as_luma_alpha817ha926f9d7bff64592E
libclamav.so.11:_ZN5image8dynimage12DynamicImage14as_mut_rgba32f17h501bd46cd59eb7f5E
libclamav.so.11:_ZN5image8dynimage12DynamicImage14resize_to_fill17h80437704c6d05b45E
libclamav.so.11:_ZN5image8dynimage12DynamicImage14to_luma_alpha817h2cc6590bd913b588E
libclamav.so.11:_ZN5image8dynimage12DynamicImage15adjust_contrast17h51242cea889e4bd7E
libclamav.so.11:_ZN5image8dynimage12DynamicImage15as_luma_alpha1617h9986f71105015e4dE
libclamav.so.11:_ZN5image8dynimage12DynamicImage15thumbnail_exact17h88c0175ceff14242E
libclamav.so.11:_ZN5image8dynimage12DynamicImage15to_luma_alpha1617h8a043c70abb59a85E
libclamav.so.11:_ZN5image8dynimage12DynamicImage16into_luma_alpha817h18d677d0b1d66f6fE
libclamav.so.11:_ZN5image8dynimage12DynamicImage16to_luma_alpha32f17hc34e2344a5c23ab5E
libclamav.so.11:_ZN5image8dynimage12DynamicImage17into_luma_alpha1617h21d79e87c119d151E
libclamav.so.11:_ZN5image8dynimage12DynamicImage18as_flat_samples_u817hc2b65702934e34bdE
libclamav.so.11:_ZN5image8dynimage12DynamicImage18as_mut_luma_alpha817h0fe0e30302a60268E
libclamav.so.11:_ZN5image8dynimage12DynamicImage19as_flat_samples_f3217hec1e4711b979e6e9E
libclamav.so.11:_ZN5image8dynimage12DynamicImage19as_flat_samples_u1617h2b7f8bc6f05cb337E
libclamav.so.11:_ZN5image8dynimage12DynamicImage19as_mut_luma_alpha1617hfa417b093efd66cfE
libclamav.so.11:_ZN5image8dynimage12DynamicImage4blur17hdf94fe9788606603E
libclamav.so.11:_ZN5image8dynimage12DynamicImage4crop17h03f0d2d824f4118bE
libclamav.so.11:_ZN5image8dynimage12DynamicImage5color17h25b0d60784d0275aE
libclamav.so.11:_ZN5image8dynimage12DynamicImage5fliph17h32c23e781b5d750aE
libclamav.so.11:_ZN5image8dynimage12DynamicImage5flipv17hfde4ffc76b5a368eE
libclamav.so.11:_ZN5image8dynimage12DynamicImage5width17hcf685e8aaae4de0bE
libclamav.so.11:_ZN5image8dynimage12DynamicImage6height17he3034f6c65fd1557E
libclamav.so.11:_ZN5image8dynimage12DynamicImage6invert17h585180d61ade336dE
libclamav.so.11:_ZN5image8dynimage12DynamicImage6resize17h95d83a5d1e97fc23E
libclamav.so.11:_ZN5image8dynimage12DynamicImage7as_rgb817hb203e745a6a03a50E
libclamav.so.11:_ZN5image8dynimage12DynamicImage7to_rgb817hdf4824db5c143295E
libclamav.so.11:_ZN5image8dynimage12DynamicImage8as_bytes17h2576f49998ab487eE
libclamav.so.11:_ZN5image8dynimage12DynamicImage8as_luma817hc6c8cb386a110ac7E
libclamav.so.11:_ZN5image8dynimage12DynamicImage8as_rgb1617h470f5902e5d79076E
libclamav.so.11:_ZN5image8dynimage12DynamicImage8as_rgba817h79d60d00996b80b8E
libclamav.so.11:_ZN5image8dynimage12DynamicImage8brighten17h7370ebdfe1148e3bE
libclamav.so.11:_ZN5image8dynimage12DynamicImage8crop_imm17h13e497c4c9870166E
libclamav.so.11:_ZN5image8dynimage12DynamicImage8new_rgb817h32cf2f0ee254dd8dE
libclamav.so.11:_ZN5image8dynimage12DynamicImage8rotate9017h2bf617295321317aE
libclamav.so.11:_ZN5image8dynimage12DynamicImage8to_bytes17h6e6ead83aa6d126fE
libclamav.so.11:_ZN5image8dynimage12DynamicImage8to_luma817h1038cb04e2f55637E
libclamav.so.11:_ZN5image8dynimage12DynamicImage8to_rgb1617h5726610f994ee371E
libclamav.so.11:_ZN5image8dynimage12DynamicImage8to_rgba817hfd64f79cb99e7a26E
libclamav.so.11:_ZN5image8dynimage12DynamicImage9as_luma1617h6fa1045807483030E
libclamav.so.11:_ZN5image8dynimage12DynamicImage9as_rgb32f17h2b57b72cc87d7889E
libclamav.so.11:_ZN5image8dynimage12DynamicImage9as_rgba1617hf3d3bca694339cccE
libclamav.so.11:_ZN5image8dynimage12DynamicImage9filter3x317h4a6619edf8aaa52bE
libclamav.so.11:_ZN5image8dynimage12DynamicImage9grayscale17hb00048317d3aa4e4E
libclamav.so.11:_ZN5image8dynimage12DynamicImage9huerotate17h6d7fd857eecdd78eE
libclamav.so.11:_ZN5image8dynimage12DynamicImage9into_rgb817h1cee526dfadad1bbE
libclamav.so.11:_ZN5image8dynimage12DynamicImage9new_luma817h7771546e5454cbb3E
libclamav.so.11:_ZN5image8dynimage12DynamicImage9new_rgb1617hb0e0548e3c2ee7f6E
libclamav.so.11:_ZN5image8dynimage12DynamicImage9new_rgba817h21e5f6606cc90802E
libclamav.so.11:_ZN5image8dynimage12DynamicImage9rotate18017h36e2a99426aa8b32E
libclamav.so.11:_ZN5image8dynimage12DynamicImage9rotate27017h40a972d78a8844b1E
libclamav.so.11:_ZN5image8dynimage12DynamicImage9thumbnail17hf04cb7bfeb7b2d36E
libclamav.so.11:_ZN5image8dynimage12DynamicImage9to_luma1617hf9260120e5ce5d7cE
libclamav.so.11:_ZN5image8dynimage12DynamicImage9to_rgb32f17h27d5fcdce00f4530E
libclamav.so.11:_ZN5image8dynimage12DynamicImage9to_rgba1617h124c864f24521d30E
libclamav.so.11:_ZN5image8dynimage12DynamicImage9unsharpen17heffb38633e62567bE
libclamav.so.11:_ZN5image8dynimage16load_from_memory17h2def91e18939b296E
libclamav.so.11:_ZN5image8imageops14overlay_bounds17h91a4b973cfdb3cb2E
libclamav.so.11:_ZN5image8imageops18overlay_bounds_ext17ha324ad696b0009e0E
libclamav.so.11:_ZN5image8imageops6sample10box_kernel17h9ff05dbc86ad46eeE
libclamav.so.11:_ZN5image8imageops6sample15gaussian_kernel17he1b69c8b16a2b853E
libclamav.so.11:_ZN5image8imageops6sample15lanczos3_kernel17hbbe1a917d02b970bE
libclamav.so.11:_ZN5image8imageops6sample15triangle_kernel17ha0bc022bb1a6a3c5E
libclamav.so.11:_ZN5image8imageops6sample17catmullrom_kernel17hce317627ffe3d9a6E
libclamav.so.11:_ZN5image8imageops6sample8gaussian17h51a062af1197538dE
libclamav.so.11:_ZN5image9animation101_$LT$impl$u20$core..convert..From$LT$image..animation..Delay$GT$$u20$for$u20$core..time..Duration$GT$4from17h582993173a239d65E
libclamav.so.11:_ZN5image9animation5Delay10from_ratio17h115710a527fab798E
libclamav.so.11:_ZN5image9animation5Delay10into_ratio17h90b856efa536fdebE
libclamav.so.11:_ZN5image9animation5Delay14numer_denom_ms17h3db8cf75cecbdeafE
libclamav.so.11:_ZN5image9animation5Delay19from_numer_denom_ms17h0f21980a4c7c3392E
libclamav.so.11:_ZN5image9animation5Delay24from_saturating_duration17h1e8ddf59d082ff12E
libclamav.so.11:_ZN5image9animation5Frame10buffer_mut17h667dabc216c99bacE
libclamav.so.11:_ZN5image9animation5Frame10from_parts17h0af3bf5369d655d5E
libclamav.so.11:_ZN5image9animation5Frame11into_buffer17h6d4ff1503a27923bE
libclamav.so.11:_ZN5image9animation5Frame3new17hd756db3412037adeE
libclamav.so.11:_ZN5image9animation5Frame3top17hd3c318e58d44ba7eE
libclamav.so.11:_ZN5image9animation5Frame4left17h583c85f4dc0905abE
libclamav.so.11:_ZN5image9animation5Frame5delay17h04d12c11dadef322E
libclamav.so.11:_ZN5image9animation5Frame6buffer17h7781b5e706fa2f20E
libclamav.so.11:_ZN5image9animation6Frames14collect_frames17h4e6a4c23509442a6E
libclamav.so.11:_ZN5image9animation6Frames3new17he6e5e75ad548094dE
libclamav.so.11:_ZN5weezl6decode5Table11reconstruct17h6a8f278843d435feE
libclamav.so.11:_ZN5weezl6decode5Table2at17he731c2933d3159f8E
libclamav.so.11:_ZN5weezl6decode5Table4init17h0d3b01a293f41c2eE
libclamav.so.11:_ZN5weezl6decode5Table5clear17h32cc663b9b5ae6f8E
libclamav.so.11:_ZN5weezl6decode5Table6derive17hbfc7982e81bd8186E
libclamav.so.11:_ZN5weezl6decode5Table7is_full17he4d60e7c911731b4E
libclamav.so.11:_ZN5weezl6decode5Table8is_empty17h5e6475e91ab00268E
libclamav.so.11:_ZN5weezl6decode6Buffer10fill_cscsc17h0e5613e9b49e7394E
libclamav.so.11:_ZN5weezl6decode6Buffer16fill_reconstruct17h54ee16532cdd9c1dE
libclamav.so.11:_ZN5weezl6decode6Buffer6buffer17h96eeb8d386c950b1E
libclamav.so.11:_ZN5weezl6decode6Buffer7consume17h7f8fde8709f1fd0fE
libclamav.so.11:_ZN5weezl6decode7Decoder12decode_bytes17h0b707ffecdc9b103E
libclamav.so.11:_ZN5weezl6decode7Decoder21with_tiff_size_switch17he1c0103d3233f489E
libclamav.so.11:_ZN5weezl6decode7Decoder3new17hcd3c6e2b0e9ba0e8E
libclamav.so.11:_ZN5weezl6decode7Decoder5reset17hab2aef173c76f6ddE
libclamav.so.11:_ZN5weezl6decode7Decoder6decode17h3933c8e30e79ea39E
libclamav.so.11:_ZN5weezl6decode7Decoder8into_vec17h32b237204afb0bf6E
libclamav.so.11:_ZN5weezl6decode7Decoder9has_ended17he1f4cce66d9d3f16E
libclamav.so.11:_ZN5weezl6decode7IntoVec10decode_all17hf69feca6a7b2912eE
libclamav.so.11:_ZN5weezl6decode7IntoVec6decode17he2e93437d6d3b871E
libclamav.so.11:_ZN5weezl6encode4Tree5reset17h6fc8d60c264bfccaE
libclamav.so.11:_ZN5weezl6encode4Tree7iterate17h62fce789e9e0dc2eE
libclamav.so.11:_ZN5weezl6encode7Encoder12encode_bytes17h413d71bbfd59e3a9E
libclamav.so.11:_ZN5weezl6encode7Encoder21with_tiff_size_switch17h90f0f958f16a776eE
libclamav.so.11:_ZN5weezl6encode7Encoder3new17hc09c42c4c69ae75dE
libclamav.so.11:_ZN5weezl6encode7Encoder5reset17h5ca2c19c712d41dcE
libclamav.so.11:_ZN5weezl6encode7Encoder6encode17hfdb2d2a7dd535be6E
libclamav.so.11:_ZN5weezl6encode7Encoder6finish17h0303ab6e39090589E
libclamav.so.11:_ZN5weezl6encode7Encoder8into_vec17hc3fff43621b9c1e0E
libclamav.so.11:_ZN5weezl6encode7IntoVec10encode_all17h7b2aba337f491d5bE
libclamav.so.11:_ZN5weezl6encode7IntoVec6encode17h7e9588299c833097E
libclamav.so.11:_ZN60_$LT$alloc..string..String$u20$as$u20$core..clone..Clone$GT$10clone_from17h3e3122cf08cf7ea8E
libclamav.so.11:_ZN60_$LT$alloc..string..String$u20$as$u20$core..clone..Clone$GT$5clone17hf102ec732d2b9fc8E
libclamav.so.11:_ZN60_$LT$core..alloc..AllocError$u20$as$u20$core..fmt..Debug$GT$3fmt17h4fa4fd2a08e17432E
libclamav.so.11:_ZN60_$LT$core..cell..BorrowError$u20$as$u20$core..fmt..Debug$GT$3fmt17h9185ad0636273a06E
libclamav.so.11:_ZN60_$LT$core..char..EscapeDebug$u20$as$u20$core..fmt..Debug$GT$3fmt17h51f5864cd473990fE
libclamav.so.11:_ZN60_$LT$core..char..ToLowercase$u20$as$u20$core..fmt..Debug$GT$3fmt17h363741854ce9dc2dE
libclamav.so.11:_ZN60_$LT$core..char..ToUppercase$u20$as$u20$core..fmt..Debug$GT$3fmt17h42d493a10cd0b268E
libclamav.so.11:_ZN60_$LT$core..convert..Infallible$u20$as$u20$core..cmp..Ord$GT$3cmp17h9143d50a398ae096E
libclamav.so.11:_ZN60_$LT$core..str..lossy..Debug$u20$as$u20$core..fmt..Debug$GT$3fmt17hda0fd93678f99388E
libclamav.so.11:_ZN60_$LT$core..task..wake..Waker$u20$as$u20$core..fmt..Debug$GT$3fmt17h587ab422b556996eE
libclamav.so.11:_ZN60_$LT$crc32fast..Hasher$u20$as$u20$core..default..Default$GT$7default17hde27e4faf3758098E
libclamav.so.11:_ZN60_$LT$exr..image..FlatSamples$u20$as$u20$core..fmt..Debug$GT$3fmt17h35eaa67fb191b2a3E
libclamav.so.11:_ZN60_$LT$exr..math..RoundingMode$u20$as$u20$core..fmt..Debug$GT$3fmt17he59b3906c40bb2e8E
libclamav.so.11:_ZN60_$LT$exr..meta..Requirements$u20$as$u20$core..fmt..Debug$GT$3fmt17h53061f846ff982bfE
libclamav.so.11:_ZN60_$LT$f32$u20$as$u20$tiff..encoder..tiff_value..TiffValue$GT$4data17hc03b4ca5e70f451dE
libclamav.so.11:_ZN60_$LT$f32$u20$as$u20$tiff..encoder..tiff_value..TiffValue$GT$5count17hfa01a4c40c6ef4f3E
libclamav.so.11:_ZN60_$LT$f64$u20$as$u20$tiff..encoder..tiff_value..TiffValue$GT$4data17h89b1cf67f9d77d69E
libclamav.so.11:_ZN60_$LT$f64$u20$as$u20$tiff..encoder..tiff_value..TiffValue$GT$5count17h9551c28192941819E
libclamav.so.11:_ZN60_$LT$flate2..mem..Decompress$u20$as$u20$core..fmt..Debug$GT$3fmt17hcfe386cb45b5341fE
libclamav.so.11:_ZN60_$LT$flate2..mem..Decompress$u20$as$u20$flate2..zio..Ops$GT$3run17h0b4c1bcc3a2439a5E
libclamav.so.11:_ZN60_$LT$flate2..mem..Decompress$u20$as$u20$flate2..zio..Ops$GT$7run_vec17hef9609909d2fe625E
libclamav.so.11:_ZN60_$LT$flate2..mem..Decompress$u20$as$u20$flate2..zio..Ops$GT$8total_in17h1c189ea0eb84378fE
libclamav.so.11:_ZN60_$LT$flate2..mem..Decompress$u20$as$u20$flate2..zio..Ops$GT$9total_out17h548db79f7dbe3e8dE
libclamav.so.11:_ZN60_$LT$flume..RecvTimeoutError$u20$as$u20$core..fmt..Debug$GT$3fmt17hb7cac23fbac8db72E
libclamav.so.11:_ZN60_$LT$gimli..common..Encoding$u20$as$u20$core..fmt..Debug$GT$3fmt17h69b5ade0063044acE
libclamav.so.11:_ZN60_$LT$gimli..common..Register$u20$as$u20$core..fmt..Debug$GT$3fmt17h979d5b2690a92582E
libclamav.so.11:_ZN60_$LT$gimli..constants..DwAte$u20$as$u20$core..fmt..Debug$GT$3fmt17h636a70e2c4536113E
libclamav.so.11:_ZN60_$LT$gimli..constants..DwCfa$u20$as$u20$core..fmt..Debug$GT$3fmt17hf729c7d05c94965dE
libclamav.so.11:_ZN60_$LT$gimli..constants..DwDsc$u20$as$u20$core..fmt..Debug$GT$3fmt17hd85a1db319bc3ed4E
libclamav.so.11:_ZN60_$LT$gimli..constants..DwEnd$u20$as$u20$core..fmt..Debug$GT$3fmt17habd03992a56e044eE
libclamav.so.11:_ZN60_$LT$gimli..constants..DwIdx$u20$as$u20$core..fmt..Debug$GT$3fmt17h1859c04bec4e1d6eE
libclamav.so.11:_ZN60_$LT$gimli..constants..DwInl$u20$as$u20$core..fmt..Debug$GT$3fmt17h6e1cbceba4c23750E
libclamav.so.11:_ZN60_$LT$gimli..constants..DwLle$u20$as$u20$core..fmt..Debug$GT$3fmt17h56d5b87b2a9b15b5E
libclamav.so.11:_ZN60_$LT$gimli..constants..DwLne$u20$as$u20$core..fmt..Debug$GT$3fmt17hda1fb7771baa2f53E
libclamav.so.11:_ZN60_$LT$gimli..constants..DwLns$u20$as$u20$core..fmt..Debug$GT$3fmt17h15cc91aecaad5520E
libclamav.so.11:_ZN60_$LT$gimli..constants..DwOrd$u20$as$u20$core..fmt..Debug$GT$3fmt17h3fd5640283ffd03cE
libclamav.so.11:_ZN60_$LT$gimli..constants..DwRle$u20$as$u20$core..fmt..Debug$GT$3fmt17haf32ef0609718aacE
libclamav.so.11:_ZN60_$LT$gimli..constants..DwTag$u20$as$u20$core..fmt..Debug$GT$3fmt17hafe87123909ac8caE
libclamav.so.11:_ZN60_$LT$gimli..constants..DwVis$u20$as$u20$core..fmt..Debug$GT$3fmt17h8b5bf329936c4b22E
libclamav.so.11:_ZN60_$LT$half..binary16..f16$u20$as$u20$core..cmp..PartialEq$GT$2eq17h5123f09748e37263E
libclamav.so.11:_ZN60_$LT$i16$u20$as$u20$tiff..encoder..tiff_value..TiffValue$GT$4data17hb2e98f7309a02ed9E
libclamav.so.11:_ZN60_$LT$i16$u20$as$u20$tiff..encoder..tiff_value..TiffValue$GT$5count17h77bfd8200675d095E
libclamav.so.11:_ZN60_$LT$i32$u20$as$u20$tiff..encoder..tiff_value..TiffValue$GT$4data17h5dc388b5ba445aadE
libclamav.so.11:_ZN60_$LT$i32$u20$as$u20$tiff..encoder..tiff_value..TiffValue$GT$5count17hd625097a8265c3d6E
libclamav.so.11:_ZN60_$LT$i64$u20$as$u20$tiff..encoder..tiff_value..TiffValue$GT$4data17hfec80d8d26f11290E
libclamav.so.11:_ZN60_$LT$i64$u20$as$u20$tiff..encoder..tiff_value..TiffValue$GT$5count17hbef2f46d10215b4fE
libclamav.so.11:_ZN60_$LT$image..animation..Delay$u20$as$u20$core..fmt..Debug$GT$3fmt17h73d451824fd5a953E
libclamav.so.11:_ZN60_$LT$image..color..ColorType$u20$as$u20$core..fmt..Debug$GT$3fmt17h734bf4a9f693dad0E
libclamav.so.11:_ZN60_$LT$image..flat..NormalForm$u20$as$u20$core..fmt..Debug$GT$3fmt17hda5264b6893316b7E
libclamav.so.11:_ZN60_$LT$image..io..LimitSupport$u20$as$u20$core..fmt..Debug$GT$3fmt17h29944ecd6a07ab80E
libclamav.so.11:_ZN60_$LT$image..io..Limits$u20$as$u20$core..default..Default$GT$7default17h9576e46313ec0357E
libclamav.so.11:_ZN60_$LT$image..math..rect..Rect$u20$as$u20$core..fmt..Debug$GT$3fmt17hc9495837bf8c3410E
libclamav.so.11:_ZN60_$LT$libc..unix..ipv6_mreq$u20$as$u20$core..clone..Clone$GT$5clone17h0b553124589feee7E
libclamav.so.11:_ZN60_$LT$libc..unix..itimerval$u20$as$u20$core..clone..Clone$GT$5clone17hd066d104971e97b3E
libclamav.so.11:_ZN60_$LT$miniz_oxide..DataFormat$u20$as$u20$core..fmt..Debug$GT$3fmt17h8cc3d358e1519bf6E
libclamav.so.11:_ZN60_$LT$miniz_oxide..DataFormat$u20$as$u20$core..fmt..Debug$GT$3fmt17h9d0bd96e152536bfE
libclamav.so.11:_ZN60_$LT$object..archive..Header$u20$as$u20$core..fmt..Debug$GT$3fmt17hd3d6f2e973e5a48cE
libclamav.so.11:_ZN60_$LT$object..pe..ImageSymbol$u20$as$u20$core..fmt..Debug$GT$3fmt17h0fb877169f847e6bE
libclamav.so.11:_ZN60_$LT$object..read..ObjectMap$u20$as$u20$core..fmt..Debug$GT$3fmt17h3dde8f183c06b836E
libclamav.so.11:_ZN60_$LT$png..common..Info$u20$as$u20$core..default..Default$GT$7default17h4e8c637e2d7174feE
libclamav.so.11:_ZN60_$LT$png..filter..FilterType$u20$as$u20$core..fmt..Debug$GT$3fmt17hc94ac6e6ee43c5c6E
libclamav.so.11:_ZN60_$LT$rayon_core..job..JobRef$u20$as$u20$core..fmt..Debug$GT$3fmt17h0a3bbc1f133fa3f1E
libclamav.so.11:_ZN60_$LT$rustfft..FftDirection$u20$as$u20$core..fmt..Display$GT$3fmt17h859e5fc2bc614864E
libclamav.so.11:_ZN60_$LT$std..ffi..os_str..OsStr$u20$as$u20$core..fmt..Debug$GT$3fmt17hd96f51a787097859E
libclamav.so.11:_ZN60_$LT$std..fs..File$u20$as$u20$std..os..unix..fs..FileExt$GT$7read_at17h8ba77149a41d6a51E
libclamav.so.11:_ZN60_$LT$std..fs..File$u20$as$u20$std..os..unix..fs..FileExt$GT$8write_at17hf97bb1c2eadb4e92E
libclamav.so.11:_ZN60_$LT$std..io..error..Error$u20$as$u20$core..error..Error$GT$11description17hd15c05e95b6eb98fE
libclamav.so.11:_ZN60_$LT$std..io..error..Error$u20$as$u20$core..error..Error$GT$5cause17h7b620a700cc5abc2E
libclamav.so.11:_ZN60_$LT$std..io..error..Error$u20$as$u20$core..error..Error$GT$6source17h303d2b86a8415eceE
libclamav.so.11:_ZN60_$LT$std..io..error..Error$u20$as$u20$core..fmt..Display$GT$3fmt17hef4ccd2d93df8211E
libclamav.so.11:_ZN60_$LT$std..io..stdio..StderrRaw$u20$as$u20$std..io..Write$GT$14write_vectored17he8f0ecd7ca021e33E
libclamav.so.11:_ZN60_$LT$std..io..stdio..StderrRaw$u20$as$u20$std..io..Write$GT$18write_all_vectored17h808062815d4fbee0E
libclamav.so.11:_ZN60_$LT$std..io..stdio..StderrRaw$u20$as$u20$std..io..Write$GT$5flush17h446170f831432834E
libclamav.so.11:_ZN60_$LT$std..io..stdio..StderrRaw$u20$as$u20$std..io..Write$GT$5write17hf6abc47f2107a3c3E
libclamav.so.11:_ZN60_$LT$std..io..stdio..StderrRaw$u20$as$u20$std..io..Write$GT$9write_all17h3f37fd208f6c9ae0E
libclamav.so.11:_ZN60_$LT$std..io..stdio..StderrRaw$u20$as$u20$std..io..Write$GT$9write_fmt17h5595cd3e5b07b583E
libclamav.so.11:_ZN60_$LT$std..io..stdio..StdoutRaw$u20$as$u20$std..io..Write$GT$14write_vectored17hd1faa1a6b1d8b7f4E
libclamav.so.11:_ZN60_$LT$std..io..stdio..StdoutRaw$u20$as$u20$std..io..Write$GT$18write_all_vectored17h97f75c66df7a6077E
libclamav.so.11:_ZN60_$LT$std..io..stdio..StdoutRaw$u20$as$u20$std..io..Write$GT$5flush17h880c7b7a8eea496aE
libclamav.so.11:_ZN60_$LT$std..io..stdio..StdoutRaw$u20$as$u20$std..io..Write$GT$5write17hed2b9878ef56ecedE
libclamav.so.11:_ZN60_$LT$std..io..stdio..StdoutRaw$u20$as$u20$std..io..Write$GT$9write_all17h4db74549697a1b4cE
libclamav.so.11:_ZN60_$LT$std..io..stdio..StdoutRaw$u20$as$u20$std..io..Write$GT$9write_fmt17he3d83a453818d960E
libclamav.so.11:_ZN60_$LT$std..net..tcp..Incoming$u20$as$u20$core..fmt..Debug$GT$3fmt17h560b243e40f67d66E
libclamav.so.11:_ZN60_$LT$std..time..Instant$u20$as$u20$core..ops..arith..Sub$GT$3sub17hbd4134abcbf71b52E
libclamav.so.11:_ZN60_$LT$str$u20$as$u20$std..net..socket_addr..ToSocketAddrs$GT$15to_socket_addrs17ha2b10eabafa46e4dE
libclamav.so.11:_ZN60_$LT$str$u20$as$u20$tiff..encoder..tiff_value..TiffValue$GT$4data17h51c748a2f7feb4caE
libclamav.so.11:_ZN60_$LT$str$u20$as$u20$tiff..encoder..tiff_value..TiffValue$GT$5count17h0606a35aae4e0d9dE
libclamav.so.11:_ZN60_$LT$tempfile..Builder$u20$as$u20$core..default..Default$GT$7default17h6c0249068a354dd1E
libclamav.so.11:_ZN60_$LT$tiff..error..UsageError$u20$as$u20$core..fmt..Debug$GT$3fmt17h37f417a46f19fa6aE
libclamav.so.11:_ZN60_$LT$u16$u20$as$u20$tiff..encoder..tiff_value..TiffValue$GT$4data17hea5ad507b3061846E
libclamav.so.11:_ZN60_$LT$u16$u20$as$u20$tiff..encoder..tiff_value..TiffValue$GT$5count17h41405fd706b4ad3bE
libclamav.so.11:_ZN60_$LT$u32$u20$as$u20$tiff..encoder..tiff_value..TiffValue$GT$4data17hac632722bf65c6b3E
libclamav.so.11:_ZN60_$LT$u32$u20$as$u20$tiff..encoder..tiff_value..TiffValue$GT$5count17h7405de518438f1e0E
libclamav.so.11:_ZN60_$LT$u64$u20$as$u20$tiff..encoder..tiff_value..TiffValue$GT$4data17h63bd156fc1e86b95E
libclamav.so.11:_ZN60_$LT$u64$u20$as$u20$tiff..encoder..tiff_value..TiffValue$GT$5count17he3603cff253c9588E
libclamav.so.11:_ZN60_$LT$weezl..error..LzwStatus$u20$as$u20$core..fmt..Debug$GT$3fmt17ha2f00e61a1f53864E
libclamav.so.11:_ZN61_$LT$$RF$std..io..stdio..Stderr$u20$as$u20$std..io..Write$GT$14write_vectored17he45bb0cccd1637acE
libclamav.so.11:_ZN61_$LT$$RF$std..io..stdio..Stderr$u20$as$u20$std..io..Write$GT$18write_all_vectored17h127e3687617aa178E
libclamav.so.11:_ZN61_$LT$$RF$std..io..stdio..Stderr$u20$as$u20$std..io..Write$GT$5flush17h377c00b694323ed1E
libclamav.so.11:_ZN61_$LT$$RF$std..io..stdio..Stderr$u20$as$u20$std..io..Write$GT$5write17he60bd6a29b158224E
libclamav.so.11:_ZN61_$LT$$RF$std..io..stdio..Stderr$u20$as$u20$std..io..Write$GT$9write_all17hc0f28c4a90536413E
libclamav.so.11:_ZN61_$LT$$RF$std..io..stdio..Stderr$u20$as$u20$std..io..Write$GT$9write_fmt17h7a0c83c7f3927762E
libclamav.so.11:_ZN61_$LT$$RF$std..io..stdio..Stdout$u20$as$u20$std..io..Write$GT$14write_vectored17h3709568d7ecf4ca0E
libclamav.so.11:_ZN61_$LT$$RF$std..io..stdio..Stdout$u20$as$u20$std..io..Write$GT$18write_all_vectored17hb8f17ad5ef01e115E
libclamav.so.11:_ZN61_$LT$$RF$std..io..stdio..Stdout$u20$as$u20$std..io..Write$GT$5flush17hd87715b785fdcd79E
libclamav.so.11:_ZN61_$LT$$RF$std..io..stdio..Stdout$u20$as$u20$std..io..Write$GT$5write17h74f628ce4a0cf0f4E
libclamav.so.11:_ZN61_$LT$$RF$std..io..stdio..Stdout$u20$as$u20$std..io..Write$GT$9write_all17hf06b72613bc808f9E
libclamav.so.11:_ZN61_$LT$$RF$std..io..stdio..Stdout$u20$as$u20$std..io..Write$GT$9write_fmt17h55d4113fdc2b0565E
libclamav.so.11:_ZN61_$LT$bytemuck..PodCastError$u20$as$u20$core..fmt..Display$GT$3fmt17h113e571fb5dbc7abE
libclamav.so.11:_ZN61_$LT$core..num..diy_float..Fp$u20$as$u20$core..fmt..Debug$GT$3fmt17h70b35d5638d44210E
libclamav.so.11:_ZN61_$LT$core..num..flt2dec..Sign$u20$as$u20$core..fmt..Debug$GT$3fmt17hdc9c0e9b950359eeE
libclamav.so.11:_ZN61_$LT$exr..block..chunk..Chunk$u20$as$u20$core..fmt..Debug$GT$3fmt17h4d90532e2e32bb62E
libclamav.so.11:_ZN61_$LT$f32$u20$as$u20$exr..block..samples..FromNativeSample$GT$8from_f1617h50ee75e8a44dc5c5E
libclamav.so.11:_ZN61_$LT$f32$u20$as$u20$exr..block..samples..FromNativeSample$GT$8from_f3217hfd7f684e93166a91E
libclamav.so.11:_ZN61_$LT$f32$u20$as$u20$exr..block..samples..FromNativeSample$GT$8from_u3217h64863a64467ccb7cE
libclamav.so.11:_ZN61_$LT$f32$u20$as$u20$exr..block..samples..IntoNativeSample$GT$6to_f1617h8b4d3275ef27fc63E
libclamav.so.11:_ZN61_$LT$f32$u20$as$u20$exr..block..samples..IntoNativeSample$GT$6to_f3217h32aa2396d4aa4853E
libclamav.so.11:_ZN61_$LT$f32$u20$as$u20$exr..block..samples..IntoNativeSample$GT$6to_u3217hc48482b92764ed2dE
libclamav.so.11:_ZN61_$LT$f32$u20$as$u20$image..color..FromPrimitive$LT$u8$GT$$GT$14from_primitive17h55d4530b5ba35c0fE
libclamav.so.11:_ZN61_$LT$gif..common..Frame$u20$as$u20$core..default..Default$GT$7default17hea26ebf2f10862eeE
libclamav.so.11:_ZN61_$LT$gif..reader..ColorOutput$u20$as$u20$core..fmt..Debug$GT$3fmt17h0cc27defd6d3a1a6E
libclamav.so.11:_ZN61_$LT$gif..reader..MemoryLimit$u20$as$u20$core..fmt..Debug$GT$3fmt17h3a3ae417c86a1f9bE
libclamav.so.11:_ZN61_$LT$gimli..common..SectionId$u20$as$u20$core..fmt..Debug$GT$3fmt17h910b406810f17ff9E
libclamav.so.11:_ZN61_$LT$gimli..constants..DwAddr$u20$as$u20$core..fmt..Debug$GT$3fmt17haf4bf64ea3be3bd0E
libclamav.so.11:_ZN61_$LT$gimli..constants..DwAt$u20$as$u20$core..fmt..Display$GT$3fmt17hd6146013c0b24ba6E
libclamav.so.11:_ZN61_$LT$gimli..constants..DwCc$u20$as$u20$core..fmt..Display$GT$3fmt17ha36b32ad81c3195aE
libclamav.so.11:_ZN61_$LT$gimli..constants..DwDs$u20$as$u20$core..fmt..Display$GT$3fmt17hb62526e8a0af304bE
libclamav.so.11:_ZN61_$LT$gimli..constants..DwEhPe$u20$as$u20$core..fmt..Debug$GT$3fmt17h65b7d46c221c269cE
libclamav.so.11:_ZN61_$LT$gimli..constants..DwForm$u20$as$u20$core..fmt..Debug$GT$3fmt17h25b9cb8f15cb2cf6E
libclamav.so.11:_ZN61_$LT$gimli..constants..DwId$u20$as$u20$core..fmt..Display$GT$3fmt17hba88b562c2a197c5E
libclamav.so.11:_ZN61_$LT$gimli..constants..DwLang$u20$as$u20$core..fmt..Debug$GT$3fmt17h6e39887a3bf2ccf2E
libclamav.so.11:_ZN61_$LT$gimli..constants..DwLnct$u20$as$u20$core..fmt..Debug$GT$3fmt17hbb9d0c356894e166E
libclamav.so.11:_ZN61_$LT$gimli..constants..DwOp$u20$as$u20$core..fmt..Display$GT$3fmt17h22c0de072441b243E
libclamav.so.11:_ZN61_$LT$gimli..constants..DwSect$u20$as$u20$core..fmt..Debug$GT$3fmt17hd72cb92737f76824E
libclamav.so.11:_ZN61_$LT$gimli..constants..DwUt$u20$as$u20$core..fmt..Display$GT$3fmt17h8f6466831fd52fa0E
libclamav.so.11:_ZN61_$LT$gimli..read..StoreOnHeap$u20$as$u20$core..fmt..Debug$GT$3fmt17h31e5946e7ecec575E
libclamav.so.11:_ZN61_$LT$half..binary16..f16$u20$as$u20$core..cmp..PartialOrd$GT$11partial_cmp17hab373a019ced2321E
libclamav.so.11:_ZN61_$LT$half..binary16..f16$u20$as$u20$core..cmp..PartialOrd$GT$2ge17hbdd6cff658323825E
libclamav.so.11:_ZN61_$LT$half..binary16..f16$u20$as$u20$core..cmp..PartialOrd$GT$2gt17h53afde3724d46d69E
libclamav.so.11:_ZN61_$LT$half..binary16..f16$u20$as$u20$core..cmp..PartialOrd$GT$2le17h1dffd5fd689c9899E
libclamav.so.11:_ZN61_$LT$half..binary16..f16$u20$as$u20$core..cmp..PartialOrd$GT$2lt17hc7a726833bb6d2acE
libclamav.so.11:_ZN61_$LT$image..error..ImageError$u20$as$u20$core..fmt..Debug$GT$3fmt17h6ae3e42b11bca39fE
libclamav.so.11:_ZN61_$LT$image..error..LimitError$u20$as$u20$core..fmt..Debug$GT$3fmt17h89e1be49539aee11E
libclamav.so.11:_ZN61_$LT$memchr..memmem..FindIter$u20$as$u20$core..fmt..Debug$GT$3fmt17h19b8cb07f85209e1E
libclamav.so.11:_ZN61_$LT$memchr..memmem..Searcher$u20$as$u20$core..fmt..Debug$GT$3fmt17h8c3b42c46bf7548aE
libclamav.so.11:_ZN61_$LT$object..macho..FatArch32$u20$as$u20$core..fmt..Debug$GT$3fmt17h549611a9e77b67f9E
libclamav.so.11:_ZN61_$LT$object..macho..FatArch64$u20$as$u20$core..fmt..Debug$GT$3fmt17h7d2322f38be70f0fE
libclamav.so.11:_ZN61_$LT$object..macho..FatHeader$u20$as$u20$core..fmt..Debug$GT$3fmt17hb4779e190099e2fdE
libclamav.so.11:_ZN61_$LT$object..read..ObjectKind$u20$as$u20$core..fmt..Debug$GT$3fmt17hf3c8711b2cf9c975E
libclamav.so.11:_ZN61_$LT$object..read..Relocation$u20$as$u20$core..fmt..Debug$GT$3fmt17ha265a7707191b972E
libclamav.so.11:_ZN61_$LT$png..common..Compression$u20$as$u20$core..fmt..Debug$GT$3fmt17h7d6fc0fafe39fafeE
libclamav.so.11:_ZN61_$LT$png..common..DisposeOp$u20$as$u20$core..fmt..Display$GT$3fmt17hd8cc09f6e4e900bfE
libclamav.so.11:_ZN61_$LT$png..common..ScaledFloat$u20$as$u20$core..fmt..Debug$GT$3fmt17h7c6e66919da5e953E
libclamav.so.11:_ZN61_$LT$png..decoder..OutputInfo$u20$as$u20$core..fmt..Debug$GT$3fmt17h46e9ca7190d1c449E
libclamav.so.11:_ZN61_$LT$rayon_core..scope..Scope$u20$as$u20$core..fmt..Debug$GT$3fmt17hc5dc94e44616a647E
libclamav.so.11:_ZN61_$LT$rustc_demangle..Demangle$u20$as$u20$core..fmt..Debug$GT$3fmt17h606ac00d387dfcceE
libclamav.so.11:_ZN61_$LT$std..backtrace..RawFrame$u20$as$u20$core..fmt..Debug$GT$3fmt17hc55c5b31d53b148bE
libclamav.so.11:_ZN61_$LT$std..env..JoinPathsError$u20$as$u20$core..fmt..Debug$GT$3fmt17h072b089d39a607e3E
libclamav.so.11:_ZN61_$LT$std..io..stdio..StderrLock$u20$as$u20$std..io..Write$GT$14write_vectored17hf182ec061746caafE
libclamav.so.11:_ZN61_$LT$std..io..stdio..StderrLock$u20$as$u20$std..io..Write$GT$18write_all_vectored17h030204d1d819b1a7E
libclamav.so.11:_ZN61_$LT$std..io..stdio..StderrLock$u20$as$u20$std..io..Write$GT$5flush17h676a7da1dbedbdd6E
libclamav.so.11:_ZN61_$LT$std..io..stdio..StderrLock$u20$as$u20$std..io..Write$GT$5write17ha2a92b44a90e1061E
libclamav.so.11:_ZN61_$LT$std..io..stdio..StderrLock$u20$as$u20$std..io..Write$GT$9write_all17h8f5fc4752ec9e020E
libclamav.so.11:_ZN61_$LT$std..io..stdio..StdoutLock$u20$as$u20$std..io..Write$GT$14write_vectored17he31db573875abc8aE
libclamav.so.11:_ZN61_$LT$std..io..stdio..StdoutLock$u20$as$u20$std..io..Write$GT$18write_all_vectored17h7174cb8fdb77a7f4E
libclamav.so.11:_ZN61_$LT$std..io..stdio..StdoutLock$u20$as$u20$std..io..Write$GT$5flush17h42fa6a15cd27627aE
libclamav.so.11:_ZN61_$LT$std..io..stdio..StdoutLock$u20$as$u20$std..io..Write$GT$5write17h9167426860f68e96E
libclamav.so.11:_ZN61_$LT$std..io..stdio..StdoutLock$u20$as$u20$std..io..Write$GT$9write_all17h033424c2641c7482E
libclamav.so.11:_ZN61_$LT$std..net..tcp..TcpStream$u20$as$u20$core..fmt..Debug$GT$3fmt17h4a0fb1b01cb62dd5E
libclamav.so.11:_ZN61_$LT$std..net..udp..UdpSocket$u20$as$u20$core..fmt..Debug$GT$3fmt17h769b630885f46888E
libclamav.so.11:_ZN61_$LT$std..process..ChildStdin$u20$as$u20$core..fmt..Debug$GT$3fmt17h66f71832214254e5E
libclamav.so.11:_ZN61_$LT$std..process..ExitStatus$u20$as$u20$core..fmt..Debug$GT$3fmt17h573df033609e7daaE
libclamav.so.11:_ZN61_$LT$std..sys..unix..fs..File$u20$as$u20$core..fmt..Debug$GT$3fmt17h65ec5097ed81db03E
libclamav.so.11:_ZN61_$LT$tempfile..file..TempPath$u20$as$u20$core..fmt..Debug$GT$3fmt17h127e5ddd4d08956eE
libclamav.so.11:_ZN61_$LT$threadpool..ThreadPool$u20$as$u20$core..clone..Clone$GT$5clone17he8503528312d6962E
libclamav.so.11:_ZN61_$LT$tiff..decoder..ChunkType$u20$as$u20$core..fmt..Debug$GT$3fmt17h9c170e306e8aa503E
libclamav.so.11:_ZN61_$LT$tiff..error..TiffError$u20$as$u20$core..error..Error$GT$11description17h0c4ca83565857188E
libclamav.so.11:_ZN61_$LT$tiff..error..TiffError$u20$as$u20$core..error..Error$GT$5cause17h5c7d0387c035c53aE
libclamav.so.11:_ZN61_$LT$tiff..error..TiffError$u20$as$u20$core..fmt..Display$GT$3fmt17h7f4396a789f462cdE
libclamav.so.11:_ZN61_$LT$tiff..tags..SampleFormat$u20$as$u20$core..fmt..Debug$GT$3fmt17h6bebbcb4e1a4a56bE
libclamav.so.11:_ZN61_$LT$u16$u20$as$u20$image..color..FromPrimitive$LT$u8$GT$$GT$14from_primitive17h89bce8155f0da929E
libclamav.so.11:_ZN61_$LT$u32$u20$as$u20$exr..block..samples..FromNativeSample$GT$8from_f1617heb219bb658eef57aE
libclamav.so.11:_ZN61_$LT$u32$u20$as$u20$exr..block..samples..FromNativeSample$GT$8from_f3217h26b830fb42554be3E
libclamav.so.11:_ZN61_$LT$u32$u20$as$u20$exr..block..samples..FromNativeSample$GT$8from_u3217hfa8478464974f9adE
libclamav.so.11:_ZN61_$LT$u32$u20$as$u20$exr..block..samples..IntoNativeSample$GT$6to_f1617h45b95ab1da9024baE
libclamav.so.11:_ZN61_$LT$u32$u20$as$u20$exr..block..samples..IntoNativeSample$GT$6to_f3217hfcd3c754c6c8d11aE
libclamav.so.11:_ZN61_$LT$u32$u20$as$u20$exr..block..samples..IntoNativeSample$GT$6to_u3217h3df84638bf1c2006E
libclamav.so.11:_ZN61_$LT$u8$u20$as$u20$image..color..FromPrimitive$LT$f32$GT$$GT$14from_primitive17h6d653bf0bcfa7db7E
libclamav.so.11:_ZN61_$LT$u8$u20$as$u20$image..color..FromPrimitive$LT$u16$GT$$GT$14from_primitive17h1dfaa6bbfd4d3f1fE
libclamav.so.11:_ZN61_$LT$weezl..error..LzwError$u20$as$u20$core..fmt..Display$GT$3fmt17he6c8f4da9890b22dE
libclamav.so.11:_ZN62_$LT$$RF$std..net..tcp..TcpStream$u20$as$u20$std..io..Read$GT$13read_vectored17haff31f4b5b6e64b0E
libclamav.so.11:_ZN62_$LT$$RF$std..net..tcp..TcpStream$u20$as$u20$std..io..Read$GT$4read17h1ea722b3e017596dE
libclamav.so.11:_ZN62_$LT$alloc..string..Drain$u20$as$u20$core..ops..drop..Drop$GT$4drop17h81d082af63b2ced0E
libclamav.so.11:_ZN62_$LT$core..alloc..AllocError$u20$as$u20$core..fmt..Display$GT$3fmt17h9702e37e9484d32cE
libclamav.so.11:_ZN62_$LT$core..cell..BorrowError$u20$as$u20$core..error..Error$GT$11description17hecb69da024617b5aE
libclamav.so.11:_ZN62_$LT$core..cell..BorrowError$u20$as$u20$core..fmt..Display$GT$3fmt17h8f29119471c7322fE
libclamav.so.11:_ZN62_$LT$core..char..EscapeDebug$u20$as$u20$core..fmt..Display$GT$3fmt17h0b6f4ceb3b564065E
libclamav.so.11:_ZN62_$LT$core..char..EscapeDefault$u20$as$u20$core..fmt..Debug$GT$3fmt17h9623636822283359E
libclamav.so.11:_ZN62_$LT$core..char..EscapeUnicode$u20$as$u20$core..fmt..Debug$GT$3fmt17ha80ce5f2ddb574c4E
libclamav.so.11:_ZN62_$LT$core..char..ToLowercase$u20$as$u20$core..fmt..Display$GT$3fmt17h12eb69ee0c2743d7E
libclamav.so.11:_ZN62_$LT$core..char..ToUppercase$u20$as$u20$core..fmt..Display$GT$3fmt17he6cf0f479bb5fcc3E
libclamav.so.11:_ZN62_$LT$core..convert..Infallible$u20$as$u20$core..fmt..Debug$GT$3fmt17hf862d0118bf147d7E
libclamav.so.11:_ZN62_$LT$core..num..bignum..Big32x40$u20$as$u20$core..cmp..Ord$GT$3cmp17h51ffdeb2e0a656ebE
libclamav.so.11:_ZN62_$LT$core..str..iter..LinesAny$u20$as$u20$core..fmt..Debug$GT$3fmt17h18c770b7fa4a6baaE
libclamav.so.11:_ZN62_$LT$core..task..wake..Context$u20$as$u20$core..fmt..Debug$GT$3fmt17h38b31dcb8bdcb890E
libclamav.so.11:_ZN62_$LT$core..time..Duration$u20$as$u20$core..ops..arith..Add$GT$3add17h9a499e20c3f6057dE
libclamav.so.11:_ZN62_$LT$core..time..Duration$u20$as$u20$core..ops..arith..Sub$GT$3sub17h1b1756a3b539c0c0E
libclamav.so.11:_ZN62_$LT$exr..meta..header..Header$u20$as$u20$core..fmt..Debug$GT$3fmt17h5bb03ec1273b71c0E
libclamav.so.11:_ZN62_$LT$f32$u20$as$u20$image..color..FromPrimitive$LT$u16$GT$$GT$14from_primitive17h64c4d468aab61d50E
libclamav.so.11:_ZN62_$LT$flate2..Compression$u20$as$u20$core..default..Default$GT$7default17h0c802fa2a0724bd8E
libclamav.so.11:_ZN62_$LT$flume..RecvTimeoutError$u20$as$u20$core..fmt..Display$GT$3fmt17h1e78d30f38eb104cE
libclamav.so.11:_ZN62_$LT$gif..common..AnyExtension$u20$as$u20$core..fmt..Debug$GT$3fmt17hd78dc99abb0ffd1dE
libclamav.so.11:_ZN62_$LT$gimli..constants..DwAte$u20$as$u20$core..fmt..Display$GT$3fmt17h6c47361983f0d863E
libclamav.so.11:_ZN62_$LT$gimli..constants..DwCfa$u20$as$u20$core..fmt..Display$GT$3fmt17h08eb14dd6c2ccab9E
libclamav.so.11:_ZN62_$LT$gimli..constants..DwDsc$u20$as$u20$core..fmt..Display$GT$3fmt17h1b5d1c785e660b1eE
libclamav.so.11:_ZN62_$LT$gimli..constants..DwEnd$u20$as$u20$core..fmt..Display$GT$3fmt17h07ad5bb7a6f98ad8E
libclamav.so.11:_ZN62_$LT$gimli..constants..DwIdx$u20$as$u20$core..fmt..Display$GT$3fmt17hc25582cd45ca4980E
libclamav.so.11:_ZN62_$LT$gimli..constants..DwInl$u20$as$u20$core..fmt..Display$GT$3fmt17h95f33284443d6bc8E
libclamav.so.11:_ZN62_$LT$gimli..constants..DwLle$u20$as$u20$core..fmt..Display$GT$3fmt17hcebd2db59546a8bbE
libclamav.so.11:_ZN62_$LT$gimli..constants..DwLne$u20$as$u20$core..fmt..Display$GT$3fmt17h19499611a0b9c701E
libclamav.so.11:_ZN62_$LT$gimli..constants..DwLns$u20$as$u20$core..fmt..Display$GT$3fmt17h7c40e05352af5b27E
libclamav.so.11:_ZN62_$LT$gimli..constants..DwMacro$u20$as$u20$core..fmt..Debug$GT$3fmt17h55ef0022d765820fE
libclamav.so.11:_ZN62_$LT$gimli..constants..DwOrd$u20$as$u20$core..fmt..Display$GT$3fmt17hcb2f24d5f005d649E
libclamav.so.11:_ZN62_$LT$gimli..constants..DwRle$u20$as$u20$core..fmt..Display$GT$3fmt17he17fca04c9603911E
libclamav.so.11:_ZN62_$LT$gimli..constants..DwTag$u20$as$u20$core..fmt..Display$GT$3fmt17h4def1ebdd88a15afE
libclamav.so.11:_ZN62_$LT$gimli..constants..DwVis$u20$as$u20$core..fmt..Display$GT$3fmt17h61ddf473d9f5d962E
libclamav.so.11:_ZN62_$LT$gimli..read..cfi..Pointer$u20$as$u20$core..fmt..Debug$GT$3fmt17h8c83446ca67c20c5E
libclamav.so.11:_ZN62_$LT$gimli..read..value..Value$u20$as$u20$core..fmt..Debug$GT$3fmt17h85b1401de04574efE
libclamav.so.11:_ZN62_$LT$image..flat..SampleLayout$u20$as$u20$core..fmt..Debug$GT$3fmt17he0d6b6c3e1c7be19E
libclamav.so.11:_ZN62_$LT$image..image..ImageFormat$u20$as$u20$core..fmt..Debug$GT$3fmt17h95c55ac5bcb9380fE
libclamav.so.11:_ZN62_$LT$memchr..memmem..FinderRev$u20$as$u20$core..fmt..Debug$GT$3fmt17h741546df55fb6e3aE
libclamav.so.11:_ZN62_$LT$miniz_oxide..StreamResult$u20$as$u20$core..fmt..Debug$GT$3fmt17h22014553318c68dfE
libclamav.so.11:_ZN62_$LT$miniz_oxide..StreamResult$u20$as$u20$core..fmt..Debug$GT$3fmt17hfd9d040cdfb4ef6bE
libclamav.so.11:_ZN62_$LT$object..common..FileFlags$u20$as$u20$core..fmt..Debug$GT$3fmt17h1d378e1f9a3c89f6E
libclamav.so.11:_ZN62_$LT$object..endian..BigEndian$u20$as$u20$core..fmt..Debug$GT$3fmt17h34c42635431e2348E
libclamav.so.11:_ZN62_$LT$object..pe..ImageSymbolEx$u20$as$u20$core..fmt..Debug$GT$3fmt17h0c1ee6622fbc328bE
libclamav.so.11:_ZN62_$LT$object..read..SymbolIndex$u20$as$u20$core..fmt..Debug$GT$3fmt17he255b6c877341496E
libclamav.so.11:_ZN62_$LT$object..read..util..Bytes$u20$as$u20$core..fmt..Debug$GT$3fmt17hebfb19394443c393E
libclamav.so.11:_ZN62_$LT$png..common..FrameControl$u20$as$u20$core..fmt..Debug$GT$3fmt17h4427de0556808f80E
libclamav.so.11:_ZN62_$LT$png..encoder..FormatError$u20$as$u20$core..fmt..Debug$GT$3fmt17hbede7070febe6b19E
libclamav.so.11:_ZN62_$LT$rayon_core..Configuration$u20$as$u20$core..fmt..Debug$GT$3fmt17h677fda0f61cc1b60E
libclamav.so.11:_ZN62_$LT$std..backtrace..Backtrace$u20$as$u20$core..fmt..Debug$GT$3fmt17h141255f5fdf7042fE
libclamav.so.11:_ZN62_$LT$std..io..error..ErrorKind$u20$as$u20$core..fmt..Debug$GT$3fmt17hd959e6966ab99bcdE
libclamav.so.11:_ZN62_$LT$std..io..stdio..StdinLock$u20$as$u20$core..fmt..Debug$GT$3fmt17hbd4a45b4004686f7E
libclamav.so.11:_ZN62_$LT$std..io..stdio..StdinLock$u20$as$u20$std..io..BufRead$GT$10read_until17hcdf021cb7ee7890eE
libclamav.so.11:_ZN62_$LT$std..io..stdio..StdinLock$u20$as$u20$std..io..BufRead$GT$7consume17h461bb830a73f93b5E
libclamav.so.11:_ZN62_$LT$std..io..stdio..StdinLock$u20$as$u20$std..io..BufRead$GT$8fill_buf17h0eaae8cb0b5dee09E
libclamav.so.11:_ZN62_$LT$std..io..stdio..StdinLock$u20$as$u20$std..io..BufRead$GT$9read_line17hd604584b5bf76012E
libclamav.so.11:_ZN62_$LT$std..net..ip_addr..IpAddr$u20$as$u20$core..fmt..Debug$GT$3fmt17h44a9e57a9da76747E
libclamav.so.11:_ZN62_$LT$std..process..ChildStderr$u20$as$u20$core..fmt..Debug$GT$3fmt17hb8ada468fd5e9ec7E
libclamav.so.11:_ZN62_$LT$std..process..ChildStdout$u20$as$u20$core..fmt..Debug$GT$3fmt17h9a146a3c41189963E
libclamav.so.11:_ZN62_$LT$std..process..CommandArgs$u20$as$u20$core..fmt..Debug$GT$3fmt17hc9a0f2bd7a7d6ae4E
libclamav.so.11:_ZN62_$LT$std..sys..unix..stdio..Stdin$u20$as$u20$std..io..Read$GT$13read_vectored17h378e3a02508cfba7E
libclamav.so.11:_ZN62_$LT$std..sys..unix..stdio..Stdin$u20$as$u20$std..io..Read$GT$4read17hd5bc59ba32d1e2afE
libclamav.so.11:_ZN62_$LT$threadpool..Sentinel$u20$as$u20$core..ops..drop..Drop$GT$4drop17h42fe6dcbff23fe32E
libclamav.so.11:_ZN62_$LT$tiff..decoder..ifd..Entry$u20$as$u20$core..fmt..Debug$GT$3fmt17h170e1af2cf5c6153E
libclamav.so.11:_ZN62_$LT$tiff..decoder..ifd..Value$u20$as$u20$core..fmt..Debug$GT$3fmt17hf421b78d65ae6c52E
libclamav.so.11:_ZN62_$LT$tiff..error..UsageError$u20$as$u20$core..fmt..Display$GT$3fmt17hd2107224d987b212E
libclamav.so.11:_ZN62_$LT$u16$u20$as$u20$image..color..FromPrimitive$LT$f32$GT$$GT$14from_primitive17h36a9ffbfbb2518fdE
libclamav.so.11:_ZN63_$LT$$RF$std..net..tcp..TcpStream$u20$as$u20$std..io..Write$GT$14write_vectored17h8f26fc9e943b1c09E
libclamav.so.11:_ZN63_$LT$$RF$std..net..tcp..TcpStream$u20$as$u20$std..io..Write$GT$5flush17h8b7624d501e6763dE
libclamav.so.11:_ZN63_$LT$$RF$std..net..tcp..TcpStream$u20$as$u20$std..io..Write$GT$5write17h7680b1356d370722E
libclamav.so.11:_ZN63_$LT$$RF$std..process..ChildStdin$u20$as$u20$std..io..Write$GT$14write_vectored17h363051d509a4413fE
libclamav.so.11:_ZN63_$LT$$RF$std..process..ChildStdin$u20$as$u20$std..io..Write$GT$17is_write_vectored17h0a69958d945adaadE
libclamav.so.11:_ZN63_$LT$$RF$std..process..ChildStdin$u20$as$u20$std..io..Write$GT$5flush17hc0444a6bd3786fd6E
libclamav.so.11:_ZN63_$LT$$RF$std..process..ChildStdin$u20$as$u20$std..io..Write$GT$5write17h4ef1499531fa72beE
libclamav.so.11:_ZN63_$LT$$u5b$u8$u5d$$u20$as$u20$image..traits..EncodableLayout$GT$8as_bytes17ha2dffb1a6df5ac94E
libclamav.so.11:_ZN63_$LT$alloc..ffi..c_str..CString$u20$as$u20$core..fmt..Debug$GT$3fmt17h7c0ba5972653e4f7E
libclamav.so.11:_ZN63_$LT$core..ascii..EscapeDefault$u20$as$u20$core..fmt..Debug$GT$3fmt17h1ee6bca8ae18ed7aE
libclamav.so.11:_ZN63_$LT$core..cell..BorrowMutError$u20$as$u20$core..fmt..Debug$GT$3fmt17hbc27fa8cec4f791dE
libclamav.so.11:_ZN63_$LT$core..ffi..VaListImpl$u20$as$u20$core..ops..drop..Drop$GT$4drop17h6a7dba7e00841005E
libclamav.so.11:_ZN63_$LT$core..ffi..c_str..CStr$u20$as$u20$core..cmp..PartialEq$GT$2eq17h6da2f6f02646b13dE
libclamav.so.11:_ZN63_$LT$core..hash..sip..SipHasher$u20$as$u20$core..fmt..Debug$GT$3fmt17h0978ec34ab3e39d2E
libclamav.so.11:_ZN63_$LT$core..task..wake..RawWaker$u20$as$u20$core..fmt..Debug$GT$3fmt17h16f9c07e9ae87524E
libclamav.so.11:_ZN63_$LT$exr..image..Encoding$u20$as$u20$core..default..Default$GT$7default17h5de67ce882725df4E
libclamav.so.11:_ZN63_$LT$exr..meta..attribute..Text$u20$as$u20$core..fmt..Debug$GT$3fmt17h5ab2b886296c7850E
libclamav.so.11:_ZN63_$LT$flate2..ffi..rust..Deflate$u20$as$u20$core..fmt..Debug$GT$3fmt17he2beaef6ba432a53E
libclamav.so.11:_ZN63_$LT$flate2..ffi..rust..Inflate$u20$as$u20$core..fmt..Debug$GT$3fmt17h86f7237f07ac4886E
libclamav.so.11:_ZN63_$LT$flate2..mem..CompressError$u20$as$u20$core..fmt..Debug$GT$3fmt17h604e54f105011a0fE
libclamav.so.11:_ZN63_$LT$flate2..mem..FlushCompress$u20$as$u20$core..fmt..Debug$GT$3fmt17h01043c3a272f6824E
libclamav.so.11:_ZN63_$LT$gif..reader..DecodeOptions$u20$as$u20$core..fmt..Debug$GT$3fmt17h57a7b65ab2c5e855E
libclamav.so.11:_ZN63_$LT$gimli..constants..DwAccess$u20$as$u20$core..fmt..Debug$GT$3fmt17h5290182110fad92dE
libclamav.so.11:_ZN63_$LT$gimli..constants..DwAddr$u20$as$u20$core..fmt..Display$GT$3fmt17ha30d438ca370d736E
libclamav.so.11:_ZN63_$LT$gimli..constants..DwEhPe$u20$as$u20$core..fmt..Display$GT$3fmt17h0de1e6ca8a8af941E
libclamav.so.11:_ZN63_$LT$gimli..constants..DwForm$u20$as$u20$core..fmt..Display$GT$3fmt17h5f1669d1ad19bdebE
libclamav.so.11:_ZN63_$LT$gimli..constants..DwLang$u20$as$u20$core..fmt..Display$GT$3fmt17h502035ecfa7f592fE
libclamav.so.11:_ZN63_$LT$gimli..constants..DwLnct$u20$as$u20$core..fmt..Display$GT$3fmt17hd7c60da3380a203dE
libclamav.so.11:_ZN63_$LT$gimli..constants..DwSect$u20$as$u20$core..fmt..Display$GT$3fmt17h1dbd7e3f04950efbE
libclamav.so.11:_ZN63_$LT$gimli..constants..DwSectV2$u20$as$u20$core..fmt..Debug$GT$3fmt17h16b0841a202a8b77E
libclamav.so.11:_ZN63_$LT$gimli..read..line..LineRow$u20$as$u20$core..fmt..Debug$GT$3fmt17h4392f21c9fa00aa8E
libclamav.so.11:_ZN63_$LT$hashbrown..TryReserveError$u20$as$u20$core..fmt..Debug$GT$3fmt17hf47155c9509bea85E
libclamav.so.11:_ZN63_$LT$image..codecs..dds..Header$u20$as$u20$core..fmt..Debug$GT$3fmt17hce646cc5bc3b4255E
libclamav.so.11:_ZN63_$LT$image..codecs..gif..Repeat$u20$as$u20$core..fmt..Debug$GT$3fmt17ha7a6ec5d179c9f4bE
libclamav.so.11:_ZN63_$LT$image..error..ImageError$u20$as$u20$core..error..Error$GT$6source17hf1ac599c114a9ac4E
libclamav.so.11:_ZN63_$LT$image..error..ImageError$u20$as$u20$core..fmt..Display$GT$3fmt17h0fc73005766383e8E
libclamav.so.11:_ZN63_$LT$image..error..LimitError$u20$as$u20$core..fmt..Display$GT$3fmt17h77e50e8929dbac62E
libclamav.so.11:_ZN63_$LT$jpeg_decoder..error..Error$u20$as$u20$core..fmt..Debug$GT$3fmt17hfba85707c7cbe359E
libclamav.so.11:_ZN63_$LT$log..LevelFilter$u20$as$u20$core..str..traits..FromStr$GT$8from_str17h921abb9507347d55E
libclamav.so.11:_ZN63_$LT$memchr..memmem..NeedleInfo$u20$as$u20$core..fmt..Debug$GT$3fmt17hb32c972053889d41E
libclamav.so.11:_ZN63_$LT$object..common..ComdatKind$u20$as$u20$core..fmt..Debug$GT$3fmt17hc4cf93b0e298714eE
libclamav.so.11:_ZN63_$LT$object..common..SymbolKind$u20$as$u20$core..fmt..Debug$GT$3fmt17h07cf958b1fdb86efE
libclamav.so.11:_ZN63_$LT$object..endian..Endianness$u20$as$u20$core..fmt..Debug$GT$3fmt17h15c9eb33ac14b093E
libclamav.so.11:_ZN63_$LT$object..pe..ImageDebugMisc$u20$as$u20$core..fmt..Debug$GT$3fmt17hca99f72d7301c700E
libclamav.so.11:_ZN63_$LT$object..pe..ImageDosHeader$u20$as$u20$core..fmt..Debug$GT$3fmt17h04e913fc00ad133bE
libclamav.so.11:_ZN63_$LT$object..pe..ImageOs2Header$u20$as$u20$core..fmt..Debug$GT$3fmt17h1812d346bec2e6a5E
libclamav.so.11:_ZN63_$LT$object..pe..ImageVxdHeader$u20$as$u20$core..fmt..Debug$GT$3fmt17h5317820a30d192d0E
libclamav.so.11:_ZN63_$LT$object..read..SectionIndex$u20$as$u20$core..fmt..Debug$GT$3fmt17h93fab0629f10428bE
libclamav.so.11:_ZN63_$LT$png..common..BytesPerPixel$u20$as$u20$core..fmt..Debug$GT$3fmt17h1833155cb218f494E
libclamav.so.11:_ZN63_$LT$png..decoder..Limits$u20$as$u20$core..default..Default$GT$7default17hd428072b5c13045eE
libclamav.so.11:_ZN63_$LT$rustc_demangle..Demangle$u20$as$u20$core..fmt..Display$GT$3fmt17h1869fb14e69b7cb1E
libclamav.so.11:_ZN63_$LT$std..env..JoinPathsError$u20$as$u20$core..error..Error$GT$11description17hc5dde5041657ea3dE
libclamav.so.11:_ZN63_$LT$std..env..JoinPathsError$u20$as$u20$core..fmt..Display$GT$3fmt17h98377d699ed892b7E
libclamav.so.11:_ZN63_$LT$std..ffi..os_str..OsString$u20$as$u20$core..fmt..Debug$GT$3fmt17h8e0cb5bdb6a05d6dE
libclamav.so.11:_ZN63_$LT$std..ffi..os_str..OsString$u20$as$u20$core..fmt..Write$GT$9write_str17h1aeebddc86ed1962E
libclamav.so.11:_ZN63_$LT$std..io..stdio..StderrLock$u20$as$u20$core..fmt..Debug$GT$3fmt17ha8d858dfc2ef0ce0E
libclamav.so.11:_ZN63_$LT$std..io..stdio..StdoutLock$u20$as$u20$core..fmt..Debug$GT$3fmt17h0d24c8408176bb2dE
libclamav.so.11:_ZN63_$LT$std..net..parser..AddrKind$u20$as$u20$core..fmt..Debug$GT$3fmt17hd8cae2171b706ac0E
libclamav.so.11:_ZN63_$LT$std..net..tcp..TcpListener$u20$as$u20$core..fmt..Debug$GT$3fmt17h08d6cf7b125f1d3aE
libclamav.so.11:_ZN63_$LT$std..panic..BacktraceStyle$u20$as$u20$core..fmt..Debug$GT$3fmt17hf710fed5baad491eE
libclamav.so.11:_ZN63_$LT$std..path..PrefixComponent$u20$as$u20$core..fmt..Debug$GT$3fmt17h8cae4203deb0f721E
libclamav.so.11:_ZN63_$LT$std..process..ExitStatus$u20$as$u20$core..fmt..Display$GT$3fmt17hf6f8aaa5a557699cE
libclamav.so.11:_ZN63_$LT$std..sync..mpsc..RecvError$u20$as$u20$core..fmt..Debug$GT$3fmt17h85bcbb64f58e1d4eE
libclamav.so.11:_ZN63_$LT$std..sync..once..OnceState$u20$as$u20$core..fmt..Debug$GT$3fmt17h1c60ac3af48cad7eE
libclamav.so.11:_ZN63_$LT$std..sys..unix..args..Args$u20$as$u20$core..fmt..Debug$GT$3fmt17h7b45c487f549be62E
libclamav.so.11:_ZN63_$LT$std..thread..scoped..Scope$u20$as$u20$core..fmt..Debug$GT$3fmt17he0f2fee464194475E
libclamav.so.11:_ZN63_$LT$std..time..SystemTimeError$u20$as$u20$core..fmt..Debug$GT$3fmt17h00ab65c577276350E
libclamav.so.11:_ZN63_$LT$tempfile..error..PathError$u20$as$u20$core..fmt..Debug$GT$3fmt17hb146f489bbcce8e4E
libclamav.so.11:_ZN63_$LT$tempfile..file..NamedTempFile$u20$as$u20$std..io..Read$GT$4read17hd498130313e7c3baE
libclamav.so.11:_ZN63_$LT$tempfile..file..NamedTempFile$u20$as$u20$std..io..Seek$GT$4seek17h4d5c5c25c756378eE
libclamav.so.11:_ZN63_$LT$threadpool..ThreadPool$u20$as$u20$core..cmp..PartialEq$GT$2eq17h58b8aff5d35c315cE
libclamav.so.11:_ZN63_$LT$tiff..tags..ResolutionUnit$u20$as$u20$core..fmt..Debug$GT$3fmt17h346c0bbb15ce1ac5E
libclamav.so.11:_ZN64_$LT$$u5b$f32$u5d$$u20$as$u20$image..traits..EncodableLayout$GT$8as_bytes17ha36f98056dc226f7E
libclamav.so.11:_ZN64_$LT$$u5b$u16$u5d$$u20$as$u20$image..traits..EncodableLayout$GT$8as_bytes17h4c820b74a6c2cdc4E
libclamav.so.11:_ZN64_$LT$alloc..ffi..c_str..NulError$u20$as$u20$core..fmt..Debug$GT$3fmt17h0672c4d2af916005E
libclamav.so.11:_ZN64_$LT$core..alloc..layout..Layout$u20$as$u20$core..fmt..Debug$GT$3fmt17h99b727d84838c6ceE
libclamav.so.11:_ZN64_$LT$core..char..CaseMappingIter$u20$as$u20$core..fmt..Debug$GT$3fmt17h352c7084a2915470E
libclamav.so.11:_ZN64_$LT$core..char..EscapeDefault$u20$as$u20$core..fmt..Display$GT$3fmt17h390e84ffa7ce0ad8E
libclamav.so.11:_ZN64_$LT$core..char..EscapeUnicode$u20$as$u20$core..fmt..Display$GT$3fmt17h8bfaf0712961eb44E
libclamav.so.11:_ZN64_$LT$core..convert..Infallible$u20$as$u20$core..clone..Clone$GT$5clone17h61f80ee8d93d7169E
libclamav.so.11:_ZN64_$LT$core..convert..Infallible$u20$as$u20$core..error..Error$GT$11description17hc2d0d2e2555f40b3E
libclamav.so.11:_ZN64_$LT$core..convert..Infallible$u20$as$u20$core..fmt..Display$GT$3fmt17h195c0e5010520180E
libclamav.so.11:_ZN64_$LT$core..core_arch..simd..i8x2$u20$as$u20$core..fmt..Debug$GT$3fmt17h772a8f6471ce8a0eE
libclamav.so.11:_ZN64_$LT$core..core_arch..simd..i8x4$u20$as$u20$core..fmt..Debug$GT$3fmt17he1328740e65c966aE
libclamav.so.11:_ZN64_$LT$core..core_arch..simd..i8x8$u20$as$u20$core..fmt..Debug$GT$3fmt17h9646b3e9df80524aE
libclamav.so.11:_ZN64_$LT$core..core_arch..simd..u8x2$u20$as$u20$core..fmt..Debug$GT$3fmt17h3c1f93827170f7faE
libclamav.so.11:_ZN64_$LT$core..core_arch..simd..u8x4$u20$as$u20$core..fmt..Debug$GT$3fmt17hc98fb9e0765d1275E
libclamav.so.11:_ZN64_$LT$core..core_arch..simd..u8x8$u20$as$u20$core..fmt..Debug$GT$3fmt17h37f12142b559f5abE
libclamav.so.11:_ZN64_$LT$core..ffi..c_str..CStr$u20$as$u20$core..cmp..PartialOrd$GT$11partial_cmp17hcdb17d1d08bcc726E
libclamav.so.11:_ZN64_$LT$core..marker..PhantomPinned$u20$as$u20$core..fmt..Debug$GT$3fmt17hff0dfb5409a34331E
libclamav.so.11:_ZN64_$LT$core..num..bignum..Big32x40$u20$as$u20$core..fmt..Debug$GT$3fmt17hb699954d92611070E
libclamav.so.11:_ZN64_$LT$core..ops..range..RangeFull$u20$as$u20$core..fmt..Debug$GT$3fmt17h9450466ca4f41979E
libclamav.so.11:_ZN64_$LT$core..panicking..AssertKind$u20$as$u20$core..fmt..Debug$GT$3fmt17hc0b73913ea9bb621E
libclamav.so.11:_ZN64_$LT$core..str..error..Utf8Error$u20$as$u20$core..fmt..Debug$GT$3fmt17h5e251370fe3c0190E
libclamav.so.11:_ZN64_$LT$core..str..lossy..Utf8Chunk$u20$as$u20$core..fmt..Debug$GT$3fmt17h7baeff820b61b5b0E
libclamav.so.11:_ZN64_$LT$exr..block..samples..Sample$u20$as$u20$core..fmt..Debug$GT$3fmt17h7c84a14e21a2ec12E
libclamav.so.11:_ZN64_$LT$exr..meta..BlockDescription$u20$as$u20$core..fmt..Debug$GT$3fmt17h51336c1a84fcd268E
libclamav.so.11:_ZN64_$LT$flate2..gz..GzBuilder$u20$as$u20$core..default..Default$GT$7default17h03cfb1644cafc43eE
libclamav.so.11:_ZN64_$LT$gif..common..DisposalMethod$u20$as$u20$core..fmt..Debug$GT$3fmt17h11e8a7b2a8b00809E
libclamav.so.11:_ZN64_$LT$gif..encoder..EncodingError$u20$as$u20$core..fmt..Debug$GT$3fmt17h4084bf44cb4d5a5fE
libclamav.so.11:_ZN64_$LT$gif..reader..decoder..State$u20$as$u20$core..fmt..Debug$GT$3fmt17h72ed9b8f9a55a477E
libclamav.so.11:_ZN64_$LT$gimli..common..LineEncoding$u20$as$u20$core..fmt..Debug$GT$3fmt17h9e2c437d79a3d966E
libclamav.so.11:_ZN64_$LT$gimli..constants..DwMacro$u20$as$u20$core..fmt..Display$GT$3fmt17h9b66943513c94282E
libclamav.so.11:_ZN64_$LT$gimli..endianity..BigEndian$u20$as$u20$core..fmt..Debug$GT$3fmt17h5333283e53475d02E
libclamav.so.11:_ZN64_$LT$image..error..DecodingError$u20$as$u20$core..fmt..Debug$GT$3fmt17h0a3679c340600e02E
libclamav.so.11:_ZN64_$LT$image..error..EncodingError$u20$as$u20$core..fmt..Debug$GT$3fmt17h17ed57fe4658364aE
libclamav.so.11:_ZN64_$LT$memchr..memmem..FindRevIter$u20$as$u20$core..fmt..Debug$GT$3fmt17haa38ac75667590c2E
libclamav.so.11:_ZN64_$LT$memchr..memmem..SearcherRev$u20$as$u20$core..fmt..Debug$GT$3fmt17h5c28bc4a5878ad7eE
libclamav.so.11:_ZN64_$LT$object..common..AddressSize$u20$as$u20$core..fmt..Debug$GT$3fmt17h122528240340cb1bE
libclamav.so.11:_ZN64_$LT$object..common..SectionKind$u20$as$u20$core..fmt..Debug$GT$3fmt17h0b370b86d4425fedE
libclamav.so.11:_ZN64_$LT$object..common..SymbolScope$u20$as$u20$core..fmt..Debug$GT$3fmt17he132608cc05c04b6E
libclamav.so.11:_ZN64_$LT$object..pe..ImageFileHeader$u20$as$u20$core..fmt..Debug$GT$3fmt17hcd9831ee0d4d93daE
libclamav.so.11:_ZN64_$LT$object..pe..ImageLinenumber$u20$as$u20$core..fmt..Debug$GT$3fmt17hf86846d5a32ba8cdE
libclamav.so.11:_ZN64_$LT$object..pe..ImageRelocation$u20$as$u20$core..fmt..Debug$GT$3fmt17h9be324ae39e82e3dE
libclamav.so.11:_ZN64_$LT$object..pe..ImageRomHeaders$u20$as$u20$core..fmt..Debug$GT$3fmt17h6cb9999cfb00c5b6E
libclamav.so.11:_ZN64_$LT$object..read..SymbolMapName$u20$as$u20$core..fmt..Debug$GT$3fmt17h9498b441e3745e42E
libclamav.so.11:_ZN64_$LT$object..read..SymbolSection$u20$as$u20$core..fmt..Debug$GT$3fmt17h27879f911624dca9E
libclamav.so.11:_ZN64_$LT$png..common..ParameterError$u20$as$u20$core..fmt..Debug$GT$3fmt17h957420d98e470388E
libclamav.so.11:_ZN64_$LT$png..decoder..InterlaceInfo$u20$as$u20$core..fmt..Debug$GT$3fmt17h35d84b9e66d9263aE
libclamav.so.11:_ZN64_$LT$png..decoder..InterlacedRow$u20$as$u20$core..fmt..Debug$GT$3fmt17h2a76a6c39176cc14E
libclamav.so.11:_ZN64_$LT$png..decoder..stream..State$u20$as$u20$core..fmt..Debug$GT$3fmt17h0c372664525fd4adE
libclamav.so.11:_ZN64_$LT$png..encoder..EncodingError$u20$as$u20$core..fmt..Debug$GT$3fmt17hdbe4af427af2c3c9E
libclamav.so.11:_ZN64_$LT$png..encoder..FormatError$u20$as$u20$core..fmt..Display$GT$3fmt17h3fc4fba401de9363E
libclamav.so.11:_ZN64_$LT$rustc_demangle..v0..Ident$u20$as$u20$core..fmt..Display$GT$3fmt17hf0b166deb099b3c1E
libclamav.so.11:_ZN64_$LT$simd_adler32..Adler32$u20$as$u20$core..default..Default$GT$7default17h8d56f97f29838481E
libclamav.so.11:_ZN64_$LT$std..backtrace..Backtrace$u20$as$u20$core..fmt..Display$GT$3fmt17h1fe11db004860106E
libclamav.so.11:_ZN64_$LT$std..backtrace..BytesOrWide$u20$as$u20$core..fmt..Debug$GT$3fmt17h86b95332265a1981E
libclamav.so.11:_ZN64_$LT$std..io..error..ErrorKind$u20$as$u20$core..fmt..Display$GT$3fmt17h137cf74a2470b2c9E
libclamav.so.11:_ZN64_$LT$std..net..ip_addr..IpAddr$u20$as$u20$core..fmt..Display$GT$3fmt17hbbb8ab5aaf686567E
libclamav.so.11:_ZN64_$LT$std..net..ip_addr..Ipv4Addr$u20$as$u20$core..fmt..Debug$GT$3fmt17h6e43de4183a3789cE
libclamav.so.11:_ZN64_$LT$std..net..ip_addr..Ipv6Addr$u20$as$u20$core..fmt..Debug$GT$3fmt17h9f320dd80ad39703E
libclamav.so.11:_ZN64_$LT$std..net..tcp..IntoIncoming$u20$as$u20$core..fmt..Debug$GT$3fmt17h087dedbc8def749cE
libclamav.so.11:_ZN64_$LT$std..os..fd..owned..OwnedFd$u20$as$u20$core..fmt..Debug$GT$3fmt17h93c1eeb9a272dc73E
libclamav.so.11:_ZN64_$LT$std..os..unix..ucred..UCred$u20$as$u20$core..fmt..Debug$GT$3fmt17hc7b24f6792d7446eE
libclamav.so.11:_ZN64_$LT$std..path..StripPrefixError$u20$as$u20$core..fmt..Debug$GT$3fmt17hee602d8c8bdff4fdE
libclamav.so.11:_ZN64_$LT$std..sync..barrier..Barrier$u20$as$u20$core..fmt..Debug$GT$3fmt17h495d4babeee61e6dE
libclamav.so.11:_ZN64_$LT$std..sync..condvar..Condvar$u20$as$u20$core..fmt..Debug$GT$3fmt17h382ba7fe7e3bf1ddE
libclamav.so.11:_ZN64_$LT$std..sys..unix..fs..ReadDir$u20$as$u20$core..fmt..Debug$GT$3fmt17h7ae8ce1be02e7535E
libclamav.so.11:_ZN64_$LT$std..sys..unix..os_str..Buf$u20$as$u20$core..fmt..Debug$GT$3fmt17h99d7b5b65077123eE
libclamav.so.11:_ZN64_$LT$std..sys..unix..stdio..Stderr$u20$as$u20$std..io..Write$GT$14write_vectored17h0099e6dfd009a48aE
libclamav.so.11:_ZN64_$LT$std..sys..unix..stdio..Stderr$u20$as$u20$std..io..Write$GT$5flush17hb3e78258ab66afb0E
libclamav.so.11:_ZN64_$LT$std..sys..unix..stdio..Stderr$u20$as$u20$std..io..Write$GT$5write17hdc011cd17038356fE
libclamav.so.11:_ZN64_$LT$std..sys..unix..stdio..Stdout$u20$as$u20$std..io..Write$GT$14write_vectored17h160e95940660e8fbE
libclamav.so.11:_ZN64_$LT$std..sys..unix..stdio..Stdout$u20$as$u20$std..io..Write$GT$5flush17h29147f066d717cc9E
libclamav.so.11:_ZN64_$LT$std..sys..unix..stdio..Stdout$u20$as$u20$std..io..Write$GT$5write17h055ff5b6371b1685E
libclamav.so.11:_ZN64_$LT$std..sys_common..wtf8..Wtf8$u20$as$u20$core..fmt..Debug$GT$3fmt17h8203855eaf791c33E
libclamav.so.11:_ZN64_$LT$tempfile..dir..TempDir$u20$as$u20$core..ops..drop..Drop$GT$4drop17ha47904c6eed1ac3eE
libclamav.so.11:_ZN64_$LT$tempfile..file..NamedTempFile$u20$as$u20$std..io..Write$GT$5write17hb969e9ceee6f2f16E
libclamav.so.11:_ZN64_$LT$tiff..decoder..Limits$u20$as$u20$core..default..Default$GT$7default17h2c5750f333285cacE
libclamav.so.11:_ZN64_$LT$tiff..decoder..image..Image$u20$as$u20$core..fmt..Debug$GT$3fmt17h5f3a6b88c82e3d59E
libclamav.so.11:_ZN64_$LT$weezl..encode..Simple$u20$as$u20$core..default..Default$GT$7default17h0e72d2a5cd61ea33E
libclamav.so.11:_ZN65_$LT$$LP$$RP$$u20$as$u20$exr..image..recursive..IntoRecursive$GT$14into_recursive17h33368d6f7f3bac58E
libclamav.so.11:_ZN65_$LT$alloc..string..FromUtf8Error$u20$as$u20$core..fmt..Debug$GT$3fmt17h6da2635e0054b9ffE
libclamav.so.11:_ZN65_$LT$core..ascii..EscapeDefault$u20$as$u20$core..fmt..Display$GT$3fmt17h90f62829d051f02eE
libclamav.so.11:_ZN65_$LT$core..cell..BorrowMutError$u20$as$u20$core..error..Error$GT$11description17h7f27dfe1ca591fb0E
libclamav.so.11:_ZN65_$LT$core..cell..BorrowMutError$u20$as$u20$core..fmt..Display$GT$3fmt17hf35bb9bdd6cdf29aE
libclamav.so.11:_ZN65_$LT$core..char..TryFromCharError$u20$as$u20$core..fmt..Debug$GT$3fmt17hd2e2bd0ea60a4914E
libclamav.so.11:_ZN65_$LT$core..core_arch..simd..f32x2$u20$as$u20$core..fmt..Debug$GT$3fmt17h8d2d98d630252d83E
libclamav.so.11:_ZN65_$LT$core..core_arch..simd..f32x4$u20$as$u20$core..fmt..Debug$GT$3fmt17hae5c82955a669964E
libclamav.so.11:_ZN65_$LT$core..core_arch..simd..f32x8$u20$as$u20$core..fmt..Debug$GT$3fmt17h2e562b5da8d1478dE
libclamav.so.11:_ZN65_$LT$core..core_arch..simd..f64x1$u20$as$u20$core..fmt..Debug$GT$3fmt17h24c48b929ad449f1E
libclamav.so.11:_ZN65_$LT$core..core_arch..simd..f64x2$u20$as$u20$core..fmt..Debug$GT$3fmt17h63be66fd1869788eE
libclamav.so.11:_ZN65_$LT$core..core_arch..simd..f64x4$u20$as$u20$core..fmt..Debug$GT$3fmt17he0796c2965860fbaE
libclamav.so.11:_ZN65_$LT$core..core_arch..simd..f64x8$u20$as$u20$core..fmt..Debug$GT$3fmt17h5b61adc46d035d24E
libclamav.so.11:_ZN65_$LT$core..core_arch..simd..i16x2$u20$as$u20$core..fmt..Debug$GT$3fmt17ha99a53632fbc3af6E
libclamav.so.11:_ZN65_$LT$core..core_arch..simd..i16x4$u20$as$u20$core..fmt..Debug$GT$3fmt17h10595b68e8052535E
libclamav.so.11:_ZN65_$LT$core..core_arch..simd..i16x8$u20$as$u20$core..fmt..Debug$GT$3fmt17h0251676ca85a5f1aE
libclamav.so.11:_ZN65_$LT$core..core_arch..simd..i32x2$u20$as$u20$core..fmt..Debug$GT$3fmt17h2f5c4c58453b052cE
libclamav.so.11:_ZN65_$LT$core..core_arch..simd..i32x4$u20$as$u20$core..fmt..Debug$GT$3fmt17h2c29d052d978b3cdE
libclamav.so.11:_ZN65_$LT$core..core_arch..simd..i32x8$u20$as$u20$core..fmt..Debug$GT$3fmt17h3da117e0e8f826c3E
libclamav.so.11:_ZN65_$LT$core..core_arch..simd..i64x1$u20$as$u20$core..fmt..Debug$GT$3fmt17h36a41c9d1c25bc68E
libclamav.so.11:_ZN65_$LT$core..core_arch..simd..i64x2$u20$as$u20$core..fmt..Debug$GT$3fmt17h35932360863d46a2E
libclamav.so.11:_ZN65_$LT$core..core_arch..simd..i64x4$u20$as$u20$core..fmt..Debug$GT$3fmt17h41ea54526da52f0aE
libclamav.so.11:_ZN65_$LT$core..core_arch..simd..i64x8$u20$as$u20$core..fmt..Debug$GT$3fmt17h434b1b1fb40837dcE
libclamav.so.11:_ZN65_$LT$core..core_arch..simd..i8x16$u20$as$u20$core..fmt..Debug$GT$3fmt17h1dbca77ccc89bac0E
libclamav.so.11:_ZN65_$LT$core..core_arch..simd..i8x32$u20$as$u20$core..fmt..Debug$GT$3fmt17h022322dac64b2bc0E
libclamav.so.11:_ZN65_$LT$core..core_arch..simd..i8x64$u20$as$u20$core..fmt..Debug$GT$3fmt17h4c5fc02a77200fc3E
libclamav.so.11:_ZN65_$LT$core..core_arch..simd..m16x8$u20$as$u20$core..fmt..Debug$GT$3fmt17h76d1dd616880b940E
libclamav.so.11:_ZN65_$LT$core..core_arch..simd..m32x4$u20$as$u20$core..fmt..Debug$GT$3fmt17hcc67e0cf7df2da46E
libclamav.so.11:_ZN65_$LT$core..core_arch..simd..m64x2$u20$as$u20$core..fmt..Debug$GT$3fmt17h6fe3c9398c9ca461E
libclamav.so.11:_ZN65_$LT$core..core_arch..simd..m8x16$u20$as$u20$core..fmt..Debug$GT$3fmt17h332aa4762de823d0E
libclamav.so.11:_ZN65_$LT$core..core_arch..simd..u16x2$u20$as$u20$core..fmt..Debug$GT$3fmt17h3c62767c0a0fd7a5E
libclamav.so.11:_ZN65_$LT$core..core_arch..simd..u16x4$u20$as$u20$core..fmt..Debug$GT$3fmt17h741dc40fee187d0bE
libclamav.so.11:_ZN65_$LT$core..core_arch..simd..u16x8$u20$as$u20$core..fmt..Debug$GT$3fmt17hd0d1eb3278c59636E
libclamav.so.11:_ZN65_$LT$core..core_arch..simd..u32x2$u20$as$u20$core..fmt..Debug$GT$3fmt17h76eed69ab5e041c5E
libclamav.so.11:_ZN65_$LT$core..core_arch..simd..u32x4$u20$as$u20$core..fmt..Debug$GT$3fmt17h15065d755f47dca1E
libclamav.so.11:_ZN65_$LT$core..core_arch..simd..u32x8$u20$as$u20$core..fmt..Debug$GT$3fmt17h48411453c462a594E
libclamav.so.11:_ZN65_$LT$core..core_arch..simd..u64x1$u20$as$u20$core..fmt..Debug$GT$3fmt17h0d0cb334167aa693E
libclamav.so.11:_ZN65_$LT$core..core_arch..simd..u64x2$u20$as$u20$core..fmt..Debug$GT$3fmt17hf01828c741938da0E
libclamav.so.11:_ZN65_$LT$core..core_arch..simd..u64x4$u20$as$u20$core..fmt..Debug$GT$3fmt17hae4129e2d7dc307dE
libclamav.so.11:_ZN65_$LT$core..core_arch..simd..u64x8$u20$as$u20$core..fmt..Debug$GT$3fmt17hc97048c07b32a4dcE
libclamav.so.11:_ZN65_$LT$core..core_arch..simd..u8x16$u20$as$u20$core..fmt..Debug$GT$3fmt17heae4e73e82672267E
libclamav.so.11:_ZN65_$LT$core..core_arch..simd..u8x32$u20$as$u20$core..fmt..Debug$GT$3fmt17h613adc2742ebf718E
libclamav.so.11:_ZN65_$LT$core..core_arch..simd..u8x64$u20$as$u20$core..fmt..Debug$GT$3fmt17h72f582049e505766E
libclamav.so.11:_ZN65_$LT$core..core_arch..x86..__m128$u20$as$u20$core..fmt..Debug$GT$3fmt17h4442bf733292bf88E
libclamav.so.11:_ZN65_$LT$core..core_arch..x86..__m256$u20$as$u20$core..fmt..Debug$GT$3fmt17h57c9138aa1ffa838E
libclamav.so.11:_ZN65_$LT$core..core_arch..x86..__m512$u20$as$u20$core..fmt..Debug$GT$3fmt17hb3e818a9c00de345E
libclamav.so.11:_ZN65_$LT$core..hash..sip..Sip13Rounds$u20$as$u20$core..fmt..Debug$GT$3fmt17h7bfa1042e93760d6E
libclamav.so.11:_ZN65_$LT$core..hash..sip..Sip24Rounds$u20$as$u20$core..fmt..Debug$GT$3fmt17h1fe7154b3e4cdf64E
libclamav.so.11:_ZN65_$LT$core..hash..sip..SipHasher13$u20$as$u20$core..fmt..Debug$GT$3fmt17hb950307417df81f1E
libclamav.so.11:_ZN65_$LT$core..hash..sip..SipHasher24$u20$as$u20$core..fmt..Debug$GT$3fmt17h7fb4f0aba55b9f0dE
libclamav.so.11:_ZN65_$LT$core..str..iter..CharIndices$u20$as$u20$core..fmt..Debug$GT$3fmt17h15c0fb17282705cdE
libclamav.so.11:_ZN65_$LT$core..str..iter..EncodeUtf16$u20$as$u20$core..fmt..Debug$GT$3fmt17hf5d87604b721e300E
libclamav.so.11:_ZN65_$LT$core..str..iter..EscapeDebug$u20$as$u20$core..fmt..Debug$GT$3fmt17h0cd41cd2111e5d21E
libclamav.so.11:_ZN65_$LT$core..str..lossy..Utf8Chunks$u20$as$u20$core..fmt..Debug$GT$3fmt17hecf76b3f4563ea95E
libclamav.so.11:_ZN65_$LT$core..sync..atomic..AtomicI8$u20$as$u20$core..fmt..Debug$GT$3fmt17hb1c2dbef336d2e54E
libclamav.so.11:_ZN65_$LT$core..sync..atomic..AtomicU8$u20$as$u20$core..fmt..Debug$GT$3fmt17h1898bb9477262b77E
libclamav.so.11:_ZN65_$LT$core..sync..atomic..Ordering$u20$as$u20$core..fmt..Debug$GT$3fmt17ha9c8aacbbab535e3E
libclamav.so.11:_ZN65_$LT$exr..block..lines..LineIndex$u20$as$u20$core..fmt..Debug$GT$3fmt17h93eb8f74f4ea626fE
libclamav.so.11:_ZN65_$LT$exr..meta..attribute..Text$u20$as$u20$core..fmt..Display$GT$3fmt17hc2627ddb05349044E
libclamav.so.11:_ZN65_$LT$flate2..gz..bufread..GzState$u20$as$u20$core..fmt..Debug$GT$3fmt17hf0ebd8d255ee07d5E
libclamav.so.11:_ZN65_$LT$flate2..mem..CompressError$u20$as$u20$core..fmt..Display$GT$3fmt17h9a422b43e382584eE
libclamav.so.11:_ZN65_$LT$flate2..mem..DecompressError$u20$as$u20$core..fmt..Debug$GT$3fmt17heac1d260e06bd0deE
libclamav.so.11:_ZN65_$LT$flate2..mem..FlushCompress$u20$as$u20$flate2..zio..Flush$GT$4none17hb871443c9ffa68a7E
libclamav.so.11:_ZN65_$LT$flate2..mem..FlushCompress$u20$as$u20$flate2..zio..Flush$GT$4sync17hd996e3bb0b3dd1b8E
libclamav.so.11:_ZN65_$LT$flate2..mem..FlushCompress$u20$as$u20$flate2..zio..Flush$GT$6finish17haa45e02f23b90539E
libclamav.so.11:_ZN65_$LT$flate2..mem..FlushDecompress$u20$as$u20$core..fmt..Debug$GT$3fmt17hcd26c039aaaa495bE
libclamav.so.11:_ZN65_$LT$gimli..common..DwarfFileType$u20$as$u20$core..fmt..Debug$GT$3fmt17hb16c0f3c3365855eE
libclamav.so.11:_ZN65_$LT$gimli..constants..DwAccess$u20$as$u20$core..fmt..Display$GT$3fmt17hf0f075a74315db3dE
libclamav.so.11:_ZN65_$LT$gimli..constants..DwChildren$u20$as$u20$core..fmt..Debug$GT$3fmt17h3f85f2f42d9aae5dE
libclamav.so.11:_ZN65_$LT$gimli..constants..DwSectV2$u20$as$u20$core..fmt..Display$GT$3fmt17hc21b1240ef7415c2E
libclamav.so.11:_ZN65_$LT$gimli..read..rnglists..Range$u20$as$u20$core..fmt..Debug$GT$3fmt17h925c4781b8b6a960E
libclamav.so.11:_ZN65_$LT$image..error..LimitErrorKind$u20$as$u20$core..fmt..Debug$GT$3fmt17h58ead1be86b7e1ecE
libclamav.so.11:_ZN65_$LT$image..error..ParameterError$u20$as$u20$core..fmt..Debug$GT$3fmt17hb763328a3ddcbf09E
libclamav.so.11:_ZN65_$LT$image..flat..NormalForm$u20$as$u20$core..cmp..PartialOrd$GT$11partial_cmp17h1484ddd1b5522926E
libclamav.so.11:_ZN65_$LT$jpeg_decoder..error..Error$u20$as$u20$core..error..Error$GT$6source17h53dd56a57a7c3f43E
libclamav.so.11:_ZN65_$LT$jpeg_decoder..error..Error$u20$as$u20$core..fmt..Display$GT$3fmt17h3c0e126806252f32E
libclamav.so.11:_ZN65_$LT$jpeg_decoder..marker..Marker$u20$as$u20$core..fmt..Debug$GT$3fmt17hf081846688e71e92E
libclamav.so.11:_ZN65_$LT$libc..unix..linux_like..tm$u20$as$u20$core..clone..Clone$GT$5clone17h14e0eb9adb91e960E
libclamav.so.11:_ZN65_$LT$memchr..memmem..SearcherKind$u20$as$u20$core..fmt..Debug$GT$3fmt17h21dbfa8b50e44a8eE
libclamav.so.11:_ZN65_$LT$object..common..Architecture$u20$as$u20$core..fmt..Debug$GT$3fmt17h05639087f6da7539E
libclamav.so.11:_ZN65_$LT$object..common..BinaryFormat$u20$as$u20$core..fmt..Debug$GT$3fmt17h44f8eaf6678b08a0E
libclamav.so.11:_ZN65_$LT$object..common..SectionFlags$u20$as$u20$core..fmt..Debug$GT$3fmt17h32e8b27c6c4ad820E
libclamav.so.11:_ZN65_$LT$object..common..SegmentFlags$u20$as$u20$core..fmt..Debug$GT$3fmt17h30b9a90813f4540aE
libclamav.so.11:_ZN65_$LT$object..endian..LittleEndian$u20$as$u20$core..fmt..Debug$GT$3fmt17h6f802b58a7575256E
libclamav.so.11:_ZN65_$LT$object..pe..AnonObjectHeader$u20$as$u20$core..fmt..Debug$GT$3fmt17h762a80cebcb5cc0dE
libclamav.so.11:_ZN65_$LT$object..pe..ImageCor20Header$u20$as$u20$core..fmt..Debug$GT$3fmt17h6ece9f7581c1241aE
libclamav.so.11:_ZN65_$LT$object..pe..ImageNtHeaders32$u20$as$u20$core..fmt..Debug$GT$3fmt17h4c0a739b3937663bE
libclamav.so.11:_ZN65_$LT$object..pe..ImageNtHeaders64$u20$as$u20$core..fmt..Debug$GT$3fmt17h6f1e5bd05d6c5485E
libclamav.so.11:_ZN65_$LT$object..pe..ImageSymbolBytes$u20$as$u20$core..fmt..Debug$GT$3fmt17h9107d92424a56633E
libclamav.so.11:_ZN65_$LT$object..pe..ImageThunkData32$u20$as$u20$core..fmt..Debug$GT$3fmt17hf5d5f89caed3024dE
libclamav.so.11:_ZN65_$LT$object..pe..ImageThunkData64$u20$as$u20$core..fmt..Debug$GT$3fmt17h54f1d5bf8b44114cE
libclamav.so.11:_ZN65_$LT$object..read..CompressedData$u20$as$u20$core..fmt..Debug$GT$3fmt17h7e1b1d7a6dcf21deE
libclamav.so.11:_ZN65_$LT$object..read..ObjectMapEntry$u20$as$u20$core..fmt..Debug$GT$3fmt17h84d2b1543c079204E
libclamav.so.11:_ZN65_$LT$object..read..util..DebugLen$u20$as$u20$core..fmt..Debug$GT$3fmt17hbef372e769f47b20E
libclamav.so.11:_ZN65_$LT$png..common..PixelDimensions$u20$as$u20$core..fmt..Debug$GT$3fmt17h4bbd8e5dc7c40589E
libclamav.so.11:_ZN65_$LT$png..common..Transformations$u20$as$u20$core..fmt..Debug$GT$3fmt17hb42158e879e557d4E
libclamav.so.11:_ZN65_$LT$png..common..Transformations$u20$as$u20$core..fmt..Octal$GT$3fmt17h638238aa31c5f6cfE
libclamav.so.11:_ZN65_$LT$rayon_core..job..JobFifo$u20$as$u20$rayon_core..job..Job$GT$7execute17hc1bc013d2dd57216E
libclamav.so.11:_ZN65_$LT$rayon_core..latch..CoreLatch$u20$as$u20$core..fmt..Debug$GT$3fmt17h78f33130181093baE
libclamav.so.11:_ZN65_$LT$rayon_core..latch..LockLatch$u20$as$u20$core..fmt..Debug$GT$3fmt17hf5212732d1bfd7adE
libclamav.so.11:_ZN65_$LT$rayon_core..scope..ScopeFifo$u20$as$u20$core..fmt..Debug$GT$3fmt17h12e3462c7cd8e6eeE
libclamav.so.11:_ZN65_$LT$scoped_threadpool..Pool$u20$as$u20$core..ops..drop..Drop$GT$4drop17h6f989b6b34014742E
libclamav.so.11:_ZN65_$LT$smallvec..CollectionAllocErr$u20$as$u20$core..fmt..Debug$GT$3fmt17h466a615c612bded3E
libclamav.so.11:_ZN65_$LT$std..backtrace_rs..Bomb$u20$as$u20$core..ops..drop..Drop$GT$4drop17had5f7a50bcc26b18E
libclamav.so.11:_ZN65_$LT$std..sync..mpsc..RecvError$u20$as$u20$core..error..Error$GT$11description17h403738f682f8b84aE
libclamav.so.11:_ZN65_$LT$std..sync..mpsc..RecvError$u20$as$u20$core..fmt..Display$GT$3fmt17h51c1643c8dcec371E
libclamav.so.11:_ZN65_$LT$std..sys..unix..fd..FileDesc$u20$as$u20$core..fmt..Debug$GT$3fmt17he4d2d6a30b4dbd8fE
libclamav.so.11:_ZN65_$LT$std..sys..unix..fs..Dir$u20$as$u20$core..ops..drop..Drop$GT$4drop17h790636bab26869deE
libclamav.so.11:_ZN65_$LT$std..sys..unix..fs..FileType$u20$as$u20$core..fmt..Debug$GT$3fmt17h85c35907d34e0903E
libclamav.so.11:_ZN65_$LT$std..thread..PanicGuard$u20$as$u20$core..ops..drop..Drop$GT$4drop17h0a9083cc48e22daeE
libclamav.so.11:_ZN65_$LT$std..time..SystemTimeError$u20$as$u20$core..error..Error$GT$11description17h5650df5c492b8721E
libclamav.so.11:_ZN65_$LT$std..time..SystemTimeError$u20$as$u20$core..fmt..Display$GT$3fmt17h7bb15942f2afd2f3E
libclamav.so.11:_ZN65_$LT$tempfile..error..PathError$u20$as$u20$core..error..Error$GT$6source17hd94a93e4d8825945E
libclamav.so.11:_ZN65_$LT$tempfile..error..PathError$u20$as$u20$core..fmt..Display$GT$3fmt17hf38cb39ca4fc1c0dE
libclamav.so.11:_ZN65_$LT$tempfile..file..PersistError$u20$as$u20$core..fmt..Debug$GT$3fmt17hcdf6ee1c827c4bc6E
libclamav.so.11:_ZN65_$LT$threadpool..ThreadPool$u20$as$u20$core..default..Default$GT$7default17h4a96bc470c046b4bE
libclamav.so.11:_ZN65_$LT$tiff..error..TiffFormatError$u20$as$u20$core..fmt..Debug$GT$3fmt17ha6df5b02809f14ccE
libclamav.so.11:_ZN65_$LT$weezl..encode..FullKey$u20$as$u20$core..default..Default$GT$7default17hdb8e3b49dce3ccb8E
libclamav.so.11:_ZN66_$LT$$RF$std..sys..unix..fd..FileDesc$u20$as$u20$std..io..Read$GT$4read17hab4643f1728ee0fdE
libclamav.so.11:_ZN66_$LT$adler..algo..U32X4$u20$as$u20$core..ops..arith..AddAssign$GT$10add_assign17h1f60b064bc90a872E
libclamav.so.11:_ZN66_$LT$alloc..ffi..c_str..NulError$u20$as$u20$core..error..Error$GT$11description17haa73b52ea7fed349E
libclamav.so.11:_ZN66_$LT$alloc..ffi..c_str..NulError$u20$as$u20$core..fmt..Display$GT$3fmt17h0bfb562ebef7c56bE
libclamav.so.11:_ZN66_$LT$alloc..string..FromUtf16Error$u20$as$u20$core..fmt..Debug$GT$3fmt17h03d00e6b16b6cfe4E
libclamav.so.11:_ZN66_$LT$core..char..CaseMappingIter$u20$as$u20$core..fmt..Display$GT$3fmt17he2a86cedb99a865dE
libclamav.so.11:_ZN66_$LT$core..convert..Infallible$u20$as$u20$core..cmp..PartialEq$GT$2eq17hdd3603c25e22813cE
libclamav.so.11:_ZN66_$LT$core..core_arch..simd..f32x16$u20$as$u20$core..fmt..Debug$GT$3fmt17hc044ead3c2518956E
libclamav.so.11:_ZN66_$LT$core..core_arch..simd..i16x16$u20$as$u20$core..fmt..Debug$GT$3fmt17habe3ef015859702bE
libclamav.so.11:_ZN66_$LT$core..core_arch..simd..i16x32$u20$as$u20$core..fmt..Debug$GT$3fmt17hcf630f34951c6f75E
libclamav.so.11:_ZN66_$LT$core..core_arch..simd..i32x16$u20$as$u20$core..fmt..Debug$GT$3fmt17hd017f74f729a4075E
libclamav.so.11:_ZN66_$LT$core..core_arch..simd..u16x16$u20$as$u20$core..fmt..Debug$GT$3fmt17hf0b77fc58e802246E
libclamav.so.11:_ZN66_$LT$core..core_arch..simd..u16x32$u20$as$u20$core..fmt..Debug$GT$3fmt17hde050ce96a04ff6dE
libclamav.so.11:_ZN66_$LT$core..core_arch..simd..u32x16$u20$as$u20$core..fmt..Debug$GT$3fmt17h802814d870f16cbfE
libclamav.so.11:_ZN66_$LT$core..core_arch..x86..__m128d$u20$as$u20$core..fmt..Debug$GT$3fmt17hce605dd270d818bfE
libclamav.so.11:_ZN66_$LT$core..core_arch..x86..__m128i$u20$as$u20$core..fmt..Debug$GT$3fmt17hdf760c1a9beee357E
libclamav.so.11:_ZN66_$LT$core..core_arch..x86..__m256d$u20$as$u20$core..fmt..Debug$GT$3fmt17h4a2f014ada7e3119E
libclamav.so.11:_ZN66_$LT$core..core_arch..x86..__m256i$u20$as$u20$core..fmt..Debug$GT$3fmt17hafbd524c6ca8fa9dE
libclamav.so.11:_ZN66_$LT$core..core_arch..x86..__m512d$u20$as$u20$core..fmt..Debug$GT$3fmt17hf092a4f51b499e98E
libclamav.so.11:_ZN66_$LT$core..core_arch..x86..__m512i$u20$as$u20$core..fmt..Debug$GT$3fmt17h29b4f8f4bab71065E
libclamav.so.11:_ZN66_$LT$core..num..bignum..Big32x40$u20$as$u20$core..clone..Clone$GT$5clone17h757960e35efba4c8E
libclamav.so.11:_ZN66_$LT$core..str..error..Utf8Error$u20$as$u20$core..error..Error$GT$11description17h6cb8380ce22be72eE
libclamav.so.11:_ZN66_$LT$core..str..error..Utf8Error$u20$as$u20$core..fmt..Display$GT$3fmt17h4278c58941734a33E
libclamav.so.11:_ZN66_$LT$core..sync..atomic..AtomicI16$u20$as$u20$core..fmt..Debug$GT$3fmt17hdd0e9fb70a168351E
libclamav.so.11:_ZN66_$LT$core..sync..atomic..AtomicI32$u20$as$u20$core..fmt..Debug$GT$3fmt17h00bbf63220667e0bE
libclamav.so.11:_ZN66_$LT$core..sync..atomic..AtomicI64$u20$as$u20$core..fmt..Debug$GT$3fmt17h920807d7b558b4d0E
libclamav.so.11:_ZN66_$LT$core..sync..atomic..AtomicU16$u20$as$u20$core..fmt..Debug$GT$3fmt17h4253035400066e17E
libclamav.so.11:_ZN66_$LT$core..sync..atomic..AtomicU32$u20$as$u20$core..fmt..Debug$GT$3fmt17hdcf98253598e6d46E
libclamav.so.11:_ZN66_$LT$core..sync..atomic..AtomicU64$u20$as$u20$core..fmt..Debug$GT$3fmt17h58a32c029cfbc638E
libclamav.so.11:_ZN66_$LT$crossbeam_epoch..epoch..Epoch$u20$as$u20$core..fmt..Debug$GT$3fmt17hdb6daa4eb4169bcaE
libclamav.so.11:_ZN66_$LT$crossbeam_epoch..guard..Guard$u20$as$u20$core..fmt..Debug$GT$3fmt17hb222413ba481f6afE
libclamav.so.11:_ZN66_$LT$exr..block..UncompressedBlock$u20$as$u20$core..fmt..Debug$GT$3fmt17h5c63fdea9c1e51e0E
libclamav.so.11:_ZN66_$LT$exr..compression..Compression$u20$as$u20$core..fmt..Debug$GT$3fmt17h066efd4d4328d4abE
libclamav.so.11:_ZN66_$LT$exr..image..read..ReadBuilder$u20$as$u20$core..fmt..Debug$GT$3fmt17hbb6f32a221af9a91E
libclamav.so.11:_ZN66_$LT$exr..meta..attribute..KeyCode$u20$as$u20$core..fmt..Debug$GT$3fmt17h648d747bfebdee2cE
libclamav.so.11:_ZN66_$LT$exr..meta..attribute..Preview$u20$as$u20$core..fmt..Debug$GT$3fmt17hafe6e14a61665867E
libclamav.so.11:_ZN66_$LT$gif..encoder..EncodingError$u20$as$u20$core..error..Error$GT$6source17h32b887e37f564b37E
libclamav.so.11:_ZN66_$LT$gif..encoder..EncodingError$u20$as$u20$core..fmt..Display$GT$3fmt17he16189c7a2fd8019E
libclamav.so.11:_ZN66_$LT$gif..encoder..FormatErrorKind$u20$as$u20$core..fmt..Debug$GT$3fmt17h451e221d37f4cc80E
libclamav.so.11:_ZN66_$LT$gif..reader..decoder..Decoded$u20$as$u20$core..fmt..Debug$GT$3fmt17h5f78d63304ed6c1fE
libclamav.so.11:_ZN66_$LT$gif..reader..decoder..Version$u20$as$u20$core..fmt..Debug$GT$3fmt17h16ae1b397afbc4ccE
libclamav.so.11:_ZN66_$LT$gimli..constants..DwDefaulted$u20$as$u20$core..fmt..Debug$GT$3fmt17h0201ec6a9391af5cE
libclamav.so.11:_ZN66_$LT$gimli..read..line..ColumnType$u20$as$u20$core..fmt..Debug$GT$3fmt17h4033a7b6b0c1ea31E
libclamav.so.11:_ZN66_$LT$gimli..read..value..ValueType$u20$as$u20$core..fmt..Debug$GT$3fmt17h6c2e3c96b4975df8E
libclamav.so.11:_ZN66_$LT$half..binary16..f16$u20$as$u20$core..str..traits..FromStr$GT$8from_str17h87698dd6e5b4b1dbE
libclamav.so.11:_ZN66_$LT$image..dynimage..DynamicImage$u20$as$u20$core..fmt..Debug$GT$3fmt17h467051bb063666d5E
libclamav.so.11:_ZN66_$LT$image..error..DecodingError$u20$as$u20$core..error..Error$GT$6source17h0ab0358241ca8716E
libclamav.so.11:_ZN66_$LT$image..error..DecodingError$u20$as$u20$core..fmt..Display$GT$3fmt17hfb5afbe90e1486baE
libclamav.so.11:_ZN66_$LT$image..error..EncodingError$u20$as$u20$core..error..Error$GT$6source17h370affb7416bfe4aE
libclamav.so.11:_ZN66_$LT$image..error..EncodingError$u20$as$u20$core..fmt..Display$GT$3fmt17ha7fd07d8764621fcE
libclamav.so.11:_ZN66_$LT$image..error..ImageFormatHint$u20$as$u20$core..fmt..Debug$GT$3fmt17h3720b1fbcc12007aE
libclamav.so.11:_ZN66_$LT$image..io..LimitSupport$u20$as$u20$core..default..Default$GT$7default17h6f3efad0c960d9b4E
libclamav.so.11:_ZN66_$LT$jpeg_decoder..parser..AppData$u20$as$u20$core..fmt..Debug$GT$3fmt17hbd1c8249696c96d7E
libclamav.so.11:_ZN66_$LT$libc..unix..align..in6_addr$u20$as$u20$core..clone..Clone$GT$5clone17h8459c8ffb07ce75fE
libclamav.so.11:_ZN66_$LT$memchr..memmem..FinderBuilder$u20$as$u20$core..fmt..Debug$GT$3fmt17he18b7f2708b70be6E
libclamav.so.11:_ZN66_$LT$memchr..memmem..twoway..Shift$u20$as$u20$core..fmt..Debug$GT$3fmt17h2a59df0f3b0ddb60E
libclamav.so.11:_ZN66_$LT$object..macho..RelocationInfo$u20$as$u20$core..fmt..Debug$GT$3fmt17h23b14c5b6d7274e9E
libclamav.so.11:_ZN66_$LT$object..pe..ImageAuxSymbolCrc$u20$as$u20$core..fmt..Debug$GT$3fmt17hdd32d709b0f3ff6eE
libclamav.so.11:_ZN66_$LT$object..pe..ImageHotPatchBase$u20$as$u20$core..fmt..Debug$GT$3fmt17ha61020a1f8153283E
libclamav.so.11:_ZN66_$LT$object..pe..ImageHotPatchInfo$u20$as$u20$core..fmt..Debug$GT$3fmt17hc0906a705e8f3cf1E
libclamav.so.11:_ZN66_$LT$object..pe..ImageImportByName$u20$as$u20$core..fmt..Debug$GT$3fmt17hf98d42009bddad2eE
libclamav.so.11:_ZN66_$LT$object..pe..NonPagedDebugInfo$u20$as$u20$core..fmt..Debug$GT$3fmt17h884bc5e6cabf7bf8E
libclamav.so.11:_ZN66_$LT$object..read..util..DebugByte$u20$as$u20$core..fmt..Debug$GT$3fmt17hf0b6553197dd811aE
libclamav.so.11:_ZN66_$LT$png..common..AnimationControl$u20$as$u20$core..fmt..Debug$GT$3fmt17hf2b77d74ace98ee4E
libclamav.so.11:_ZN66_$LT$png..common..ParameterError$u20$as$u20$core..fmt..Display$GT$3fmt17h67af5cc53d69d251E
libclamav.so.11:_ZN66_$LT$png..common..Transformations$u20$as$u20$core..fmt..Binary$GT$3fmt17hca9953ff3db0b275E
libclamav.so.11:_ZN66_$LT$png..decoder..stream..Decoded$u20$as$u20$core..fmt..Debug$GT$3fmt17h39a309f95a233385E
libclamav.so.11:_ZN66_$LT$png..encoder..EncodingError$u20$as$u20$core..error..Error$GT$5cause17h06db62bc76dd3bc9E
libclamav.so.11:_ZN66_$LT$png..encoder..EncodingError$u20$as$u20$core..fmt..Display$GT$3fmt17h335a59d5eaf357c5E
libclamav.so.11:_ZN66_$LT$png..encoder..FormatErrorKind$u20$as$u20$core..fmt..Debug$GT$3fmt17h93df964b9aa8cb64E
libclamav.so.11:_ZN66_$LT$png..filter..FilterType$u20$as$u20$core..default..Default$GT$7default17h53061bc0d7977c1bE
libclamav.so.11:_ZN66_$LT$png..text_metadata..ITXtChunk$u20$as$u20$core..fmt..Debug$GT$3fmt17h37c79c860d4b79f8E
libclamav.so.11:_ZN66_$LT$png..text_metadata..TEXtChunk$u20$as$u20$core..fmt..Debug$GT$3fmt17hf930259fa0e19a30E
libclamav.so.11:_ZN66_$LT$png..text_metadata..ZTXtChunk$u20$as$u20$core..fmt..Debug$GT$3fmt17h3bcc9604dc0b0d14E
libclamav.so.11:_ZN66_$LT$rayon_core..latch..CountLatch$u20$as$u20$core..fmt..Debug$GT$3fmt17h1abce2c977285724E
libclamav.so.11:_ZN66_$LT$rayon_core..scope..ScopeLatch$u20$as$u20$core..fmt..Debug$GT$3fmt17ha5ea16e788a9b534E
libclamav.so.11:_ZN66_$LT$scoped_threadpool..Scope$u20$as$u20$core..ops..drop..Drop$GT$4drop17h7134c3c31f7fff64E
libclamav.so.11:_ZN66_$LT$std..error..private..Internal$u20$as$u20$core..fmt..Debug$GT$3fmt17h1c24c381a622a431E
libclamav.so.11:_ZN66_$LT$std..io..error..SimpleMessage$u20$as$u20$core..fmt..Debug$GT$3fmt17h48ffc0097fb9b9aeE
libclamav.so.11:_ZN66_$LT$std..io..readbuf..BorrowedBuf$u20$as$u20$core..fmt..Debug$GT$3fmt17h47c37056f8ead0ceE
libclamav.so.11:_ZN66_$LT$std..net..ip_addr..Ipv4Addr$u20$as$u20$core..fmt..Display$GT$3fmt17h75ceacd5a03a77faE
libclamav.so.11:_ZN66_$LT$std..net..ip_addr..Ipv6Addr$u20$as$u20$core..fmt..Display$GT$3fmt17h37d40fcc00c352d2E
libclamav.so.11:_ZN66_$LT$std..path..StripPrefixError$u20$as$u20$core..error..Error$GT$11description17hc05360885c46f5e1E
libclamav.so.11:_ZN66_$LT$std..path..StripPrefixError$u20$as$u20$core..fmt..Display$GT$3fmt17h1e7ffcb82c79b504E
libclamav.so.11:_ZN66_$LT$std..process..ExitStatusError$u20$as$u20$core..fmt..Debug$GT$3fmt17hf1aa701009511333E
libclamav.so.11:_ZN66_$LT$std..sync..mpsc..TryRecvError$u20$as$u20$core..fmt..Debug$GT$3fmt17h58a70292e55239adE
libclamav.so.11:_ZN66_$LT$std..sys..unix..fs..FileTimes$u20$as$u20$core..fmt..Debug$GT$3fmt17h4b6399ad6117c32cE
libclamav.so.11:_ZN66_$LT$std..sys..unix..os_str..Buf$u20$as$u20$core..fmt..Display$GT$3fmt17hddb598ee41da9fe5E
libclamav.so.11:_ZN66_$LT$std..sys..unix..os_str..Slice$u20$as$u20$core..fmt..Debug$GT$3fmt17h74a6e9c9823a203fE
libclamav.so.11:_ZN66_$LT$std..sys_common..wtf8..Wtf8$u20$as$u20$core..fmt..Display$GT$3fmt17hc46f86e9a201ddc8E
libclamav.so.11:_ZN66_$LT$tempfile..file..NamedTempFile$u20$as$u20$core..fmt..Debug$GT$3fmt17haf2a208b6d894cd8E
libclamav.so.11:_ZN66_$LT$tempfile..file..TempPath$u20$as$u20$core..ops..drop..Drop$GT$4drop17h1d9c18eb0ac2fd84E
libclamav.so.11:_ZN66_$LT$tiff..decoder..DecodingResult$u20$as$u20$core..fmt..Debug$GT$3fmt17hf58dc50df611f367E
libclamav.so.11:_ZN66_$LT$tiff..error..JpegDecoderError$u20$as$u20$core..fmt..Debug$GT$3fmt17h33b5fe19d9dc184aE
libclamav.so.11:_ZN66_$LT$tiff..tags..CompressionMethod$u20$as$u20$core..fmt..Debug$GT$3fmt17hbc9634216af7188fE
libclamav.so.11:_ZN66_$LT$weezl..encode..LsbBuffer$u20$as$u20$weezl..encode..Buffer$GT$10buffer_pad17hce9ae7669b5473bbE
libclamav.so.11:_ZN66_$LT$weezl..encode..LsbBuffer$u20$as$u20$weezl..encode..Buffer$GT$11buffer_code17h2afb3d4b85ea9799E
libclamav.so.11:_ZN66_$LT$weezl..encode..LsbBuffer$u20$as$u20$weezl..encode..Buffer$GT$14bump_code_size17hee50277ec2627b57E
libclamav.so.11:_ZN66_$LT$weezl..encode..LsbBuffer$u20$as$u20$weezl..encode..Buffer$GT$3new17hde22de3a3283f8b4E
libclamav.so.11:_ZN66_$LT$weezl..encode..LsbBuffer$u20$as$u20$weezl..encode..Buffer$GT$5clear17hd9f77a007f64d6f4E
libclamav.so.11:_ZN66_$LT$weezl..encode..LsbBuffer$u20$as$u20$weezl..encode..Buffer$GT$5reset17h82a2c945f53d340cE
libclamav.so.11:_ZN66_$LT$weezl..encode..LsbBuffer$u20$as$u20$weezl..encode..Buffer$GT$8max_code17he8aa7ae584dcd9a3E
libclamav.so.11:_ZN66_$LT$weezl..encode..LsbBuffer$u20$as$u20$weezl..encode..Buffer$GT$8push_out17hcc19e65c96a69e61E
libclamav.so.11:_ZN66_$LT$weezl..encode..LsbBuffer$u20$as$u20$weezl..encode..Buffer$GT$9code_size17h7bbed0ce1f6fa47aE
libclamav.so.11:_ZN66_$LT$weezl..encode..LsbBuffer$u20$as$u20$weezl..encode..Buffer$GT$9flush_out17hec2e157fe72f2c2fE
libclamav.so.11:_ZN66_$LT$weezl..encode..MsbBuffer$u20$as$u20$weezl..encode..Buffer$GT$10buffer_pad17h80d22b25fe0db85cE
libclamav.so.11:_ZN66_$LT$weezl..encode..MsbBuffer$u20$as$u20$weezl..encode..Buffer$GT$11buffer_code17h72b6657c0c3a934aE
libclamav.so.11:_ZN66_$LT$weezl..encode..MsbBuffer$u20$as$u20$weezl..encode..Buffer$GT$14bump_code_size17h415e4b9d5954fe38E
libclamav.so.11:_ZN66_$LT$weezl..encode..MsbBuffer$u20$as$u20$weezl..encode..Buffer$GT$3new17h871e948025e884a1E
libclamav.so.11:_ZN66_$LT$weezl..encode..MsbBuffer$u20$as$u20$weezl..encode..Buffer$GT$5clear17h522b5354f84e41aeE
libclamav.so.11:_ZN66_$LT$weezl..encode..MsbBuffer$u20$as$u20$weezl..encode..Buffer$GT$5reset17h73bca10a167ee782E
libclamav.so.11:_ZN66_$LT$weezl..encode..MsbBuffer$u20$as$u20$weezl..encode..Buffer$GT$8max_code17h2bcbde84475dd2e1E
libclamav.so.11:_ZN66_$LT$weezl..encode..MsbBuffer$u20$as$u20$weezl..encode..Buffer$GT$8push_out17h69953697db2870d2E
libclamav.so.11:_ZN66_$LT$weezl..encode..MsbBuffer$u20$as$u20$weezl..encode..Buffer$GT$9code_size17hd3a6cbc5115b652cE
libclamav.so.11:_ZN66_$LT$weezl..encode..MsbBuffer$u20$as$u20$weezl..encode..Buffer$GT$9flush_out17hf7ac4f348704564aE
libclamav.so.11:_ZN67_$LT$$RF$tempfile..file..NamedTempFile$u20$as$u20$std..io..Read$GT$4read17h00fe809e2fbb0870E
libclamav.so.11:_ZN67_$LT$$RF$tempfile..file..NamedTempFile$u20$as$u20$std..io..Seek$GT$4seek17h7f84bafa10e2c72fE
libclamav.so.11:_ZN67_$LT$alloc..boxed..Box$LT$str$GT$$u20$as$u20$core..clone..Clone$GT$5clone17he293757e471b851eE
libclamav.so.11:_ZN67_$LT$alloc..string..FromUtf8Error$u20$as$u20$core..error..Error$GT$11description17h70e7f934b5205796E
libclamav.so.11:_ZN67_$LT$alloc..string..FromUtf8Error$u20$as$u20$core..fmt..Display$GT$3fmt17hba55288e58d92fb7E
libclamav.so.11:_ZN67_$LT$core..array..TryFromSliceError$u20$as$u20$core..fmt..Debug$GT$3fmt17h32d8b5d168f1b730E
libclamav.so.11:_ZN67_$LT$core..char..EscapeDefaultState$u20$as$u20$core..fmt..Debug$GT$3fmt17hee39c5e216386cf7E
libclamav.so.11:_ZN67_$LT$core..char..EscapeUnicodeState$u20$as$u20$core..fmt..Debug$GT$3fmt17h5d6d7738801badc8E
libclamav.so.11:_ZN67_$LT$core..char..TryFromCharError$u20$as$u20$core..fmt..Display$GT$3fmt17hb355a856c111d94dE
libclamav.so.11:_ZN67_$LT$core..convert..Infallible$u20$as$u20$core..cmp..PartialOrd$GT$11partial_cmp17h946f00628d5699b8E
libclamav.so.11:_ZN67_$LT$core..core_arch..x86..__m128bh$u20$as$u20$core..fmt..Debug$GT$3fmt17hdc0eefb554faf72bE
libclamav.so.11:_ZN67_$LT$core..core_arch..x86..__m256bh$u20$as$u20$core..fmt..Debug$GT$3fmt17ha44f0d5173cb41bfE
libclamav.so.11:_ZN67_$LT$core..core_arch..x86..__m512bh$u20$as$u20$core..fmt..Debug$GT$3fmt17hb0a0d8f710bd6bb2E
libclamav.so.11:_ZN67_$LT$core..error..private..Internal$u20$as$u20$core..fmt..Debug$GT$3fmt17hff738e56fb037cc7E
libclamav.so.11:_ZN67_$LT$core..num..bignum..tests..Big8x3$u20$as$u20$core..cmp..Ord$GT$3cmp17h077dbc729df2777cE
libclamav.so.11:_ZN67_$LT$core..num..error..IntErrorKind$u20$as$u20$core..fmt..Debug$GT$3fmt17hc0af18d169edcedaE
libclamav.so.11:_ZN67_$LT$core..str..iter..EscapeDebug$u20$as$u20$core..fmt..Display$GT$3fmt17hd6aebd697741a7d7E
libclamav.so.11:_ZN67_$LT$core..str..iter..EscapeDefault$u20$as$u20$core..fmt..Debug$GT$3fmt17h269ec0262270b3f4E
libclamav.so.11:_ZN67_$LT$core..str..iter..EscapeUnicode$u20$as$u20$core..fmt..Debug$GT$3fmt17h941ad25faf76a74fE
libclamav.so.11:_ZN67_$LT$core..str..pattern..SearchStep$u20$as$u20$core..fmt..Debug$GT$3fmt17h63352ffe43cfd83bE
libclamav.so.11:_ZN67_$LT$core..sync..atomic..AtomicBool$u20$as$u20$core..fmt..Debug$GT$3fmt17h75d30ec78cda7dc2E
libclamav.so.11:_ZN67_$LT$crossbeam_epoch..internal..Bag$u20$as$u20$core..fmt..Debug$GT$3fmt17hd8262c4c79f73ce2E
libclamav.so.11:_ZN67_$LT$exr..image..FlatSampleIterator$u20$as$u20$core..fmt..Debug$GT$3fmt17h6b766a9173782adfE
libclamav.so.11:_ZN67_$LT$exr..meta..attribute..TimeCode$u20$as$u20$core..fmt..Debug$GT$3fmt17hcb06c4fc6dd87a73E
libclamav.so.11:_ZN67_$LT$f32$u20$as$u20$core..num..flt2dec..decoder..DecodableFloat$GT$18min_pos_norm_value17h38106c8def182e6dE
libclamav.so.11:_ZN67_$LT$f64$u20$as$u20$core..num..flt2dec..decoder..DecodableFloat$GT$18min_pos_norm_value17h0ca85ccb632ffdf2E
libclamav.so.11:_ZN67_$LT$flate2..mem..DecompressError$u20$as$u20$core..fmt..Display$GT$3fmt17h2af0f0333ee232e0E
libclamav.so.11:_ZN67_$LT$flate2..mem..FlushDecompress$u20$as$u20$flate2..zio..Flush$GT$4none17h62d050967613c1e8E
libclamav.so.11:_ZN67_$LT$flate2..mem..FlushDecompress$u20$as$u20$flate2..zio..Flush$GT$4sync17h977ccdf3f4d2ef9fE
libclamav.so.11:_ZN67_$LT$flate2..mem..FlushDecompress$u20$as$u20$flate2..zio..Flush$GT$6finish17h3fe8be58feac5edfE
libclamav.so.11:_ZN67_$LT$flume..signal..SyncSignal$u20$as$u20$flume..signal..Signal$GT$4fire17h7e34ec4c5b9abc74E
libclamav.so.11:_ZN67_$LT$flume..signal..SyncSignal$u20$as$u20$flume..signal..Signal$GT$6as_any17h3c01b19d63bfde15E
libclamav.so.11:_ZN67_$LT$flume..signal..SyncSignal$u20$as$u20$flume..signal..Signal$GT$6as_ptr17hbb1781e1f0f58372E
libclamav.so.11:_ZN67_$LT$gif..reader..decoder..U16Value$u20$as$u20$core..fmt..Debug$GT$3fmt17hf302d3613b3cdc2bE
libclamav.so.11:_ZN67_$LT$gimli..constants..DwChildren$u20$as$u20$core..fmt..Display$GT$3fmt17h5778c1657b214266E
libclamav.so.11:_ZN67_$LT$gimli..constants..DwVirtuality$u20$as$u20$core..fmt..Debug$GT$3fmt17h2db7497f906539b6E
libclamav.so.11:_ZN67_$LT$gimli..endianity..LittleEndian$u20$as$u20$core..fmt..Debug$GT$3fmt17he31756ff6a936e29E
libclamav.so.11:_ZN67_$LT$gimli..read..cfi..Augmentation$u20$as$u20$core..fmt..Debug$GT$3fmt17h5a2e56554ce43b4dE
libclamav.so.11:_ZN67_$LT$image..codecs..dds..DX10Header$u20$as$u20$core..fmt..Debug$GT$3fmt17hb90fde80b28824cfE
libclamav.so.11:_ZN67_$LT$image..codecs..dxt..DxtVariant$u20$as$u20$core..fmt..Debug$GT$3fmt17ha213a70fc829fe37E
libclamav.so.11:_ZN67_$LT$image..codecs..png..FilterType$u20$as$u20$core..fmt..Debug$GT$3fmt17ha9e64561d52ba38bE
libclamav.so.11:_ZN67_$LT$image..error..ParameterError$u20$as$u20$core..error..Error$GT$6source17hef08667d9db57e8bE
libclamav.so.11:_ZN67_$LT$image..error..ParameterError$u20$as$u20$core..fmt..Display$GT$3fmt17hfdc63dd1345abfb6E
libclamav.so.11:_ZN67_$LT$image..error..UnsupportedError$u20$as$u20$core..fmt..Debug$GT$3fmt17h026ed31417fec4ceE
libclamav.so.11:_ZN67_$LT$jpeg_decoder..parser..IccChunk$u20$as$u20$core..fmt..Debug$GT$3fmt17hfd74eeb904bb2e5eE
libclamav.so.11:_ZN67_$LT$jpeg_decoder..parser..ScanInfo$u20$as$u20$core..fmt..Debug$GT$3fmt17h39d736826878c0a9E
libclamav.so.11:_ZN67_$LT$memchr..memmem..SearcherConfig$u20$as$u20$core..fmt..Debug$GT$3fmt17hfb37fd99f3c5dc04E
libclamav.so.11:_ZN67_$LT$memchr..memmem..twoway..Suffix$u20$as$u20$core..fmt..Debug$GT$3fmt17hb3182677636f0f68E
libclamav.so.11:_ZN67_$LT$memchr..memmem..twoway..TwoWay$u20$as$u20$core..fmt..Debug$GT$3fmt17h68aa282629451c05E
libclamav.so.11:_ZN67_$LT$num_cpus..linux..CgroupVersion$u20$as$u20$core..fmt..Debug$GT$3fmt17h64b96c1c4876a606E
libclamav.so.11:_ZN67_$LT$object..common..RelocationKind$u20$as$u20$core..fmt..Debug$GT$3fmt17hf3669788dfd9724cE
libclamav.so.11:_ZN67_$LT$object..pe..AnonObjectHeaderV2$u20$as$u20$core..fmt..Debug$GT$3fmt17h7b656666f3dafaa9E
libclamav.so.11:_ZN67_$LT$object..pe..ImageAuxSymbolWeak$u20$as$u20$core..fmt..Debug$GT$3fmt17hd15be17b122d7d08E
libclamav.so.11:_ZN67_$LT$object..pe..ImageDataDirectory$u20$as$u20$core..fmt..Debug$GT$3fmt17hd56d60c37b1c014cE
libclamav.so.11:_ZN67_$LT$object..pe..ImageEnclaveImport$u20$as$u20$core..fmt..Debug$GT$3fmt17h25903f2316bfb006E
libclamav.so.11:_ZN67_$LT$object..pe..ImageFunctionEntry$u20$as$u20$core..fmt..Debug$GT$3fmt17hb3ba4f7fa23a7b61E
libclamav.so.11:_ZN67_$LT$object..pe..ImageSectionHeader$u20$as$u20$core..fmt..Debug$GT$3fmt17h14f71fa4f1856379E
libclamav.so.11:_ZN67_$LT$object..pe..ImageSymbolExBytes$u20$as$u20$core..fmt..Debug$GT$3fmt17h4f6c6b24ce14fb28E
libclamav.so.11:_ZN67_$LT$object..pe..ImportObjectHeader$u20$as$u20$core..fmt..Debug$GT$3fmt17h699a75c0aaed06b3E
libclamav.so.11:_ZN67_$LT$object..read..RelocationTarget$u20$as$u20$core..fmt..Debug$GT$3fmt17h11dd97ab932e2e47E
libclamav.so.11:_ZN67_$LT$object..read..util..ByteString$u20$as$u20$core..fmt..Debug$GT$3fmt17hbc9aa61e5c913dedE
libclamav.so.11:_ZN67_$LT$png..common..Compression$u20$as$u20$core..default..Default$GT$7default17h24400620f796f9e2E
libclamav.so.11:_ZN67_$LT$png..decoder..stream..U32Value$u20$as$u20$core..fmt..Debug$GT$3fmt17hfed3a79dd4c0dca6E
libclamav.so.11:_ZN67_$LT$rustc_demangle..v0..Demangle$u20$as$u20$core..fmt..Display$GT$3fmt17h25d0895f1825458cE
libclamav.so.11:_ZN67_$LT$rustc_demangle..v0..ParseError$u20$as$u20$core..fmt..Debug$GT$3fmt17hd7fa9b15f8034ee1E
libclamav.so.11:_ZN67_$LT$smallvec..CollectionAllocErr$u20$as$u20$core..fmt..Display$GT$3fmt17h2d1a9c7fdba56a04E
libclamav.so.11:_ZN67_$LT$std..backtrace..BacktraceFrame$u20$as$u20$core..fmt..Debug$GT$3fmt17h500c044acd2b7790E
libclamav.so.11:_ZN67_$LT$std..io..readbuf..BorrowedCursor$u20$as$u20$std..io..Write$GT$5flush17he924a7f992670fc6E
libclamav.so.11:_ZN67_$LT$std..io..readbuf..BorrowedCursor$u20$as$u20$std..io..Write$GT$5write17hbfc7089864b3a17fE
libclamav.so.11:_ZN67_$LT$std..os..fd..owned..BorrowedFd$u20$as$u20$core..fmt..Debug$GT$3fmt17h6f4efda54f80f32fE
libclamav.so.11:_ZN67_$LT$std..os..linux..process..PidFd$u20$as$u20$core..fmt..Debug$GT$3fmt17h50146841a182fca3E
libclamav.so.11:_ZN67_$LT$std..sync..mpmc..select..Token$u20$as$u20$core..fmt..Debug$GT$3fmt17h7f6a7be2c6aac974E
libclamav.so.11:_ZN67_$LT$std..sys..unix..fs..DirBuilder$u20$as$u20$core..fmt..Debug$GT$3fmt17h47f4fe54ac029e4dE
libclamav.so.11:_ZN67_$LT$tempfile..file..PersistError$u20$as$u20$core..error..Error$GT$6source17h4c60e561c743d3eeE
libclamav.so.11:_ZN67_$LT$tempfile..file..PersistError$u20$as$u20$core..fmt..Display$GT$3fmt17he0641d3b1039d234E
libclamav.so.11:_ZN67_$LT$tiff..decoder..stream..JpegReader$u20$as$u20$std..io..Read$GT$4read17hd7b8aa810f10848cE
libclamav.so.11:_ZN67_$LT$tiff..error..TiffFormatError$u20$as$u20$core..fmt..Display$GT$3fmt17he3cf746ddd5d34c7E
libclamav.so.11:_ZN68_$LT$$RF$$u5b$u8$u5d$$u20$as$u20$object..read..read_ref..ReadRef$GT$13read_bytes_at17h07886900113e0b93E
libclamav.so.11:_ZN68_$LT$$RF$$u5b$u8$u5d$$u20$as$u20$object..read..read_ref..ReadRef$GT$19read_bytes_at_until17h94445844b57b1bdbE
libclamav.so.11:_ZN68_$LT$$RF$$u5b$u8$u5d$$u20$as$u20$object..read..read_ref..ReadRef$GT$3len17hb51fdd2196e2c06fE
libclamav.so.11:_ZN68_$LT$$RF$tempfile..file..NamedTempFile$u20$as$u20$std..io..Write$GT$5write17h1c71b269ae7c0928E
libclamav.so.11:_ZN68_$LT$alloc..string..FromUtf16Error$u20$as$u20$core..error..Error$GT$11description17hcf140256c77288bdE
libclamav.so.11:_ZN68_$LT$alloc..string..FromUtf16Error$u20$as$u20$core..fmt..Display$GT$3fmt17hdd621ecc7e725304E
libclamav.so.11:_ZN68_$LT$core..core_simd..swizzle..Which$u20$as$u20$core..fmt..Debug$GT$3fmt17h7e56b59aaafc5459E
libclamav.so.11:_ZN68_$LT$core..fmt..builders..PadAdapter$u20$as$u20$core..fmt..Write$GT$9write_str17hc4aeb683b743220bE
libclamav.so.11:_ZN68_$LT$core..num..bignum..Big32x40$u20$as$u20$core..cmp..PartialEq$GT$2eq17he30cd60f4a364b64E
libclamav.so.11:_ZN68_$LT$core..num..error..ParseIntError$u20$as$u20$core..fmt..Debug$GT$3fmt17h72f915d116085b50E
libclamav.so.11:_ZN68_$LT$core..panic..location..Location$u20$as$u20$core..fmt..Debug$GT$3fmt17hc345bb1b61f0a0dfE
libclamav.so.11:_ZN68_$LT$core..ptr..alignment..Alignment$u20$as$u20$core..fmt..Debug$GT$3fmt17h6d5ba38cacd81a20E
libclamav.so.11:_ZN68_$LT$core..slice..ascii..EscapeAscii$u20$as$u20$core..fmt..Debug$GT$3fmt17h2f1c8f8563fbd123E
libclamav.so.11:_ZN68_$LT$core..str..pattern..EmptyNeedle$u20$as$u20$core..fmt..Debug$GT$3fmt17ha3d5be7b6761bad5E
libclamav.so.11:_ZN68_$LT$core..str..pattern..StrSearcher$u20$as$u20$core..fmt..Debug$GT$3fmt17h29fd862b031133c2E
libclamav.so.11:_ZN68_$LT$core..sync..atomic..AtomicIsize$u20$as$u20$core..fmt..Debug$GT$3fmt17h274394326ac48b28E
libclamav.so.11:_ZN68_$LT$core..sync..atomic..AtomicUsize$u20$as$u20$core..fmt..Debug$GT$3fmt17hc91ffaae35612630E
libclamav.so.11:_ZN68_$LT$core..time..Duration$u20$as$u20$core..ops..arith..AddAssign$GT$10add_assign17he985ae9f06b60ca2E
libclamav.so.11:_ZN68_$LT$core..time..Duration$u20$as$u20$core..ops..arith..SubAssign$GT$10sub_assign17h854cde9e6ccce137E
libclamav.so.11:_ZN68_$LT$exr..block..samples..Sample$u20$as$u20$core..cmp..PartialEq$GT$2eq17h47e769e40c670e92E
libclamav.so.11:_ZN68_$LT$exr..compression..Compression$u20$as$u20$core..fmt..Display$GT$3fmt17h4d5efdfa04907099E
libclamav.so.11:_ZN68_$LT$exr..image..recursive..NoneMore$u20$as$u20$core..fmt..Debug$GT$3fmt17ha3ca4a32473611ebE
libclamav.so.11:_ZN68_$LT$exr..meta..attribute..BlockType$u20$as$u20$core..fmt..Debug$GT$3fmt17h8b00ec4d34afda7cE
libclamav.so.11:_ZN68_$LT$exr..meta..attribute..FloatRect$u20$as$u20$core..fmt..Debug$GT$3fmt17hf5293c6d91803a97E
libclamav.so.11:_ZN68_$LT$exr..meta..attribute..LevelMode$u20$as$u20$core..fmt..Debug$GT$3fmt17h047eaec0b55aeaceE
libclamav.so.11:_ZN68_$LT$exr..meta..attribute..LineOrder$u20$as$u20$core..fmt..Debug$GT$3fmt17h95d546df647a1a05E
libclamav.so.11:_ZN68_$LT$f32$u20$as$u20$exr..image..validate_results..ValidateResult$GT$15validate_result17h2fde1b06e24315ddE
libclamav.so.11:_ZN68_$LT$flume..signal..SyncSignal$u20$as$u20$core..default..Default$GT$7default17h36cc2ec4cb4e6080E
libclamav.so.11:_ZN68_$LT$gif..reader..decoder..ByteValue$u20$as$u20$core..fmt..Debug$GT$3fmt17hbea1edf7b14446c4E
libclamav.so.11:_ZN68_$LT$gimli..constants..DwDefaulted$u20$as$u20$core..fmt..Display$GT$3fmt17h74ff51e0dc2899c3E
libclamav.so.11:_ZN68_$LT$gimli..endianity..RunTimeEndian$u20$as$u20$core..fmt..Debug$GT$3fmt17hfd73455c23afa1b7E
libclamav.so.11:_ZN68_$LT$gimli..read..abbrev..Attributes$u20$as$u20$core..fmt..Debug$GT$3fmt17hebc5f484469ccf6fE
libclamav.so.11:_ZN68_$LT$gimli..read..cfi..BaseAddresses$u20$as$u20$core..fmt..Debug$GT$3fmt17hed8e30888004ba46E
libclamav.so.11:_ZN68_$LT$gimli..read..lists..ListsHeader$u20$as$u20$core..fmt..Debug$GT$3fmt17h0d065d1094b0165bE
libclamav.so.11:_ZN68_$LT$gimli..read..rnglists..RawRange$u20$as$u20$core..fmt..Debug$GT$3fmt17hac132892cccf930eE
libclamav.so.11:_ZN68_$LT$image..codecs..dds..PixelFormat$u20$as$u20$core..fmt..Debug$GT$3fmt17ha14d23cda5dbba1fE
libclamav.so.11:_ZN68_$LT$image..codecs..webp..vp8..Frame$u20$as$u20$core..fmt..Debug$GT$3fmt17h94d9f1fcda96f326E
libclamav.so.11:_ZN68_$LT$image..color..ExtendedColorType$u20$as$u20$core..fmt..Debug$GT$3fmt17hb9a1b86bb5ba0036E
libclamav.so.11:_ZN68_$LT$image..error..ImageFormatHint$u20$as$u20$core..fmt..Display$GT$3fmt17heb02809e6341705fE
libclamav.so.11:_ZN68_$LT$image..image..ImageOutputFormat$u20$as$u20$core..fmt..Debug$GT$3fmt17h19eb1470b9eabf7eE
libclamav.so.11:_ZN68_$LT$jpeg_decoder..parser..Component$u20$as$u20$core..fmt..Debug$GT$3fmt17h9e1468a7ea8efbdaE
libclamav.so.11:_ZN68_$LT$jpeg_decoder..parser..Predictor$u20$as$u20$core..fmt..Debug$GT$3fmt17hba2bfdbac94f0831E
libclamav.so.11:_ZN68_$LT$libc..unix..linux_like..lconv$u20$as$u20$core..clone..Clone$GT$5clone17h18d978bacde771dbE
libclamav.so.11:_ZN68_$LT$memchr..memmem..SearcherRevKind$u20$as$u20$core..fmt..Debug$GT$3fmt17h69ec782936ad9e76E
libclamav.so.11:_ZN68_$LT$memchr..memmem..rabinkarp..Hash$u20$as$u20$core..fmt..Debug$GT$3fmt17h24ba1d6c88346ecaE
libclamav.so.11:_ZN68_$LT$memchr..memmem..twoway..Forward$u20$as$u20$core..fmt..Debug$GT$3fmt17h4b80dddcd6b59153E
libclamav.so.11:_ZN68_$LT$memchr..memmem..twoway..Reverse$u20$as$u20$core..fmt..Debug$GT$3fmt17h104fbf458201b33fE
libclamav.so.11:_ZN68_$LT$object..pe..ImageBaseRelocation$u20$as$u20$core..fmt..Debug$GT$3fmt17hea98aac874a9fc4fE
libclamav.so.11:_ZN68_$LT$object..pe..ImageDebugDirectory$u20$as$u20$core..fmt..Debug$GT$3fmt17hd8edc2c42b95ccdfE
libclamav.so.11:_ZN68_$LT$object..pe..ImageHotPatchHashes$u20$as$u20$core..fmt..Debug$GT$3fmt17h62e5ce4076464a2bE
libclamav.so.11:_ZN68_$LT$object..pe..ImageTlsDirectory32$u20$as$u20$core..fmt..Debug$GT$3fmt17h8c562ea05dd28671E
libclamav.so.11:_ZN68_$LT$object..pe..ImageTlsDirectory64$u20$as$u20$core..fmt..Debug$GT$3fmt17ha717f3434705a8bdE
libclamav.so.11:_ZN68_$LT$object..read..CompressionFormat$u20$as$u20$core..fmt..Debug$GT$3fmt17h2afaa3d77616b471E
libclamav.so.11:_ZN68_$LT$png..common..FrameControl$u20$as$u20$core..default..Default$GT$7default17ha1dc116ce58177e3E
libclamav.so.11:_ZN68_$LT$png..common..ParameterErrorKind$u20$as$u20$core..fmt..Debug$GT$3fmt17h1ca981b34adacb05E
libclamav.so.11:_ZN68_$LT$png..common..Transformations$u20$as$u20$core..fmt..LowerHex$GT$3fmt17hd7f5c94b1938f646E
libclamav.so.11:_ZN68_$LT$png..common..Transformations$u20$as$u20$core..fmt..UpperHex$GT$3fmt17h2261c5b7c1bd43fdE
libclamav.so.11:_ZN68_$LT$png..filter..AdaptiveFilterType$u20$as$u20$core..fmt..Debug$GT$3fmt17hd1d1b75e6a66ea85E
libclamav.so.11:_ZN68_$LT$rustc_demangle..DemangleStyle$u20$as$u20$core..fmt..Display$GT$3fmt17h9b64e7506e45ef84E
libclamav.so.11:_ZN68_$LT$std..backtrace..BacktraceStatus$u20$as$u20$core..fmt..Debug$GT$3fmt17h952b0ca78a2d15b9E
libclamav.so.11:_ZN68_$LT$std..backtrace..BacktraceSymbol$u20$as$u20$core..fmt..Debug$GT$3fmt17h6f60e9f415f346bcE
libclamav.so.11:_ZN68_$LT$std..fs..DirEntry$u20$as$u20$std..os..unix..fs..DirEntryExt$GT$3ino17hd3746c7db93a9c96E
libclamav.so.11:_ZN68_$LT$std..fs..FileType$u20$as$u20$std..os..unix..fs..FileTypeExt$GT$14is_char_device17hde9141372a7baf5fE
libclamav.so.11:_ZN68_$LT$std..fs..FileType$u20$as$u20$std..os..unix..fs..FileTypeExt$GT$15is_block_device17hcf639452281dc1d7E
libclamav.so.11:_ZN68_$LT$std..fs..FileType$u20$as$u20$std..os..unix..fs..FileTypeExt$GT$7is_fifo17hd664d3b017836015E
libclamav.so.11:_ZN68_$LT$std..fs..FileType$u20$as$u20$std..os..unix..fs..FileTypeExt$GT$9is_socket17h648b6d75dec32485E
libclamav.so.11:_ZN68_$LT$std..fs..Metadata$u20$as$u20$std..os..unix..fs..MetadataExt$GT$10atime_nsec17ha60956d581695491E
libclamav.so.11:_ZN68_$LT$std..fs..Metadata$u20$as$u20$std..os..unix..fs..MetadataExt$GT$10ctime_nsec17h0071e60e25409582E
libclamav.so.11:_ZN68_$LT$std..fs..Metadata$u20$as$u20$std..os..unix..fs..MetadataExt$GT$10mtime_nsec17he4b56119f308d549E
libclamav.so.11:_ZN68_$LT$std..fs..Metadata$u20$as$u20$std..os..unix..fs..MetadataExt$GT$3dev17h8e044c875c55cf29E
libclamav.so.11:_ZN68_$LT$std..fs..Metadata$u20$as$u20$std..os..unix..fs..MetadataExt$GT$3gid17h7588a317b5239861E
libclamav.so.11:_ZN68_$LT$std..fs..Metadata$u20$as$u20$std..os..unix..fs..MetadataExt$GT$3ino17ha586b60dc20f9df6E
libclamav.so.11:_ZN68_$LT$std..fs..Metadata$u20$as$u20$std..os..unix..fs..MetadataExt$GT$3uid17hc32448e51bbb7c0eE
libclamav.so.11:_ZN68_$LT$std..fs..Metadata$u20$as$u20$std..os..unix..fs..MetadataExt$GT$4mode17hbd8dc1962d51adb0E
libclamav.so.11:_ZN68_$LT$std..fs..Metadata$u20$as$u20$std..os..unix..fs..MetadataExt$GT$4rdev17hb2c6130c7f8556ccE
libclamav.so.11:_ZN68_$LT$std..fs..Metadata$u20$as$u20$std..os..unix..fs..MetadataExt$GT$4size17hafddbbf36879e7b1E
libclamav.so.11:_ZN68_$LT$std..fs..Metadata$u20$as$u20$std..os..unix..fs..MetadataExt$GT$5atime17h51a394c85bfb0260E
libclamav.so.11:_ZN68_$LT$std..fs..Metadata$u20$as$u20$std..os..unix..fs..MetadataExt$GT$5ctime17heb696f28da782376E
libclamav.so.11:_ZN68_$LT$std..fs..Metadata$u20$as$u20$std..os..unix..fs..MetadataExt$GT$5mtime17haf8fe9d7d0a0f5edE
libclamav.so.11:_ZN68_$LT$std..fs..Metadata$u20$as$u20$std..os..unix..fs..MetadataExt$GT$5nlink17he7de84a6743ea073E
libclamav.so.11:_ZN68_$LT$std..fs..Metadata$u20$as$u20$std..os..unix..fs..MetadataExt$GT$6blocks17hf5dc26c241e70134E
libclamav.so.11:_ZN68_$LT$std..fs..Metadata$u20$as$u20$std..os..unix..fs..MetadataExt$GT$7blksize17h2888b168d0744148E
libclamav.so.11:_ZN68_$LT$std..process..ExitStatusError$u20$as$u20$core..fmt..Display$GT$3fmt17h0579b99daa74cdcdE
libclamav.so.11:_ZN68_$LT$std..sync..mpmc..context..Inner$u20$as$u20$core..fmt..Debug$GT$3fmt17hb83b1f78f7b2e9b6E
libclamav.so.11:_ZN68_$LT$std..sync..mpsc..TryRecvError$u20$as$u20$core..error..Error$GT$11description17hb86b1f31bd02b2a5E
libclamav.so.11:_ZN68_$LT$std..sync..mpsc..TryRecvError$u20$as$u20$core..fmt..Display$GT$3fmt17h4c1ea4b5aa22061fE
libclamav.so.11:_ZN68_$LT$std..sys..unix..fs..OpenOptions$u20$as$u20$core..fmt..Debug$GT$3fmt17h8a11dec7f640c320E
libclamav.so.11:_ZN68_$LT$std..sys..unix..os_str..Slice$u20$as$u20$core..fmt..Display$GT$3fmt17h726a89e854c7799cE
libclamav.so.11:_ZN68_$LT$std..sys_common..net..TcpStream$u20$as$u20$core..fmt..Debug$GT$3fmt17hcb0f71da446e8ae2E
libclamav.so.11:_ZN68_$LT$std..sys_common..net..UdpSocket$u20$as$u20$core..fmt..Debug$GT$3fmt17h4b28c083d2c0831dE
libclamav.so.11:_ZN68_$LT$std..thread..local..AccessError$u20$as$u20$core..fmt..Debug$GT$3fmt17h5f576d89264c97eaE
libclamav.so.11:_ZN68_$LT$tempfile..file..TempPath$u20$as$u20$core..ops..deref..Deref$GT$5deref17h1718b5daffe169a4E
libclamav.so.11:_ZN68_$LT$tiff..error..JpegDecoderError$u20$as$u20$core..fmt..Display$GT$3fmt17h366740afd277a00dE
libclamav.so.11:_ZN68_$LT$tiff..tags..PlanarConfiguration$u20$as$u20$core..fmt..Debug$GT$3fmt17h05fa32382e9e1ee4E
libclamav.so.11:_ZN68_$LT$u32$u20$as$u20$exr..image..validate_results..ValidateResult$GT$15validate_result17ha37574794368c254E
libclamav.so.11:_ZN69_$LT$$RF$core..ffi..c_str..CStr$u20$as$u20$core..default..Default$GT$7default17h7c9f5eca9c307fe0E
libclamav.so.11:_ZN69_$LT$$u5b$i8$u5d$$u20$as$u20$tiff..encoder..tiff_value..TiffValue$GT$4data17h6ede5f9b21909f19E
libclamav.so.11:_ZN69_$LT$$u5b$i8$u5d$$u20$as$u20$tiff..encoder..tiff_value..TiffValue$GT$5count17h09a2f2beeef59d93E
libclamav.so.11:_ZN69_$LT$$u5b$u8$u5d$$u20$as$u20$tiff..encoder..tiff_value..TiffValue$GT$4data17h07778e55097a5a5eE
libclamav.so.11:_ZN69_$LT$$u5b$u8$u5d$$u20$as$u20$tiff..encoder..tiff_value..TiffValue$GT$5count17hd942c4270e6a6139E
libclamav.so.11:_ZN69_$LT$alloc..ffi..c_str..CString$u20$as$u20$core..default..Default$GT$7default17hb38ddb4ea4b27a16E
libclamav.so.11:_ZN69_$LT$core..alloc..layout..LayoutError$u20$as$u20$core..fmt..Debug$GT$3fmt17h413fa0af266cd34fE
libclamav.so.11:_ZN69_$LT$core..array..TryFromSliceError$u20$as$u20$core..error..Error$GT$11description17hf8f1e9517955fa78E
libclamav.so.11:_ZN69_$LT$core..num..bignum..Big32x40$u20$as$u20$core..cmp..PartialOrd$GT$11partial_cmp17hecb3a248f62d94caE
libclamav.so.11:_ZN69_$LT$core..num..bignum..tests..Big8x3$u20$as$u20$core..fmt..Debug$GT$3fmt17h5b6f95be5d0ca97fE
libclamav.so.11:_ZN69_$LT$core..str..error..ParseBoolError$u20$as$u20$core..fmt..Debug$GT$3fmt17h0e17728279a3303bE
libclamav.so.11:_ZN69_$LT$core..str..iter..EscapeDefault$u20$as$u20$core..fmt..Display$GT$3fmt17hda5565a0049d6a90E
libclamav.so.11:_ZN69_$LT$core..str..iter..EscapeUnicode$u20$as$u20$core..fmt..Display$GT$3fmt17h1ced3538cad6f622E
libclamav.so.11:_ZN69_$LT$core..str..iter..SplitWhitespace$u20$as$u20$core..fmt..Debug$GT$3fmt17hc7085889e3c5cd7fE
libclamav.so.11:_ZN69_$LT$core..str..pattern..CharSearcher$u20$as$u20$core..fmt..Debug$GT$3fmt17hf9fd6951910bf71aE
libclamav.so.11:_ZN69_$LT$core..task..wake..RawWakerVTable$u20$as$u20$core..fmt..Debug$GT$3fmt17h178d76826474c934E
libclamav.so.11:_ZN69_$LT$exr..meta..attribute..SampleType$u20$as$u20$core..fmt..Debug$GT$3fmt17ha2ec977b7c996693E
libclamav.so.11:_ZN69_$LT$gif..reader..decoder..Extensions$u20$as$u20$core..fmt..Debug$GT$3fmt17hbd6c68045e4d69a9E
libclamav.so.11:_ZN69_$LT$gimli..constants..DwVirtuality$u20$as$u20$core..fmt..Display$GT$3fmt17h04f545e211ca58a6E
libclamav.so.11:_ZN69_$LT$image..codecs..dds..DecoderError$u20$as$u20$core..fmt..Debug$GT$3fmt17h14354e29c135d00dE
libclamav.so.11:_ZN69_$LT$image..error..ParameterErrorKind$u20$as$u20$core..fmt..Debug$GT$3fmt17h9972e728841eabe1E
libclamav.so.11:_ZN69_$LT$image..error..UnsupportedError$u20$as$u20$core..fmt..Display$GT$3fmt17hb3efbd942737fb81E
libclamav.so.11:_ZN69_$LT$jpeg_decoder..decoder..ImageInfo$u20$as$u20$core..fmt..Debug$GT$3fmt17h3e9bbcb6aad2601aE
libclamav.so.11:_ZN69_$LT$jpeg_decoder..parser..Dimensions$u20$as$u20$core..fmt..Debug$GT$3fmt17hf68d80167b0eabf7E
libclamav.so.11:_ZN69_$LT$libc..unix..linux_like..arphdr$u20$as$u20$core..clone..Clone$GT$5clone17h99196d6f9fd1d507E
libclamav.so.11:_ZN69_$LT$libc..unix..linux_like..arpreq$u20$as$u20$core..clone..Clone$GT$5clone17h623271e02dddcebcE
libclamav.so.11:_ZN69_$LT$libc..unix..linux_like..fd_set$u20$as$u20$core..clone..Clone$GT$5clone17h2b7c130e307a1238E
libclamav.so.11:_ZN69_$LT$object..pe..ImageEnclaveConfig32$u20$as$u20$core..fmt..Debug$GT$3fmt17h989f813b05550c9cE
libclamav.so.11:_ZN69_$LT$object..pe..ImageEnclaveConfig64$u20$as$u20$core..fmt..Debug$GT$3fmt17h4c808ea8745eed8eE
libclamav.so.11:_ZN69_$LT$object..pe..ImageExportDirectory$u20$as$u20$core..fmt..Debug$GT$3fmt17hce152856785f98cdE
libclamav.so.11:_ZN69_$LT$object..pe..ImageFunctionEntry64$u20$as$u20$core..fmt..Debug$GT$3fmt17h5ed6d0534ce3f3b7E
libclamav.so.11:_ZN69_$LT$object..read..pe..export..Export$u20$as$u20$core..fmt..Debug$GT$3fmt17h3bbcfbfda1208286E
libclamav.so.11:_ZN69_$LT$object..read..pe..import..Import$u20$as$u20$core..fmt..Debug$GT$3fmt17hfa747b93cc4ed4bfE
libclamav.so.11:_ZN69_$LT$png..common..SrgbRenderingIntent$u20$as$u20$core..fmt..Debug$GT$3fmt17hf52610475d62eca2E
libclamav.so.11:_ZN69_$LT$rayon_core..ThreadPoolBuildError$u20$as$u20$core..fmt..Debug$GT$3fmt17h2dceb5824b9a0b94E
libclamav.so.11:_ZN69_$LT$rayon_core..registry..RegistryId$u20$as$u20$core..fmt..Debug$GT$3fmt17h9fc335e926366eebE
libclamav.so.11:_ZN69_$LT$rustc_demangle..TryDemangleError$u20$as$u20$core..fmt..Debug$GT$3fmt17h96ab9333c9a8bfc3E
libclamav.so.11:_ZN69_$LT$rustfft..math_utils..PrimeFactor$u20$as$u20$core..fmt..Debug$GT$3fmt17h90389fb04923964dE
libclamav.so.11:_ZN69_$LT$std..fs..DirEntry$u20$as$u20$std..os..unix..fs..DirEntryExt2$GT$13file_name_ref17h782d0f741521f1b5E
libclamav.so.11:_ZN69_$LT$std..fs..Metadata$u20$as$u20$std..os..linux..fs..MetadataExt$GT$10st_blksize17hf6e7fcb256495819E
libclamav.so.11:_ZN69_$LT$std..fs..Metadata$u20$as$u20$std..os..linux..fs..MetadataExt$GT$11as_raw_stat17h671cf651dffb5412E
libclamav.so.11:_ZN69_$LT$std..fs..Metadata$u20$as$u20$std..os..linux..fs..MetadataExt$GT$13st_atime_nsec17h82c8c4c78dccad8cE
libclamav.so.11:_ZN69_$LT$std..fs..Metadata$u20$as$u20$std..os..linux..fs..MetadataExt$GT$13st_ctime_nsec17h78b09e64539cfa2dE
libclamav.so.11:_ZN69_$LT$std..fs..Metadata$u20$as$u20$std..os..linux..fs..MetadataExt$GT$13st_mtime_nsec17hddf3381bf1a1a8c4E
libclamav.so.11:_ZN69_$LT$std..fs..Metadata$u20$as$u20$std..os..linux..fs..MetadataExt$GT$6st_dev17h8ce5f3bdb1fbc72dE
libclamav.so.11:_ZN69_$LT$std..fs..Metadata$u20$as$u20$std..os..linux..fs..MetadataExt$GT$6st_gid17h553094e0c261d8ceE
libclamav.so.11:_ZN69_$LT$std..fs..Metadata$u20$as$u20$std..os..linux..fs..MetadataExt$GT$6st_ino17ha7b311924a3fd621E
libclamav.so.11:_ZN69_$LT$std..fs..Metadata$u20$as$u20$std..os..linux..fs..MetadataExt$GT$6st_uid17h5343c28f183c71a0E
libclamav.so.11:_ZN69_$LT$std..fs..Metadata$u20$as$u20$std..os..linux..fs..MetadataExt$GT$7st_mode17h75ff4dcba80190e5E
libclamav.so.11:_ZN69_$LT$std..fs..Metadata$u20$as$u20$std..os..linux..fs..MetadataExt$GT$7st_rdev17h04097f69f1a9121eE
libclamav.so.11:_ZN69_$LT$std..fs..Metadata$u20$as$u20$std..os..linux..fs..MetadataExt$GT$7st_size17hd857df193b5ee786E
libclamav.so.11:_ZN69_$LT$std..fs..Metadata$u20$as$u20$std..os..linux..fs..MetadataExt$GT$8st_atime17h53e82098b639ee36E
libclamav.so.11:_ZN69_$LT$std..fs..Metadata$u20$as$u20$std..os..linux..fs..MetadataExt$GT$8st_ctime17h8b4f535f1f029c70E
libclamav.so.11:_ZN69_$LT$std..fs..Metadata$u20$as$u20$std..os..linux..fs..MetadataExt$GT$8st_mtime17h36846c009cbc0f73E
libclamav.so.11:_ZN69_$LT$std..fs..Metadata$u20$as$u20$std..os..linux..fs..MetadataExt$GT$8st_nlink17h0e6368c54ec1830dE
libclamav.so.11:_ZN69_$LT$std..fs..Metadata$u20$as$u20$std..os..linux..fs..MetadataExt$GT$9st_blocks17hffeb700ec2190717E
libclamav.so.11:_ZN69_$LT$std..io..readbuf..BorrowedCursor$u20$as$u20$core..fmt..Debug$GT$3fmt17h2440df2b77c1dba7E
libclamav.so.11:_ZN69_$LT$std..net..parser..AddrParseError$u20$as$u20$core..fmt..Debug$GT$3fmt17hca7458317be0491cE
libclamav.so.11:_ZN69_$LT$std..sync..mpmc..list..ListToken$u20$as$u20$core..fmt..Debug$GT$3fmt17h7b2fff7515519154E
libclamav.so.11:_ZN69_$LT$std..sync..mpmc..zero..ZeroToken$u20$as$u20$core..fmt..Debug$GT$3fmt17h1903212af9d90691E
libclamav.so.11:_ZN69_$LT$std..sys..unix..fs..File$u20$as$u20$std..os..fd..owned..AsFd$GT$5as_fd17h4cea13611c4644b6E
libclamav.so.11:_ZN69_$LT$std..sys..unix..time..SystemTime$u20$as$u20$core..fmt..Debug$GT$3fmt17ha7e49a606a1f539aE
libclamav.so.11:_ZN69_$LT$tempfile..file..PathPersistError$u20$as$u20$core..fmt..Debug$GT$3fmt17h2bde24e707ee0065E
libclamav.so.11:_ZN69_$LT$tiff..decoder..stream..ByteOrder$u20$as$u20$core..fmt..Debug$GT$3fmt17h61a0099c60b0b803E
libclamav.so.11:_ZN6flate211Compression3new17hbc2b54be30bdeaeeE
libclamav.so.11:_ZN6flate211Compression4best17hd04bc514eccb71b9E
libclamav.so.11:_ZN6flate211Compression4fast17h1b90ba4d6d982673E
libclamav.so.11:_ZN6flate211Compression4none17haea3711f5f18fcc7E
libclamav.so.11:_ZN6flate211Compression5level17ha5df6327b1afcf31E
libclamav.so.11:_ZN6flate22gz7bufread10bad_header17h2e25c4259a30da7bE
libclamav.so.11:_ZN6flate22gz7bufread15GzHeaderPartial11take_header17h700cd4b65bc61379E
libclamav.so.11:_ZN6flate22gz7bufread15GzHeaderPartial3new17h9d1952e24279bfebE
libclamav.so.11:_ZN6flate22gz7bufread4copy17h409c5f54a0f83035E
libclamav.so.11:_ZN6flate22gz7bufread7corrupt17h481955620055593eE
libclamav.so.11:_ZN6flate22gz8GzHeader16operating_system17h91a7d4fb1fb0dc12E
libclamav.so.11:_ZN6flate22gz8GzHeader17mtime_as_datetime17he5f2ad48bbcd186aE
libclamav.so.11:_ZN6flate22gz8GzHeader5extra17h58948296d5c178afE
libclamav.so.11:_ZN6flate22gz8GzHeader5mtime17h866a379f7209690eE
libclamav.so.11:_ZN6flate22gz8GzHeader7comment17he4bb42257d6b466fE
libclamav.so.11:_ZN6flate22gz8GzHeader8filename17hcb0577f5929c3c0dE
libclamav.so.11:_ZN6flate22gz9GzBuilder11into_header17h499c42586ccd79ddE
libclamav.so.11:_ZN6flate22gz9GzBuilder16operating_system17hdd6b520066c4ce7eE
libclamav.so.11:_ZN6flate22gz9GzBuilder3new17h156ed7e210f0a03bE
libclamav.so.11:_ZN6flate22gz9GzBuilder5mtime17h20507ed420472951E
libclamav.so.11:_ZN6flate23crc3Crc3new17hecf717a74e99c743E
libclamav.so.11:_ZN6flate23crc3Crc3sum17hfb0a46461529182bE
libclamav.so.11:_ZN6flate23crc3Crc5reset17h18e8d731b200b1acE
libclamav.so.11:_ZN6flate23crc3Crc6amount17h88eee8b3ea6d0753E
libclamav.so.11:_ZN6flate23crc3Crc6update17h5748cc256f4b49b3E
libclamav.so.11:_ZN6flate23crc3Crc7combine17hf71813a1cdcacd3fE
libclamav.so.11:_ZN6flate23ffi78_$LT$impl$u20$core..fmt..Debug$u20$for$u20$flate2..ffi..rust..ErrorMessage$GT$3fmt17h225cee2f6ee88379E
libclamav.so.11:_ZN6flate23mem105_$LT$impl$u20$core..convert..From$LT$flate2..mem..CompressError$GT$$u20$for$u20$std..io..error..Error$GT$4from17he2bcf38527ab2f55E
libclamav.so.11:_ZN6flate23mem107_$LT$impl$u20$core..convert..From$LT$flate2..mem..DecompressError$GT$$u20$for$u20$std..io..error..Error$GT$4from17h5ce2d3fdf68244cdE
libclamav.so.11:_ZN6flate23mem10Decompress10decompress17h02a53509a28113f0E
libclamav.so.11:_ZN6flate23mem10Decompress14decompress_vec17h5847de088284190eE
libclamav.so.11:_ZN6flate23mem10Decompress3new17ha4cb366b5276d997E
libclamav.so.11:_ZN6flate23mem10Decompress5reset17hb691fd26a17fca0aE
libclamav.so.11:_ZN6flate23mem10Decompress8total_in17he15836899fdae927E
libclamav.so.11:_ZN6flate23mem10Decompress9total_out17h77afede68e98f1eaE
libclamav.so.11:_ZN6flate23mem13CompressError7message17h1ea439f3811e817eE
libclamav.so.11:_ZN6flate23mem15DecompressError16needs_dictionary17hc858df33dfab6f10E
libclamav.so.11:_ZN6flate23mem15DecompressError7message17h389069ae2d722af9E
libclamav.so.11:_ZN6flate23mem8Compress12compress_vec17h6a79ee8a9b0776bfE
libclamav.so.11:_ZN6flate23mem8Compress3new17h1cc516461bd053d3E
libclamav.so.11:_ZN6flate23mem8Compress5reset17h4a33797422ede28cE
libclamav.so.11:_ZN6flate23mem8Compress8compress17h351e06878b17ddeeE
libclamav.so.11:_ZN6flate23mem8Compress8total_in17ha0ff45f557121d79E
libclamav.so.11:_ZN6flate23mem8Compress9total_out17h0bcf6cf13b5f32f9E
libclamav.so.11:_ZN6memchr6memchr3x864sse26memchr17h7c5f687471843153E
libclamav.so.11:_ZN6memchr6memchr3x864sse27memchr217hc39843d8a3cdb75eE
libclamav.so.11:_ZN6memchr6memchr3x864sse27memchr317h6c44f521b892283dE
libclamav.so.11:_ZN6memchr6memchr3x864sse27memrchr17h78a9671c2e78e45dE
libclamav.so.11:_ZN6memchr6memchr3x864sse28memrchr217hae9a79de732dfff4E
libclamav.so.11:_ZN6memchr6memchr3x864sse28memrchr317h150fa6b4c9b44948E
libclamav.so.11:_ZN6memchr6memchr8fallback6memchr17he7c4421217efeeb4E
libclamav.so.11:_ZN6memchr6memchr8fallback7memchr217h2a71fbb775c3fd3eE
libclamav.so.11:_ZN6memchr6memchr8fallback7memchr317h129b24fc5c355210E
libclamav.so.11:_ZN6memchr6memchr8fallback7memrchr17h1eeff34c5da5e0d5E
libclamav.so.11:_ZN6memchr6memchr8fallback8memrchr217h492312f0198872acE
libclamav.so.11:_ZN6memchr6memchr8fallback8memrchr317hfcd1d49af6cf48eaE
libclamav.so.11:_ZN6memchr6memmem11SearcherRev3new17hd32548f752c2f26aE
libclamav.so.11:_ZN6memchr6memmem11SearcherRev6as_ref17hff299da8a45d2559E
libclamav.so.11:_ZN6memchr6memmem11SearcherRev6needle17hd3fe665dc8f2d780E
libclamav.so.11:_ZN6memchr6memmem13FinderBuilder3new17h5451272ff982c936E
libclamav.so.11:_ZN6memchr6memmem13FinderBuilder9prefilter17hc16ea5eee6238d34E
libclamav.so.11:_ZN6memchr6memmem6Finder4find17h0954a63278f636e3E
libclamav.so.11:_ZN6memchr6memmem8Searcher15prefilter_state17hfd4a1afb896987a9E
libclamav.so.11:_ZN6memchr6memmem8Searcher3new17h80bdd0a14c34d45eE
libclamav.so.11:_ZN6memchr6memmem8Searcher6as_ref17h1ab4c5aba8c97ef8E
libclamav.so.11:_ZN6memchr6memmem8Searcher6needle17h38238020747c309bE
libclamav.so.11:_ZN6memchr6memmem9rabinkarp10rfind_with17h5802d75ca6d5a3c0E
libclamav.so.11:_ZN6memchr6memmem9rabinkarp4find17h1aff2a23bd2c7304E
libclamav.so.11:_ZN6memchr6memmem9rabinkarp5rfind17h2d153370f188d755E
libclamav.so.11:_ZN6memchr6memmem9rabinkarp7is_fast17hcb908881c747b45bE
libclamav.so.11:_ZN6object2pe21ImageImportDescriptor7is_null17h4568cecb0575135cE
libclamav.so.11:_ZN6object3elf4hash17hcccee70ae434cbfeE
libclamav.so.11:_ZN6object3elf8gnu_hash17h03bab43cc685c017E
libclamav.so.11:_ZN6object4read13SymbolMapName3new17h0cd5caea37999321E
libclamav.so.11:_ZN6object4read14CompressedData10decompress17h55673330ce01ea48E
libclamav.so.11:_ZN6object4read2pe10relocation18RelocationIterator15virtual_address17hcb0b54ffde3f882bE
libclamav.so.11:_ZN6object4read2pe10relocation18RelocationIterator4size17hd1c510c9d5ee41b6E
libclamav.so.11:_ZN6object4read2pe10relocation23RelocationBlockIterator3new17h2c84dd412f75c762E
libclamav.so.11:_ZN6object4read2pe10relocation23RelocationBlockIterator4next17h346b7ef14658f86dE
libclamav.so.11:_ZN6object4read2pe14data_directory15DataDirectories3get17h974880c6b14e2308E
libclamav.so.11:_ZN6object4read2pe14data_directory15DataDirectories3len17h16643b85bd49a97aE
libclamav.so.11:_ZN6object4read2pe14data_directory15DataDirectories4iter17h772266698f4d4f8dE
libclamav.so.11:_ZN6object4read2pe14data_directory15DataDirectories5parse17h3d1edef2a154bed6E
libclamav.so.11:_ZN6object4read2pe14data_directory15DataDirectories9enumerate17hcedc3e095b197508E
libclamav.so.11:_ZN6object4read2pe14data_directory48_$LT$impl$u20$object..pe..ImageDataDirectory$GT$10file_range17heaa6f2066e308704E
libclamav.so.11:_ZN6object4read2pe14data_directory48_$LT$impl$u20$object..pe..ImageDataDirectory$GT$13address_range17he0aba43f3b7f7475E
libclamav.so.11:_ZN6object4read2pe4rich14RichHeaderInfo16unmasked_entries17h90fa2c69efbdb54eE
libclamav.so.11:_ZN6object4read2pe4rich6memmem17hc74355c1b696a054E
libclamav.so.11:_ZN6object4read2pe6export11ExportTable10is_forward17h57ec8b2d795ee659E
libclamav.so.11:_ZN6object4read2pe6export11ExportTable12ordinal_base17h73f9ba3da46cbf89E
libclamav.so.11:_ZN6object4read2pe6export11ExportTable13name_ordinals17h107094020d65457dE
libclamav.so.11:_ZN6object4read2pe6export11ExportTable13name_pointers17h8f3373c2a87d9c15E
libclamav.so.11:_ZN6object4read2pe6export11ExportTable14forward_string17h544ab7c02dcd2693E
libclamav.so.11:_ZN6object4read2pe6export11ExportTable15parse_directory17hbc3843e2bf70e0acE
libclamav.so.11:_ZN6object4read2pe6export11ExportTable15target_by_index17h519531088b0d3c91E
libclamav.so.11:_ZN6object4read2pe6export11ExportTable16address_by_index17h0129997b4ec2fd79E
libclamav.so.11:_ZN6object4read2pe6export11ExportTable17name_from_pointer17h76c20236f90458bcE
libclamav.so.11:_ZN6object4read2pe6export11ExportTable17target_by_ordinal17h50e9444034ea1bbeE
libclamav.so.11:_ZN6object4read2pe6export11ExportTable18address_by_ordinal17h95f0310ab49f34deE
libclamav.so.11:_ZN6object4read2pe6export11ExportTable19target_from_address17h40f3b6827206f349E
libclamav.so.11:_ZN6object4read2pe6export11ExportTable5parse17hc8eb136dd8954023E
libclamav.so.11:_ZN6object4read2pe6export11ExportTable7exports17h540deaf0bcbc8156E
libclamav.so.11:_ZN6object4read2pe6export11ExportTable9addresses17hf110596cfa7afeb4E
libclamav.so.11:_ZN6object4read2pe6export11ExportTable9directory17hef1817ee451829e0E
libclamav.so.11:_ZN6object4read2pe6export11ExportTable9name_iter17hccbb97acecd366c9E
libclamav.so.11:_ZN6object4read2pe6export12ExportTarget10is_address17ha7057c01bf66c9dbE
libclamav.so.11:_ZN6object4read2pe6export12ExportTarget10is_forward17h2e4ae82815ad7f90E
libclamav.so.11:_ZN6object4read2pe6import11ImportTable11descriptors17h9962dda900467446E
libclamav.so.11:_ZN6object4read2pe6import11ImportTable3new17hcb2909d0d0785df6E
libclamav.so.11:_ZN6object4read2pe6import11ImportTable4name17h18da0f146c985c74E
libclamav.so.11:_ZN6object4read2pe6import11ImportTable6thunks17hbc029e18fa526a21E
libclamav.so.11:_ZN6object4read2pe6import11ImportTable9hint_name17ha0ee79808be213d9E
libclamav.so.11:_ZN6object4read2pe6import24ImportDescriptorIterator4next17h45e526faa3789a88E
libclamav.so.11:_ZN6object4read2pe7section48_$LT$impl$u20$object..pe..ImageSectionHeader$GT$12contains_rva17h633f5a5850aad60fE
libclamav.so.11:_ZN6object4read2pe7section48_$LT$impl$u20$object..pe..ImageSectionHeader$GT$13pe_file_range17h17e013ee422f87aeE
libclamav.so.11:_ZN6object4read2pe7section48_$LT$impl$u20$object..pe..ImageSectionHeader$GT$16pe_address_range17h5b64a850fe5a1633E
libclamav.so.11:_ZN6object4read2pe7section48_$LT$impl$u20$object..pe..ImageSectionHeader$GT$16pe_file_range_at17hd4ad87fb3f18b997E
libclamav.so.11:_ZN6object4read2pe7section59_$LT$impl$u20$object..read..coff..section..SectionTable$GT$16pe_file_range_at17hebaca94adcbc01deE
libclamav.so.11:_ZN6object4read2pe7section59_$LT$impl$u20$object..read..coff..section..SectionTable$GT$18section_containing17hfa8a7b861b55dbb2E
libclamav.so.11:_ZN6object4read2pe8resource12ResourceName15to_string_lossy17h7a538ccd4bb84e67E
libclamav.so.11:_ZN6object4read2pe8resource12ResourceName4data17habcb2bc7d9393af8E
libclamav.so.11:_ZN6object4read2pe8resource16ResourceNameOrId2id17h5fc338467180bb20E
libclamav.so.11:_ZN6object4read2pe8resource16ResourceNameOrId4name17he1c0fb1ae00459e0E
libclamav.so.11:_ZN6object4read2pe8resource17ResourceDirectory3new17hd97658e149fac8d9E
libclamav.so.11:_ZN6object4read2pe8resource17ResourceDirectory4root17hc9da5bb8ec4b9bd6E
libclamav.so.11:_ZN6object4read2pe8resource26ResourceDirectoryEntryData4data17hc9464b4e28df5167E
libclamav.so.11:_ZN6object4read2pe8resource26ResourceDirectoryEntryData5table17h4c8efffb9c9599f3E
libclamav.so.11:_ZN6object4read2pe8resource57_$LT$impl$u20$object..pe..ImageResourceDirectoryEntry$GT$10name_or_id17h9df908639cce335cE
libclamav.so.11:_ZN6object4read2pe8resource57_$LT$impl$u20$object..pe..ImageResourceDirectoryEntry$GT$11data_offset17h577f0a02bf8a295bE
libclamav.so.11:_ZN6object4read2pe8resource57_$LT$impl$u20$object..pe..ImageResourceDirectoryEntry$GT$4data17h2a26953421f9a24bE
libclamav.so.11:_ZN6object4read2pe8resource57_$LT$impl$u20$object..pe..ImageResourceDirectoryEntry$GT$8has_name17h7caa8b026a08b705E
libclamav.so.11:_ZN6object4read2pe8resource57_$LT$impl$u20$object..pe..ImageResourceDirectoryEntry$GT$8is_table17h60363645f6cf5e9fE
libclamav.so.11:_ZN6object4read3elf10relocation18RelocationSections3get17h919f7e614cd6f2c2E
libclamav.so.11:_ZN6object4read3elf7version12VersionIndex5index17h224294f9316cfabeE
libclamav.so.11:_ZN6object4read3elf7version12VersionIndex8is_local17h6a64aab61c7bf446E
libclamav.so.11:_ZN6object4read3elf7version12VersionIndex9is_global17h4c7040d4cb0e2313E
libclamav.so.11:_ZN6object4read3elf7version12VersionIndex9is_hidden17hf7cb3af04edbed65E
libclamav.so.11:_ZN6object4read3elf7version7Version4hash17h6cf279b067a81127E
libclamav.so.11:_ZN6object4read3elf7version7Version4name17h9b49e4625fdf9c9eE
libclamav.so.11:_ZN6object4read4coff6symbol41_$LT$impl$u20$object..pe..ImageSymbol$GT$13is_definition17h8d3e1f14026b0628E
libclamav.so.11:_ZN6object4read4coff6symbol41_$LT$impl$u20$object..pe..ImageSymbol$GT$15has_aux_section17hf3c43457fc654e41E
libclamav.so.11:_ZN6object4read4coff6symbol41_$LT$impl$u20$object..pe..ImageSymbol$GT$16has_aux_function17h7febc1256149748fE
libclamav.so.11:_ZN6object4read4coff6symbol41_$LT$impl$u20$object..pe..ImageSymbol$GT$17has_aux_file_name17h0afd354ddf87e862E
libclamav.so.11:_ZN6object4read4coff6symbol41_$LT$impl$u20$object..pe..ImageSymbol$GT$7address17hbdfeb5c81c1abd57E
libclamav.so.11:_ZN6object4read4coff7section12SectionTable23max_section_file_offset17h2953568efa866e64E
libclamav.so.11:_ZN6object4read4coff7section12SectionTable7section17hf3f84f6a6a21c1faE
libclamav.so.11:_ZN6object4read4coff7section48_$LT$impl$u20$object..pe..ImageSectionHeader$GT$11name_offset17h6029dabbb5ae4fe6E
libclamav.so.11:_ZN6object4read4coff7section48_$LT$impl$u20$object..pe..ImageSectionHeader$GT$14coff_alignment17h849137f63748b08fE
libclamav.so.11:_ZN6object4read4coff7section48_$LT$impl$u20$object..pe..ImageSectionHeader$GT$15coff_file_range17h6a803a5fc5007176E
libclamav.so.11:_ZN6object4read4coff7section48_$LT$impl$u20$object..pe..ImageSectionHeader$GT$4kind17h1312e242fddf688bE
libclamav.so.11:_ZN6object4read4coff7section48_$LT$impl$u20$object..pe..ImageSectionHeader$GT$8raw_name17h80b80d12b0c99472E
libclamav.so.11:_ZN6object4read4util10data_range17hf7460a245952eba0E
libclamav.so.11:_ZN6object4read7archive13ArchiveMember10file_range17had79ed734143755fE
libclamav.so.11:_ZN6object4read7archive16parse_u64_digits17h03da5594134c2f78E
libclamav.so.11:_ZN6object4read7archive24parse_sysv_extended_name17h63ef15795076a821E
libclamav.so.11:_ZN6object4read9ObjectMap3get17hd87b3468edf484fdE
libclamav.so.11:_ZN6object6common11SectionKind6is_bss17hbff7e5822253b1a6E
libclamav.so.11:_ZN6object6common12Architecture12address_size17h68464dc209e06574E
libclamav.so.11:_ZN70_$LT$$u5b$f32$u5d$$u20$as$u20$tiff..encoder..tiff_value..TiffValue$GT$4data17he7ffe3ddfb58bac2E
libclamav.so.11:_ZN70_$LT$$u5b$f32$u5d$$u20$as$u20$tiff..encoder..tiff_value..TiffValue$GT$5count17h9366bf927a9c86e9E
libclamav.so.11:_ZN70_$LT$$u5b$f64$u5d$$u20$as$u20$tiff..encoder..tiff_value..TiffValue$GT$4data17h302e66a7e08594e2E
libclamav.so.11:_ZN70_$LT$$u5b$f64$u5d$$u20$as$u20$tiff..encoder..tiff_value..TiffValue$GT$5count17h3bafc5de60e0dd12E
libclamav.so.11:_ZN70_$LT$$u5b$i16$u5d$$u20$as$u20$tiff..encoder..tiff_value..TiffValue$GT$4data17h35eb0ce22ae08929E
libclamav.so.11:_ZN70_$LT$$u5b$i16$u5d$$u20$as$u20$tiff..encoder..tiff_value..TiffValue$GT$5count17h27fba407bc18e0fcE
libclamav.so.11:_ZN70_$LT$$u5b$i32$u5d$$u20$as$u20$tiff..encoder..tiff_value..TiffValue$GT$4data17h348f316f3216c061E
libclamav.so.11:_ZN70_$LT$$u5b$i32$u5d$$u20$as$u20$tiff..encoder..tiff_value..TiffValue$GT$5count17h1f34d20ecde386a2E
libclamav.so.11:_ZN70_$LT$$u5b$i64$u5d$$u20$as$u20$tiff..encoder..tiff_value..TiffValue$GT$4data17h1645403e1925388eE
libclamav.so.11:_ZN70_$LT$$u5b$i64$u5d$$u20$as$u20$tiff..encoder..tiff_value..TiffValue$GT$5count17ha19e7ac22ec6a818E
libclamav.so.11:_ZN70_$LT$$u5b$u16$u5d$$u20$as$u20$tiff..encoder..tiff_value..TiffValue$GT$4data17h93402d4d3e6bee69E
libclamav.so.11:_ZN70_$LT$$u5b$u16$u5d$$u20$as$u20$tiff..encoder..tiff_value..TiffValue$GT$5count17h4ed9ff923d6810c5E
libclamav.so.11:_ZN70_$LT$$u5b$u32$u5d$$u20$as$u20$tiff..encoder..tiff_value..TiffValue$GT$4data17h677d19d4a5e878a7E
libclamav.so.11:_ZN70_$LT$$u5b$u32$u5d$$u20$as$u20$tiff..encoder..tiff_value..TiffValue$GT$5count17hcf86c51203849a77E
libclamav.so.11:_ZN70_$LT$$u5b$u64$u5d$$u20$as$u20$tiff..encoder..tiff_value..TiffValue$GT$4data17h2a5ad660d3c3f203E
libclamav.so.11:_ZN70_$LT$$u5b$u64$u5d$$u20$as$u20$tiff..encoder..tiff_value..TiffValue$GT$5count17h2089815cd181c083E
libclamav.so.11:_ZN70_$LT$core..fmt..num..Octal$u20$as$u20$core..fmt..num..GenericRadix$GT$5digit17h937ae169ebb58f2aE
libclamav.so.11:_ZN70_$LT$core..num..error..ParseIntError$u20$as$u20$core..error..Error$GT$11description17h42fff55a79a3feadE
libclamav.so.11:_ZN70_$LT$core..num..error..ParseIntError$u20$as$u20$core..fmt..Display$GT$3fmt17h9e621cb4e5bea4b4E
libclamav.so.11:_ZN70_$LT$core..num..error..TryFromIntError$u20$as$u20$core..fmt..Debug$GT$3fmt17h7735b23f399afef9E
libclamav.so.11:_ZN70_$LT$core..panic..location..Location$u20$as$u20$core..fmt..Display$GT$3fmt17h6e6a3d77f753c86aE
libclamav.so.11:_ZN70_$LT$core..slice..ascii..EscapeAscii$u20$as$u20$core..fmt..Display$GT$3fmt17h0a470772056a14caE
libclamav.so.11:_ZN70_$LT$core..time..TryFromFloatSecsError$u20$as$u20$core..fmt..Debug$GT$3fmt17hf9ef824dbd39cc60E
libclamav.so.11:_ZN70_$LT$exr..block..samples..Sample$u20$as$u20$core..default..Default$GT$7default17h8d751fee0041c0a1E
libclamav.so.11:_ZN70_$LT$exr..meta..attribute..ChannelList$u20$as$u20$core..fmt..Debug$GT$3fmt17h2892ebcd51598c75E
libclamav.so.11:_ZN70_$LT$flate2..mem..DecompressErrorInner$u20$as$u20$core..fmt..Debug$GT$3fmt17hb9ac308533133935E
libclamav.so.11:_ZN70_$LT$gif..encoder..EncodingFormatError$u20$as$u20$core..fmt..Debug$GT$3fmt17h8541858703f82a7bE
libclamav.so.11:_ZN70_$LT$gimli..common..DebugTypeSignature$u20$as$u20$core..fmt..Debug$GT$3fmt17h163fb11d2236810aE
libclamav.so.11:_ZN70_$LT$gimli..common..LineEncoding$u20$as$u20$core..default..Default$GT$7default17ha994083aca824e56E
libclamav.so.11:_ZN70_$LT$gimli..read..abbrev..Abbreviation$u20$as$u20$core..fmt..Debug$GT$3fmt17h57d6ed3f5a111d8cE
libclamav.so.11:_ZN70_$LT$gimli..read..aranges..ArangeEntry$u20$as$u20$core..fmt..Debug$GT$3fmt17hd62d5a0e322482acE
libclamav.so.11:_ZN70_$LT$libc..unix..linux_like..Dl_info$u20$as$u20$core..clone..Clone$GT$5clone17hbe118302d49344e7E
libclamav.so.11:_ZN70_$LT$libc..unix..linux_like..ifaddrs$u20$as$u20$core..clone..Clone$GT$5clone17hce0e493a7d0567deE
libclamav.so.11:_ZN70_$LT$libc..unix..linux_like..in_addr$u20$as$u20$core..clone..Clone$GT$5clone17h95cff4a40eb31fd3E
libclamav.so.11:_ZN70_$LT$libc..unix..linux_like..ip_mreq$u20$as$u20$core..clone..Clone$GT$5clone17he5a5a83a2d5d2440E
libclamav.so.11:_ZN70_$LT$libc..unix..linux_like..mmsghdr$u20$as$u20$core..clone..Clone$GT$5clone17h9e1b817441d6e4adE
libclamav.so.11:_ZN70_$LT$libc..unix..linux_like..utsname$u20$as$u20$core..clone..Clone$GT$5clone17h4596126813ccb98bE
libclamav.so.11:_ZN70_$LT$memchr..memmem..x86..sse..Forward$u20$as$u20$core..fmt..Debug$GT$3fmt17h3bf524bc02e808cdE
libclamav.so.11:_ZN70_$LT$miniz_oxide..inflate..TINFLStatus$u20$as$u20$core..fmt..Debug$GT$3fmt17h2f3491320dd47d70E
libclamav.so.11:_ZN70_$LT$miniz_oxide..inflate..TINFLStatus$u20$as$u20$core..fmt..Debug$GT$3fmt17h433832020d7b98caE
libclamav.so.11:_ZN70_$LT$miniz_oxide..inflate..core..State$u20$as$u20$core..fmt..Debug$GT$3fmt17h6d7c3fe9a60584d4E
libclamav.so.11:_ZN70_$LT$miniz_oxide..inflate..core..State$u20$as$u20$core..fmt..Debug$GT$3fmt17ha47546cb33393128E
libclamav.so.11:_ZN70_$LT$object..pe..ImageAuxSymbolSection$u20$as$u20$core..fmt..Debug$GT$3fmt17h876a32f33fe69266E
libclamav.so.11:_ZN70_$LT$object..pe..ImageImportDescriptor$u20$as$u20$core..fmt..Debug$GT$3fmt17h7460792c586f8582E
libclamav.so.11:_ZN70_$LT$object..pe..ImageOptionalHeader32$u20$as$u20$core..fmt..Debug$GT$3fmt17h0a69cc80a8617647E
libclamav.so.11:_ZN70_$LT$object..pe..ImageOptionalHeader64$u20$as$u20$core..fmt..Debug$GT$3fmt17h142f9aebf35e6981E
libclamav.so.11:_ZN70_$LT$object..pe..MaskedRichHeaderEntry$u20$as$u20$core..fmt..Debug$GT$3fmt17h64a5974d4a8f6176E
libclamav.so.11:_ZN70_$LT$object..read..CompressedFileRange$u20$as$u20$core..fmt..Debug$GT$3fmt17h2794a972b916c82eE
libclamav.so.11:_ZN70_$LT$png..common..SourceChromaticities$u20$as$u20$core..fmt..Debug$GT$3fmt17h7b582e55c2f5cf55E
libclamav.so.11:_ZN70_$LT$png..decoder..stream..FormatError$u20$as$u20$core..fmt..Debug$GT$3fmt17h50d59185d6ec3c7cE
libclamav.so.11:_ZN70_$LT$png..text_metadata..OptCompressed$u20$as$u20$core..fmt..Debug$GT$3fmt17h34ce5c07784988a6E
libclamav.so.11:_ZN70_$LT$rayon_core..latch..CountLockLatch$u20$as$u20$core..fmt..Debug$GT$3fmt17h8da755f94a6f527cE
libclamav.so.11:_ZN70_$LT$rustfft..math_utils..PrimeFactors$u20$as$u20$core..fmt..Debug$GT$3fmt17hbcc42a11288cbc0eE
libclamav.so.11:_ZN70_$LT$rustfft..sse..sse_planner..Recipe$u20$as$u20$core..fmt..Debug$GT$3fmt17h17c15157b27f5bd3E
libclamav.so.11:_ZN70_$LT$std..net..socket_addr..SocketAddr$u20$as$u20$core..fmt..Debug$GT$3fmt17h2094d45f3655a043E
libclamav.so.11:_ZN70_$LT$std..net..socket_addr..SocketAddrV4$u20$as$u20$core..cmp..Ord$GT$3cmp17hc2c37e43e762cacbE
libclamav.so.11:_ZN70_$LT$std..net..socket_addr..SocketAddrV6$u20$as$u20$core..cmp..Ord$GT$3cmp17habc6d4326ed0ef81E
libclamav.so.11:_ZN70_$LT$std..sync..condvar..Condvar$u20$as$u20$core..default..Default$GT$7default17h314c72c5840a88aeE
libclamav.so.11:_ZN70_$LT$std..sync..mpmc..context..Context$u20$as$u20$core..fmt..Debug$GT$3fmt17hbece0b498fefc689E
libclamav.so.11:_ZN70_$LT$std..sync..mpmc..select..Selected$u20$as$u20$core..fmt..Debug$GT$3fmt17haa3c9617f89a8224E
libclamav.so.11:_ZN70_$LT$std..sync..mpsc..RecvTimeoutError$u20$as$u20$core..fmt..Debug$GT$3fmt17h15eda68fbf460332E
libclamav.so.11:_ZN70_$LT$std..sys..unix..fs..File$u20$as$u20$std..os..fd..raw..AsRawFd$GT$9as_raw_fd17h27c7357e6952ef09E
libclamav.so.11:_ZN70_$LT$std..sys_common..net..TcpListener$u20$as$u20$core..fmt..Debug$GT$3fmt17h8deda534190415f9E
libclamav.so.11:_ZN70_$LT$std..thread..local..AccessError$u20$as$u20$core..fmt..Display$GT$3fmt17h975c3ea1e3cb9484E
libclamav.so.11:_ZN70_$LT$tiff..encoder..TiffKindBig$u20$as$u20$tiff..encoder..TiffKind$GT$13convert_slice17h34bb8ca78fc13058E
libclamav.so.11:_ZN70_$LT$tiff..encoder..TiffKindBig$u20$as$u20$tiff..encoder..TiffKind$GT$14convert_offset17h9a8b229032d6adefE
libclamav.so.11:_ZN70_$LT$tiff..error..JpegDecoderError$u20$as$u20$core..cmp..PartialEq$GT$2eq17h91f0df0ffb1d8d88E
libclamav.so.11:_ZN70_$LT$tiff..error..TiffUnsupportedError$u20$as$u20$core..fmt..Debug$GT$3fmt17h03c1ae991e9ce132E
libclamav.so.11:_ZN70_$LT$weezl..decode..LsbBuffer$u20$as$u20$weezl..decode..CodeBuffer$GT$11next_symbol17h495f824ff70780a6E
libclamav.so.11:_ZN70_$LT$weezl..decode..LsbBuffer$u20$as$u20$weezl..decode..CodeBuffer$GT$11refill_bits17h6c62e3b99a14eb37E
libclamav.so.11:_ZN70_$LT$weezl..decode..LsbBuffer$u20$as$u20$weezl..decode..CodeBuffer$GT$14bump_code_size17hc987840fa44590eaE
libclamav.so.11:_ZN70_$LT$weezl..decode..LsbBuffer$u20$as$u20$weezl..decode..CodeBuffer$GT$3new17hb1f673a6f2307816E
libclamav.so.11:_ZN70_$LT$weezl..decode..LsbBuffer$u20$as$u20$weezl..decode..CodeBuffer$GT$5reset17hcab592712db13552E
libclamav.so.11:_ZN70_$LT$weezl..decode..LsbBuffer$u20$as$u20$weezl..decode..CodeBuffer$GT$8get_bits17h7751d61a8858b1eeE
libclamav.so.11:_ZN70_$LT$weezl..decode..LsbBuffer$u20$as$u20$weezl..decode..CodeBuffer$GT$8max_code17h36ee7cf7c83b89c7E
libclamav.so.11:_ZN70_$LT$weezl..decode..LsbBuffer$u20$as$u20$weezl..decode..CodeBuffer$GT$9code_size17h9b15b95dc36cb071E
libclamav.so.11:_ZN70_$LT$weezl..decode..MsbBuffer$u20$as$u20$weezl..decode..CodeBuffer$GT$11next_symbol17h38a9cc876f31860cE
libclamav.so.11:_ZN70_$LT$weezl..decode..MsbBuffer$u20$as$u20$weezl..decode..CodeBuffer$GT$11refill_bits17he6ebe6eaf0d34843E
libclamav.so.11:_ZN70_$LT$weezl..decode..MsbBuffer$u20$as$u20$weezl..decode..CodeBuffer$GT$14bump_code_size17h29ef2e948fe939ddE
libclamav.so.11:_ZN70_$LT$weezl..decode..MsbBuffer$u20$as$u20$weezl..decode..CodeBuffer$GT$3new17hd21bb98fe35ee007E
libclamav.so.11:_ZN70_$LT$weezl..decode..MsbBuffer$u20$as$u20$weezl..decode..CodeBuffer$GT$5reset17hb3858708d518eaa2E
libclamav.so.11:_ZN70_$LT$weezl..decode..MsbBuffer$u20$as$u20$weezl..decode..CodeBuffer$GT$8get_bits17h5a9caacd422d1445E
libclamav.so.11:_ZN70_$LT$weezl..decode..MsbBuffer$u20$as$u20$weezl..decode..CodeBuffer$GT$8max_code17h9de19e689ed55cc2E
libclamav.so.11:_ZN70_$LT$weezl..decode..MsbBuffer$u20$as$u20$weezl..decode..CodeBuffer$GT$9code_size17hf9055a1afea77c9cE
libclamav.so.11:_ZN71_$LT$alloc..boxed..Box$LT$str$GT$$u20$as$u20$core..default..Default$GT$7default17h4b83960539b9a70dE
libclamav.so.11:_ZN71_$LT$alloc..ffi..c_str..IntoStringError$u20$as$u20$core..fmt..Debug$GT$3fmt17h47a3b58e9025fc88E
libclamav.so.11:_ZN71_$LT$core..alloc..layout..LayoutError$u20$as$u20$core..fmt..Display$GT$3fmt17h7d7c0c6ecd79578bE
libclamav.so.11:_ZN71_$LT$core..char..convert..CharErrorKind$u20$as$u20$core..fmt..Debug$GT$3fmt17had1b0e195ed94cb7E
libclamav.so.11:_ZN71_$LT$core..convert..Infallible$u20$as$u20$std..process..Termination$GT$6report17h15320f920fedbcb1E
libclamav.so.11:_ZN71_$LT$core..fmt..num..Binary$u20$as$u20$core..fmt..num..GenericRadix$GT$5digit17h953494865771cda8E
libclamav.so.11:_ZN71_$LT$core..mem..transmutability..Assume$u20$as$u20$core..fmt..Debug$GT$3fmt17he7dd75da8a17d83eE
libclamav.so.11:_ZN71_$LT$core..num..bignum..tests..Big8x3$u20$as$u20$core..clone..Clone$GT$5clone17h6aca6e427f01ae77E
libclamav.so.11:_ZN71_$LT$core..num..dec2flt..FloatErrorKind$u20$as$u20$core..fmt..Debug$GT$3fmt17h0144360517b1b70fE
libclamav.so.11:_ZN71_$LT$core..num..dec2flt..number..Number$u20$as$u20$core..fmt..Debug$GT$3fmt17heba51c2d60bf8c63E
libclamav.so.11:_ZN71_$LT$core..ops..index_range..IndexRange$u20$as$u20$core..fmt..Debug$GT$3fmt17h0263559a0d04a0f7E
libclamav.so.11:_ZN71_$LT$core..panic..panic_info..PanicInfo$u20$as$u20$core..fmt..Debug$GT$3fmt17h7d520b622d37dc6cE
libclamav.so.11:_ZN71_$LT$core..str..error..ParseBoolError$u20$as$u20$core..error..Error$GT$11description17h924614f6a1b7797eE
libclamav.so.11:_ZN71_$LT$core..str..error..ParseBoolError$u20$as$u20$core..fmt..Display$GT$3fmt17h9a4725c089c61af0E
libclamav.so.11:_ZN71_$LT$core..str..pattern..TwoWaySearcher$u20$as$u20$core..fmt..Debug$GT$3fmt17hcc775dfced21f41bE
libclamav.so.11:_ZN71_$LT$crossbeam_epoch..sync..list..Entry$u20$as$u20$core..fmt..Debug$GT$3fmt17h799c9f4a6031130cE
libclamav.so.11:_ZN71_$LT$exr..block..chunk..CompressedBlock$u20$as$u20$core..fmt..Debug$GT$3fmt17hc1227880a88c137bE
libclamav.so.11:_ZN71_$LT$exr..block..chunk..TileCoordinates$u20$as$u20$core..fmt..Debug$GT$3fmt17hb768bb89c2ac93f9E
libclamav.so.11:_ZN71_$LT$exr..compression..b44..ChannelData$u20$as$u20$core..fmt..Debug$GT$3fmt17h36d25a70b6863b52E
libclamav.so.11:_ZN71_$LT$exr..compression..piz..ChannelData$u20$as$u20$core..fmt..Debug$GT$3fmt17h6132a37e8116bd10E
libclamav.so.11:_ZN71_$LT$exr..meta..header..ImageAttributes$u20$as$u20$core..fmt..Debug$GT$3fmt17h9eee2c73e0361393E
libclamav.so.11:_ZN71_$LT$exr..meta..header..LayerAttributes$u20$as$u20$core..fmt..Debug$GT$3fmt17h295a0bb9c656ef52E
libclamav.so.11:_ZN71_$LT$gimli..common..DwarfFileType$u20$as$u20$core..default..Default$GT$7default17h906e8009f5c91fa8E
libclamav.so.11:_ZN71_$LT$gimli..read..abbrev..Abbreviations$u20$as$u20$core..fmt..Debug$GT$3fmt17h6aaaa4f78d719f8aE
libclamav.so.11:_ZN71_$LT$gimli..read..cfi..AugmentationData$u20$as$u20$core..fmt..Debug$GT$3fmt17h1d7f910e7679ed0aE
libclamav.so.11:_ZN71_$LT$gimli..read..line..FileEntryFormat$u20$as$u20$core..fmt..Debug$GT$3fmt17h20be277a2a3f9768E
libclamav.so.11:_ZN71_$LT$image..codecs..dds..DecoderError$u20$as$u20$core..fmt..Display$GT$3fmt17hbf6571c05f66612dE
libclamav.so.11:_ZN71_$LT$image..codecs..tga..header..Header$u20$as$u20$core..fmt..Debug$GT$3fmt17h45b37a069ac1b82aE
libclamav.so.11:_ZN71_$LT$image..codecs..webp..vp8..LumaMode$u20$as$u20$core..fmt..Debug$GT$3fmt17hbb5b224a32ca22c4E
libclamav.so.11:_ZN71_$LT$image..error..UnsupportedErrorKind$u20$as$u20$core..fmt..Debug$GT$3fmt17h8bf41698bc966428E
libclamav.so.11:_ZN71_$LT$jpeg_decoder..decoder..PixelFormat$u20$as$u20$core..fmt..Debug$GT$3fmt17h8dd6aa81a4bcac43E
libclamav.so.11:_ZN71_$LT$libc..unix..linux_like..addrinfo$u20$as$u20$core..clone..Clone$GT$5clone17h539ba60a3c8134ceE
libclamav.so.11:_ZN71_$LT$libc..unix..linux_like..ip_mreqn$u20$as$u20$core..clone..Clone$GT$5clone17hfaa1e8b8e7ea7e55E
libclamav.so.11:_ZN71_$LT$libc..unix..linux_like..sigevent$u20$as$u20$core..clone..Clone$GT$5clone17hcebc653cf07eabe8E
libclamav.so.11:_ZN71_$LT$libc..unix..linux_like..sockaddr$u20$as$u20$core..clone..Clone$GT$5clone17h6cd8a25874d5cdfdE
libclamav.so.11:_ZN71_$LT$libc..unix..linux_like..timezone$u20$as$u20$core..clone..Clone$GT$5clone17h873beb3e23edc851E
libclamav.so.11:_ZN71_$LT$memchr..memmem..twoway..SuffixKind$u20$as$u20$core..fmt..Debug$GT$3fmt17ha2560e900affac11E
libclamav.so.11:_ZN71_$LT$object..common..RelocationEncoding$u20$as$u20$core..fmt..Debug$GT$3fmt17h1b4db247d0327c86E
libclamav.so.11:_ZN71_$LT$object..pe..AnonObjectHeaderBigobj$u20$as$u20$core..fmt..Debug$GT$3fmt17h8411265cd428213aE
libclamav.so.11:_ZN71_$LT$object..pe..ImageArchitectureEntry$u20$as$u20$core..fmt..Debug$GT$3fmt17h76cac94810a48d4eE
libclamav.so.11:_ZN71_$LT$object..pe..ImageAuxSymbolFunction$u20$as$u20$core..fmt..Debug$GT$3fmt17hba5f9f2b8238ac3bE
libclamav.so.11:_ZN71_$LT$object..pe..ImageAuxSymbolTokenDef$u20$as$u20$core..fmt..Debug$GT$3fmt17h0bf039aaf18905cbE
libclamav.so.11:_ZN71_$LT$object..pe..ImageBoundForwarderRef$u20$as$u20$core..fmt..Debug$GT$3fmt17h589c8e4edbf20c67E
libclamav.so.11:_ZN71_$LT$object..pe..ImageCoffSymbolsHeader$u20$as$u20$core..fmt..Debug$GT$3fmt17h803b89adbe426840E
libclamav.so.11:_ZN71_$LT$object..pe..ImageResourceDataEntry$u20$as$u20$core..fmt..Debug$GT$3fmt17h6bd9ef09c2e2e738E
libclamav.so.11:_ZN71_$LT$object..pe..ImageResourceDirectory$u20$as$u20$core..fmt..Debug$GT$3fmt17h2aada493776cdf3eE
libclamav.so.11:_ZN71_$LT$object..pe..ImageRomOptionalHeader$u20$as$u20$core..fmt..Debug$GT$3fmt17h59ca5cc111ab5893E
libclamav.so.11:_ZN71_$LT$object..read..archive..ArchiveKind$u20$as$u20$core..fmt..Debug$GT$3fmt17hdd068076e28dc002E
libclamav.so.11:_ZN71_$LT$png..common..Transformations$u20$as$u20$core..default..Default$GT$7default17hc5ea5db4af8a112aE
libclamav.so.11:_ZN71_$LT$rayon_core..ThreadPoolBuildError$u20$as$u20$core..error..Error$GT$11description17he5a88493e6cb3eb3E
libclamav.so.11:_ZN71_$LT$rayon_core..ThreadPoolBuildError$u20$as$u20$core..error..Error$GT$6source17h6cce19dfda4d3f52E
libclamav.so.11:_ZN71_$LT$rayon_core..ThreadPoolBuildError$u20$as$u20$core..fmt..Display$GT$3fmt17hba732beaea11584eE
libclamav.so.11:_ZN71_$LT$rayon_core..registry..DefaultSpawn$u20$as$u20$core..fmt..Debug$GT$3fmt17h4f93f4695bcc9b60E
libclamav.so.11:_ZN71_$LT$rustc_demangle..SizeLimitExhausted$u20$as$u20$core..fmt..Debug$GT$3fmt17h7c4d56aa2251093fE
libclamav.so.11:_ZN71_$LT$rustc_demangle..legacy..Demangle$u20$as$u20$core..fmt..Display$GT$3fmt17h0459e115ba0a2c0dE
libclamav.so.11:_ZN71_$LT$std..fs..File$u20$as$u20$std..sys..unix..kernel_copy..CopyRead$GT$10properties17h81c6a611db71635bE
libclamav.so.11:_ZN71_$LT$std..net..parser..AddrParseError$u20$as$u20$core..error..Error$GT$11description17h512d298a2473a94bE
libclamav.so.11:_ZN71_$LT$std..net..parser..AddrParseError$u20$as$u20$core..fmt..Display$GT$3fmt17h4fd4dcfed4088a5fE
libclamav.so.11:_ZN71_$LT$std..sync..mpmc..array..ArrayToken$u20$as$u20$core..fmt..Debug$GT$3fmt17hfb4c976ac1355324E
libclamav.so.11:_ZN71_$LT$std..sync..mpmc..select..Operation$u20$as$u20$core..fmt..Debug$GT$3fmt17h155b6ac84ce63d8aE
libclamav.so.11:_ZN71_$LT$std..sys..unix..os..JoinPathsError$u20$as$u20$core..fmt..Debug$GT$3fmt17hfa8f0a8625e1d645E
libclamav.so.11:_ZN71_$LT$tempfile..file..PathPersistError$u20$as$u20$core..error..Error$GT$6source17h5481589647caafbdE
libclamav.so.11:_ZN71_$LT$tempfile..file..PathPersistError$u20$as$u20$core..fmt..Display$GT$3fmt17h2f5ee47a70b20fb3E
libclamav.so.11:_ZN72_$LT$$RF$str$u20$as$u20$alloc..ffi..c_str..CString..new..SpecNewImpl$GT$13spec_new_impl17h448e63a262cf314aE
libclamav.so.11:_ZN72_$LT$alloc..collections..TryReserveError$u20$as$u20$core..fmt..Debug$GT$3fmt17h51d81a88c11f96dfE
libclamav.so.11:_ZN72_$LT$alloc..string..Drain$u20$as$u20$core..convert..AsRef$LT$str$GT$$GT$6as_ref17h1891a4cb3c5cf402E
libclamav.so.11:_ZN72_$LT$core..char..convert..ParseCharError$u20$as$u20$core..fmt..Debug$GT$3fmt17hb2df819b2e546f32E
libclamav.so.11:_ZN72_$LT$core..num..dec2flt..ParseFloatError$u20$as$u20$core..fmt..Debug$GT$3fmt17hf78714b57067b45bE
libclamav.so.11:_ZN72_$LT$core..num..error..TryFromIntError$u20$as$u20$core..error..Error$GT$11description17h0e218d08fd1c142eE
libclamav.so.11:_ZN72_$LT$core..num..error..TryFromIntError$u20$as$u20$core..fmt..Display$GT$3fmt17he11b4588783157ccE
libclamav.so.11:_ZN72_$LT$core..str..pattern..StrSearcherImpl$u20$as$u20$core..fmt..Debug$GT$3fmt17he32d265f4d8f9a08E
libclamav.so.11:_ZN72_$LT$core..time..TryFromFloatSecsError$u20$as$u20$core..fmt..Display$GT$3fmt17h0a760b2a23352aa0E
libclamav.so.11:_ZN72_$LT$crossbeam_epoch..deferred..Deferred$u20$as$u20$core..fmt..Debug$GT$3fmt17h3dc2269d4c87aff7E
libclamav.so.11:_ZN72_$LT$crossbeam_epoch..epoch..AtomicEpoch$u20$as$u20$core..fmt..Debug$GT$3fmt17hb1d7e456d4a0fdd6E
libclamav.so.11:_ZN72_$LT$crossbeam_epoch..internal..Bag$u20$as$u20$core..ops..drop..Drop$GT$4drop17h0fd353e89f59cd76E
libclamav.so.11:_ZN72_$LT$exr..meta..attribute..IntegerBounds$u20$as$u20$core..fmt..Debug$GT$3fmt17he7df4e25a5182391E
libclamav.so.11:_ZN72_$LT$gif..encoder..EncodingFormatError$u20$as$u20$core..fmt..Display$GT$3fmt17h4ab3a125d5bda76eE
libclamav.so.11:_ZN72_$LT$gif..reader..decoder..DecodingError$u20$as$u20$core..fmt..Debug$GT$3fmt17hcd641c40e677b46dE
libclamav.so.11:_ZN72_$LT$gimli..read..abbrev..Attributes$u20$as$u20$core..cmp..PartialEq$GT$2eq17hc12aa714bdd95136E
libclamav.so.11:_ZN72_$LT$gimli..read..cfi..CieOffsetEncoding$u20$as$u20$core..fmt..Debug$GT$3fmt17hf1f27b8903c82102E
libclamav.so.11:_ZN72_$LT$gimli..read..reader..ReaderOffsetId$u20$as$u20$core..fmt..Debug$GT$3fmt17heaf99147fc0b201bE
libclamav.so.11:_ZN72_$LT$image..codecs..png..CompressionType$u20$as$u20$core..fmt..Debug$GT$3fmt17hf4b6fdcf5da48cecE
libclamav.so.11:_ZN72_$LT$image..codecs..webp..vp8..IntraMode$u20$as$u20$core..fmt..Debug$GT$3fmt17h56c68360e383eb35E
libclamav.so.11:_ZN72_$LT$image..dynimage..DynamicImage$u20$as$u20$core..default..Default$GT$7default17hcb561acec345efdfE
libclamav.so.11:_ZN72_$LT$image..imageops..sample..FilterType$u20$as$u20$core..fmt..Debug$GT$3fmt17h841b8ecf3afbe753E
libclamav.so.11:_ZN72_$LT$jpeg_decoder..parser..CodingProcess$u20$as$u20$core..fmt..Debug$GT$3fmt17h20f3a4e54647c60cE
libclamav.so.11:_ZN72_$LT$jpeg_decoder..parser..EntropyCoding$u20$as$u20$core..fmt..Debug$GT$3fmt17h1bc51eea679fed2aE
libclamav.so.11:_ZN72_$LT$libc..unix..linux_like..in6_rtmsg$u20$as$u20$core..clone..Clone$GT$5clone17hfff235810fea41ecE
libclamav.so.11:_ZN72_$LT$object..pe..ImageResourceDirStringU$u20$as$u20$core..fmt..Debug$GT$3fmt17h54951ff189e212ceE
libclamav.so.11:_ZN72_$LT$object..read..elf..version..Version$u20$as$u20$core..fmt..Debug$GT$3fmt17he748d57e227b60bfE
libclamav.so.11:_ZN72_$LT$png..decoder..stream..DecodingError$u20$as$u20$core..fmt..Debug$GT$3fmt17had6375d948f31b39E
libclamav.so.11:_ZN72_$LT$png..decoder..stream..FormatError$u20$as$u20$core..fmt..Display$GT$3fmt17hba88d7b8f393d108E
libclamav.so.11:_ZN72_$LT$rayon_core..ThreadPoolBuilder$u20$as$u20$core..default..Default$GT$7default17h96b7c207c026e9d9E
libclamav.so.11:_ZN72_$LT$rayon_core..registry..ThreadBuilder$u20$as$u20$core..fmt..Debug$GT$3fmt17h54901f4de31f969fE
libclamav.so.11:_ZN72_$LT$rayon_core..thread_pool..ThreadPool$u20$as$u20$core..fmt..Debug$GT$3fmt17h1f849b59f173c4caE
libclamav.so.11:_ZN72_$LT$rustfft..math_utils..PartialFactors$u20$as$u20$core..fmt..Debug$GT$3fmt17h16bb4a642c471cc3E
libclamav.so.11:_ZN72_$LT$std..backtrace_rs..backtrace..Frame$u20$as$u20$core..fmt..Debug$GT$3fmt17h86ec3379cb666650E
libclamav.so.11:_ZN72_$LT$std..fs..DirBuilder$u20$as$u20$std..os..unix..fs..DirBuilderExt$GT$4mode17hd23d0479bad44a03E
libclamav.so.11:_ZN72_$LT$std..fs..File$u20$as$u20$std..sys..unix..kernel_copy..CopyWrite$GT$10properties17h06c40212c116b614E
libclamav.so.11:_ZN72_$LT$std..net..socket_addr..SocketAddr$u20$as$u20$core..fmt..Display$GT$3fmt17hc345f216b927adebE
libclamav.so.11:_ZN72_$LT$std..net..socket_addr..SocketAddrV4$u20$as$u20$core..fmt..Debug$GT$3fmt17h7c72a668f2278a6dE
libclamav.so.11:_ZN72_$LT$std..net..socket_addr..SocketAddrV6$u20$as$u20$core..fmt..Debug$GT$3fmt17hf2f581d3bd2cbd03E
libclamav.so.11:_ZN72_$LT$std..os..unix..net..stream..UnixStream$u20$as$u20$std..io..Read$GT$13read_vectored17hc53bf9b0f30530b1E
libclamav.so.11:_ZN72_$LT$std..os..unix..net..stream..UnixStream$u20$as$u20$std..io..Read$GT$4read17h7f4ddf730449cc13E
libclamav.so.11:_ZN72_$LT$std..process..ExitCode$u20$as$u20$core..convert..From$LT$u8$GT$$GT$4from17hf456b2e83db94d2eE
libclamav.so.11:_ZN72_$LT$std..sync..mpsc..RecvTimeoutError$u20$as$u20$core..error..Error$GT$11description17hfb075e7eef31fba2E
libclamav.so.11:_ZN72_$LT$std..sync..mpsc..RecvTimeoutError$u20$as$u20$core..fmt..Display$GT$3fmt17h87753680a569f9f3E
libclamav.so.11:_ZN72_$LT$std..sys..unix..fs..File$u20$as$u20$std..os..fd..raw..FromRawFd$GT$11from_raw_fd17h6cdca1363fbea790E
libclamav.so.11:_ZN72_$LT$std..sys..unix..fs..File$u20$as$u20$std..os..fd..raw..IntoRawFd$GT$11into_raw_fd17h7dcec2df892a5d36E
libclamav.so.11:_ZN72_$LT$std..sys..unix..fs..FilePermissions$u20$as$u20$core..fmt..Debug$GT$3fmt17h828fa4c7b1a42d10E
libclamav.so.11:_ZN72_$LT$std..sys..unix..net..Socket$u20$as$u20$std..os..fd..owned..AsFd$GT$5as_fd17h3f23b33b0e5c000fE
libclamav.so.11:_ZN72_$LT$std..sys..unix..thread..Thread$u20$as$u20$core..ops..drop..Drop$GT$4drop17h65d4d40591c7e424E
libclamav.so.11:_ZN72_$LT$tiff..error..TiffUnsupportedError$u20$as$u20$core..fmt..Display$GT$3fmt17hef42c59ce8984031E
libclamav.so.11:_ZN73_$LT$$RF$alloc..string..String$u20$as$u20$core..str..pattern..Pattern$GT$13into_searcher17h83f8b89e9b87d5eeE
libclamav.so.11:_ZN73_$LT$alloc..ffi..c_str..IntoStringError$u20$as$u20$core..error..Error$GT$11description17h831f1b45fae11534E
libclamav.so.11:_ZN73_$LT$alloc..ffi..c_str..IntoStringError$u20$as$u20$core..error..Error$GT$6source17h84f04b2fb8d09199E
libclamav.so.11:_ZN73_$LT$alloc..ffi..c_str..IntoStringError$u20$as$u20$core..fmt..Display$GT$3fmt17h84212255b8b6c269E
libclamav.so.11:_ZN73_$LT$core..char..decode..DecodeUtf16Error$u20$as$u20$core..fmt..Debug$GT$3fmt17h91098b20a8164375E
libclamav.so.11:_ZN73_$LT$core..fmt..num..LowerHex$u20$as$u20$core..fmt..num..GenericRadix$GT$5digit17h1277803c45d1a9a4E
libclamav.so.11:_ZN73_$LT$core..fmt..num..UpperHex$u20$as$u20$core..fmt..num..GenericRadix$GT$5digit17h70aadf6c5f245a57E
libclamav.so.11:_ZN73_$LT$core..num..bignum..tests..Big8x3$u20$as$u20$core..cmp..PartialEq$GT$2eq17hb512decabaccff6fE
libclamav.so.11:_ZN73_$LT$core..num..dec2flt..common..AsciiStr$u20$as$u20$core..fmt..Debug$GT$3fmt17h9229dc5cd4cc23e0E
libclamav.so.11:_ZN73_$LT$core..num..dec2flt..common..BiasedFp$u20$as$u20$core..fmt..Debug$GT$3fmt17h8ce2c07a1d2b228fE
libclamav.so.11:_ZN73_$LT$core..num..flt2dec..decoder..Decoded$u20$as$u20$core..fmt..Debug$GT$3fmt17hf9ab6f3ded7b80b7E
libclamav.so.11:_ZN73_$LT$core..panic..panic_info..PanicInfo$u20$as$u20$core..fmt..Display$GT$3fmt17hefc7c6d8845219cdE
libclamav.so.11:_ZN73_$LT$core..time..Duration$u20$as$u20$core..ops..arith..Div$LT$u32$GT$$GT$3div17h46c100651f261a88E
libclamav.so.11:_ZN73_$LT$core..time..Duration$u20$as$u20$core..ops..arith..Mul$LT$u32$GT$$GT$3mul17h7afadb086568c053E
libclamav.so.11:_ZN73_$LT$crossbeam_epoch..internal..Bag$u20$as$u20$core..default..Default$GT$7default17h98dc968a0ab0d659E
libclamav.so.11:_ZN73_$LT$crossbeam_epoch..internal..SealedBag$u20$as$u20$core..fmt..Debug$GT$3fmt17h117002efece9bae0E
libclamav.so.11:_ZN73_$LT$exr..compression..piz..huffman..Code$u20$as$u20$core..fmt..Debug$GT$3fmt17h4a6ee70f0181376bE
libclamav.so.11:_ZN73_$LT$exr..meta..attribute..AttributeValue$u20$as$u20$core..fmt..Debug$GT$3fmt17h4bc0055141c51abaE
libclamav.so.11:_ZN73_$LT$exr..meta..attribute..Chromaticities$u20$as$u20$core..fmt..Debug$GT$3fmt17ha9517e2451d1531eE
libclamav.so.11:_ZN73_$LT$exr..meta..attribute..EnvironmentMap$u20$as$u20$core..fmt..Debug$GT$3fmt17h2f94072bed0b1ad4E
libclamav.so.11:_ZN73_$LT$flate2..gz..bufread..GzHeaderPartial$u20$as$u20$core..fmt..Debug$GT$3fmt17h61c5919993d1ae79E
libclamav.so.11:_ZN73_$LT$gimli..read..index..UnitIndexSection$u20$as$u20$core..fmt..Debug$GT$3fmt17h038f014d44a7ff2bE
libclamav.so.11:_ZN73_$LT$image..codecs..png..FilterType$u20$as$u20$core..default..Default$GT$7default17he292b6e19876177eE
libclamav.so.11:_ZN73_$LT$image..codecs..webp..vp8..ChromaMode$u20$as$u20$core..fmt..Debug$GT$3fmt17h56f0e1d7bee77518E
libclamav.so.11:_ZN73_$LT$libc..unix..linux_like..arpreq_old$u20$as$u20$core..clone..Clone$GT$5clone17h32e4c9f9c367abe4E
libclamav.so.11:_ZN73_$LT$libc..unix..linux_like..in_pktinfo$u20$as$u20$core..clone..Clone$GT$5clone17hf10e510aadd7c81dE
libclamav.so.11:_ZN73_$LT$memchr..memmem..genericsimd..Forward$u20$as$u20$core..fmt..Debug$GT$3fmt17h77332d363050cc11E
libclamav.so.11:_ZN73_$LT$memchr..memmem..prefilter..Prefilter$u20$as$u20$core..fmt..Debug$GT$3fmt17h2c007254aee6552cE
libclamav.so.11:_ZN73_$LT$object..pe..ImageArchiveMemberHeader$u20$as$u20$core..fmt..Debug$GT$3fmt17h8e67555e2ae5ebdfE
libclamav.so.11:_ZN73_$LT$object..pe..ImageDelayloadDescriptor$u20$as$u20$core..fmt..Debug$GT$3fmt17h26781446c4734f9cE
libclamav.so.11:_ZN73_$LT$object..pe..ImageDynamicRelocation32$u20$as$u20$core..fmt..Debug$GT$3fmt17h1796c297700c5277E
libclamav.so.11:_ZN73_$LT$object..pe..ImageDynamicRelocation64$u20$as$u20$core..fmt..Debug$GT$3fmt17hd4a52439dd63a529E
libclamav.so.11:_ZN73_$LT$object..pe..ImageSeparateDebugHeader$u20$as$u20$core..fmt..Debug$GT$3fmt17h2f75e38175891a2fE
libclamav.so.11:_ZN73_$LT$object..read..archive..ArchiveMember$u20$as$u20$core..fmt..Debug$GT$3fmt17hb3d88f177f750dfaE
libclamav.so.11:_ZN73_$LT$std..backtrace_rs..symbolize..Symbol$u20$as$u20$core..fmt..Debug$GT$3fmt17h45fd6aa9732ae0d0E
libclamav.so.11:_ZN73_$LT$std..env..Args$u20$as$u20$core..iter..traits..iterator..Iterator$GT$4next17h1037ec8af8abe4d5E
libclamav.so.11:_ZN73_$LT$std..env..Args$u20$as$u20$core..iter..traits..iterator..Iterator$GT$9size_hint17h1e3efe20c9dbd0fcE
libclamav.so.11:_ZN73_$LT$std..env..Vars$u20$as$u20$core..iter..traits..iterator..Iterator$GT$4next17hf55ee57bbd7a50f3E
libclamav.so.11:_ZN73_$LT$std..env..Vars$u20$as$u20$core..iter..traits..iterator..Iterator$GT$9size_hint17h26073e66d8ff6f84E
libclamav.so.11:_ZN73_$LT$std..os..unix..net..addr..SocketAddr$u20$as$u20$core..fmt..Debug$GT$3fmt17h5edf9e0010dfb1f9E
libclamav.so.11:_ZN73_$LT$std..os..unix..net..stream..UnixStream$u20$as$u20$std..io..Write$GT$14write_vectored17hdcbec803a9b162e4E
libclamav.so.11:_ZN73_$LT$std..os..unix..net..stream..UnixStream$u20$as$u20$std..io..Write$GT$5flush17h798a84725eb850edE
libclamav.so.11:_ZN73_$LT$std..os..unix..net..stream..UnixStream$u20$as$u20$std..io..Write$GT$5write17h64737220f5fe3fb4E
libclamav.so.11:_ZN73_$LT$std..sys..unix..fd..FileDesc$u20$as$u20$std..os..fd..owned..AsFd$GT$5as_fd17hea8c5db13b522a0cE
libclamav.so.11:_ZN73_$LT$std..sys..unix..net..Socket$u20$as$u20$std..os..fd..raw..AsRawFd$GT$9as_raw_fd17hd6c01774944189cdE
libclamav.so.11:_ZN73_$LT$std..sys..unix..os..JoinPathsError$u20$as$u20$core..error..Error$GT$11description17h90600b016537d4a1E
libclamav.so.11:_ZN73_$LT$std..sys..unix..os..JoinPathsError$u20$as$u20$core..fmt..Display$GT$3fmt17h047f60a33fa4a739E
libclamav.so.11:_ZN73_$LT$std..sys..unix..time..inner..Instant$u20$as$u20$core..fmt..Debug$GT$3fmt17hbc7aeb65b9ffe297E
libclamav.so.11:_ZN73_$LT$std..sys_common..process..CommandEnv$u20$as$u20$core..fmt..Debug$GT$3fmt17h3c8207fce82f4206E
libclamav.so.11:_ZN73_$LT$tiff..decoder..image..TileAttributes$u20$as$u20$core..fmt..Debug$GT$3fmt17h1d2378616264e2c9E
libclamav.so.11:_ZN73_$LT$tiff..encoder..compression..lzw..Lzw$u20$as$u20$core..fmt..Debug$GT$3fmt17h8f7ed1219fe396d4E
libclamav.so.11:_ZN74_$LT$alloc..collections..TryReserveError$u20$as$u20$core..fmt..Display$GT$3fmt17h2ad2dc73255f76b9E
libclamav.so.11:_ZN74_$LT$core..char..convert..CharTryFromError$u20$as$u20$core..fmt..Debug$GT$3fmt17ha9c85901c2586cf2E
libclamav.so.11:_ZN74_$LT$core..char..convert..ParseCharError$u20$as$u20$core..error..Error$GT$11description17h191f45145143fc51E
libclamav.so.11:_ZN74_$LT$core..char..convert..ParseCharError$u20$as$u20$core..fmt..Display$GT$3fmt17h6b930d8c52301d11E
libclamav.so.11:_ZN74_$LT$core..num..bignum..tests..Big8x3$u20$as$u20$core..cmp..PartialOrd$GT$11partial_cmp17h0d391e7c94657881E
libclamav.so.11:_ZN74_$LT$core..num..dec2flt..ParseFloatError$u20$as$u20$core..fmt..Display$GT$3fmt17h2657556e455db890E
libclamav.so.11:_ZN74_$LT$core..str..iter..SplitAsciiWhitespace$u20$as$u20$core..fmt..Debug$GT$3fmt17h28388d3e07d08f5fE
libclamav.so.11:_ZN74_$LT$core..str..pattern..CharSliceSearcher$u20$as$u20$core..fmt..Debug$GT$3fmt17h52d70af38fc2abf2E
libclamav.so.11:_ZN74_$LT$core..time..TryFromFloatSecsErrorKind$u20$as$u20$core..fmt..Debug$GT$3fmt17hde1aba43aad92476E
libclamav.so.11:_ZN74_$LT$crossbeam_epoch..collector..Collector$u20$as$u20$core..fmt..Debug$GT$3fmt17h6782345f384bafd9E
libclamav.so.11:_ZN74_$LT$exr..meta..attribute..TileDescription$u20$as$u20$core..fmt..Debug$GT$3fmt17hba1bd12999925154E
libclamav.so.11:_ZN74_$LT$flate2..ffi..rust..Deflate$u20$as$u20$flate2..ffi..DeflateBackend$GT$4make17ha8c807e97c70e2f4E
libclamav.so.11:_ZN74_$LT$flate2..ffi..rust..Deflate$u20$as$u20$flate2..ffi..DeflateBackend$GT$5reset17h88d9b30018d4f60cE
libclamav.so.11:_ZN74_$LT$flate2..ffi..rust..Deflate$u20$as$u20$flate2..ffi..DeflateBackend$GT$8compress17h3b485747d499014dE
libclamav.so.11:_ZN74_$LT$flate2..ffi..rust..Inflate$u20$as$u20$flate2..ffi..InflateBackend$GT$10decompress17hf0b5da5d5364aabbE
libclamav.so.11:_ZN74_$LT$flate2..ffi..rust..Inflate$u20$as$u20$flate2..ffi..InflateBackend$GT$4make17h5c2925f2935af50cE
libclamav.so.11:_ZN74_$LT$flate2..ffi..rust..Inflate$u20$as$u20$flate2..ffi..InflateBackend$GT$5reset17h26176aa92b4f49cbE
libclamav.so.11:_ZN74_$LT$gif..reader..decoder..DecodingError$u20$as$u20$core..error..Error$GT$6source17he3e27fbe760b6ce1E
libclamav.so.11:_ZN74_$LT$gif..reader..decoder..DecodingError$u20$as$u20$core..fmt..Display$GT$3fmt17h85c9698ff275c406E
libclamav.so.11:_ZN74_$LT$gimli..read..lists..ListsHeader$u20$as$u20$core..default..Default$GT$7default17hbdbf808f4cf24204E
libclamav.so.11:_ZN74_$LT$gimli..read..loclists..LocListsFormat$u20$as$u20$core..fmt..Debug$GT$3fmt17h7d54f637f3e70e15E
libclamav.so.11:_ZN74_$LT$image..codecs..hdr..decoder..LineType$u20$as$u20$core..fmt..Debug$GT$3fmt17he23be7e609216954E
libclamav.so.11:_ZN74_$LT$image..codecs..hdr..encoder..RunOrNot$u20$as$u20$core..fmt..Debug$GT$3fmt17h3c294b17c8864fa8E
libclamav.so.11:_ZN74_$LT$jpeg_decoder..decoder..ColorTransform$u20$as$u20$core..fmt..Debug$GT$3fmt17hadd66b0eb836f1d0E
libclamav.so.11:_ZN74_$LT$jpeg_decoder..huffman..HuffmanDecoder$u20$as$u20$core..fmt..Debug$GT$3fmt17h00f2a692761dd019E
libclamav.so.11:_ZN74_$LT$libc..unix..linux_like..epoll_event$u20$as$u20$core..clone..Clone$GT$5clone17h2bc504ab8b4d0ae2E
libclamav.so.11:_ZN74_$LT$libc..unix..linux_like..linux..spwd$u20$as$u20$core..clone..Clone$GT$5clone17habff6d5f24a66e7fE
libclamav.so.11:_ZN74_$LT$libc..unix..linux_like..sched_param$u20$as$u20$core..clone..Clone$GT$5clone17h4cf9bf6651a90fd7E
libclamav.so.11:_ZN74_$LT$libc..unix..linux_like..sockaddr_in$u20$as$u20$core..clone..Clone$GT$5clone17h0acb272c32d7c096E
libclamav.so.11:_ZN74_$LT$libc..unix..linux_like..sockaddr_ll$u20$as$u20$core..clone..Clone$GT$5clone17h79ef34caec38530eE
libclamav.so.11:_ZN74_$LT$libc..unix..linux_like..sockaddr_un$u20$as$u20$core..clone..Clone$GT$5clone17h5a73d5c74a2ae964E
libclamav.so.11:_ZN74_$LT$memchr..memmem..rabinkarp..NeedleHash$u20$as$u20$core..fmt..Debug$GT$3fmt17h35316334033df1acE
libclamav.so.11:_ZN74_$LT$miniz_oxide..inflate..DecompressError$u20$as$u20$core..fmt..Debug$GT$3fmt17hf6e6ddbac599009eE
libclamav.so.11:_ZN74_$LT$object..pe..ImageRuntimeFunctionEntry$u20$as$u20$core..fmt..Debug$GT$3fmt17h5800b3eb16f156a3E
libclamav.so.11:_ZN74_$LT$object..read..pe..export..ExportTable$u20$as$u20$core..fmt..Debug$GT$3fmt17h55296a8f2e8382e8E
libclamav.so.11:_ZN74_$LT$object..read..pe..import..ImportTable$u20$as$u20$core..fmt..Debug$GT$3fmt17h7fc30209d80e04d8E
libclamav.so.11:_ZN74_$LT$png..decoder..stream..DecodingError$u20$as$u20$core..error..Error$GT$5cause17h33b5069b82a94a77E
libclamav.so.11:_ZN74_$LT$png..decoder..stream..DecodingError$u20$as$u20$core..fmt..Display$GT$3fmt17h8afed5222f9c2decE
libclamav.so.11:_ZN74_$LT$png..filter..AdaptiveFilterType$u20$as$u20$core..default..Default$GT$7default17h74201b877a1e6ec5E
libclamav.so.11:_ZN74_$LT$png..text_metadata..TextDecodingError$u20$as$u20$core..fmt..Debug$GT$3fmt17he5c1d4d6639964f3E
libclamav.so.11:_ZN74_$LT$png..text_metadata..TextEncodingError$u20$as$u20$core..fmt..Debug$GT$3fmt17h95b12e4dfa5fb4b2E
libclamav.so.11:_ZN74_$LT$rayon_core..registry..Terminator$u20$as$u20$core..ops..drop..Drop$GT$4drop17h8eed6551dc2e93eeE
libclamav.so.11:_ZN74_$LT$rayon_core..scope..ScopeLatch$u20$as$u20$rayon_core..latch..Latch$GT$3set17h9c3c98dec8a04595E
libclamav.so.11:_ZN74_$LT$rayon_core..sleep..counters..Counters$u20$as$u20$core..fmt..Debug$GT$3fmt17h22b0f5c7d18c486fE
libclamav.so.11:_ZN74_$LT$rayon_core..unwind..AbortIfPanic$u20$as$u20$core..ops..drop..Drop$GT$4drop17h17ddf0148d056d34E
libclamav.so.11:_ZN74_$LT$std..fs..OpenOptions$u20$as$u20$std..os..unix..fs..OpenOptionsExt$GT$12custom_flags17hf62e997dcf9a7503E
libclamav.so.11:_ZN74_$LT$std..fs..OpenOptions$u20$as$u20$std..os..unix..fs..OpenOptionsExt$GT$4mode17hea5a1de0e703934dE
libclamav.so.11:_ZN74_$LT$std..fs..Permissions$u20$as$u20$std..os..unix..fs..PermissionsExt$GT$4mode17h3d6c59b25d37a821E
libclamav.so.11:_ZN74_$LT$std..fs..Permissions$u20$as$u20$std..os..unix..fs..PermissionsExt$GT$8set_mode17h0abd508be4718d32E
libclamav.so.11:_ZN74_$LT$std..fs..Permissions$u20$as$u20$std..os..unix..fs..PermissionsExt$GT$9from_mode17ha41aec19a16e4603E
libclamav.so.11:_ZN74_$LT$std..net..ip_addr..Ipv6MulticastScope$u20$as$u20$core..fmt..Debug$GT$3fmt17hae969a0223198bbcE
libclamav.so.11:_ZN74_$LT$std..net..socket_addr..SocketAddrV4$u20$as$u20$core..fmt..Display$GT$3fmt17hb2d0d67422a96a05E
libclamav.so.11:_ZN74_$LT$std..net..socket_addr..SocketAddrV6$u20$as$u20$core..fmt..Display$GT$3fmt17h17f92b131c2df36eE
libclamav.so.11:_ZN74_$LT$std..sync..barrier..BarrierWaitResult$u20$as$u20$core..fmt..Debug$GT$3fmt17h914ce98a0afdc2a0E
libclamav.so.11:_ZN74_$LT$std..sync..condvar..WaitTimeoutResult$u20$as$u20$core..fmt..Debug$GT$3fmt17h1fb36f3a352bd48bE
libclamav.so.11:_ZN74_$LT$std..sys..unix..fd..FileDesc$u20$as$u20$std..os..fd..raw..AsRawFd$GT$9as_raw_fd17h44af51ec1701b5f3E
libclamav.so.11:_ZN74_$LT$std..sys_common..net..LookupHost$u20$as$u20$core..ops..drop..Drop$GT$4drop17hc6c730cd86c44db4E
libclamav.so.11:_ZN74_$LT$std..sys_common..process..CommandEnvs$u20$as$u20$core..fmt..Debug$GT$3fmt17h9cf4dfdbc27ee75aE
libclamav.so.11:_ZN74_$LT$std..sys_common..wtf8..Wtf8Buf$u20$as$u20$core..ops..deref..Deref$GT$5deref17h20b362d441b6ca5aE
libclamav.so.11:_ZN74_$LT$tiff..tags..PhotometricInterpretation$u20$as$u20$core..fmt..Debug$GT$3fmt17h5b8493c6aaceeb11E
libclamav.so.11:_ZN75_$LT$$RF$std..fs..File$u20$as$u20$std..sys..unix..kernel_copy..CopyRead$GT$10properties17hedc10a6379dec4b3E
libclamav.so.11:_ZN75_$LT$alloc..ffi..c_str..FromVecWithNulError$u20$as$u20$core..fmt..Debug$GT$3fmt17h8f8a50866a3c779cE
libclamav.so.11:_ZN75_$LT$core..char..decode..DecodeUtf16Error$u20$as$u20$core..error..Error$GT$11description17hd39be0ecf6973871E
libclamav.so.11:_ZN75_$LT$core..char..decode..DecodeUtf16Error$u20$as$u20$core..fmt..Display$GT$3fmt17h6e1a4fe799bdfdf2E
libclamav.so.11:_ZN75_$LT$crossbeam_epoch..sync..list..IterError$u20$as$u20$core..fmt..Debug$GT$3fmt17hd33ab292953d9a8fE
libclamav.so.11:_ZN75_$LT$exr..block..chunk..CompressedTileBlock$u20$as$u20$core..fmt..Debug$GT$3fmt17h9ba0780d6f042132E
libclamav.so.11:_ZN75_$LT$gimli..read..abbrev..Attributes$u20$as$u20$core..ops..deref..Deref$GT$5deref17hdf53c5eaf31dea5dE
libclamav.so.11:_ZN75_$LT$gimli..read..cfi..SectionBaseAddresses$u20$as$u20$core..fmt..Debug$GT$3fmt17h36f81f1aed474681E
libclamav.so.11:_ZN75_$LT$image..codecs..pnm..header..PnmSubtype$u20$as$u20$core..fmt..Debug$GT$3fmt17he8ff046a332e1496E
libclamav.so.11:_ZN75_$LT$image..codecs..webp..vp8..DecoderError$u20$as$u20$core..fmt..Debug$GT$3fmt17h71e1570c3c38e345E
libclamav.so.11:_ZN75_$LT$libc..unix..linux_like..linux..dqblk$u20$as$u20$core..clone..Clone$GT$5clone17h7b34665c9f369b52E
libclamav.so.11:_ZN75_$LT$libc..unix..linux_like..linux..ifreq$u20$as$u20$core..clone..Clone$GT$5clone17heaab2f6a7257309bE
libclamav.so.11:_ZN75_$LT$libc..unix..linux_like..linux..ucred$u20$as$u20$core..clone..Clone$GT$5clone17h66e1beb32c180d9eE
libclamav.so.11:_ZN75_$LT$libc..unix..linux_like..sockaddr_in6$u20$as$u20$core..clone..Clone$GT$5clone17ha3a3ce2319090df4E
libclamav.so.11:_ZN75_$LT$memchr..memmem..prefilter..PrefilterFn$u20$as$u20$core..fmt..Debug$GT$3fmt17hf52712df0c11618dE
libclamav.so.11:_ZN75_$LT$memchr..memmem..twoway..SuffixOrdering$u20$as$u20$core..fmt..Debug$GT$3fmt17h4a0d8b48b7cec050E
libclamav.so.11:_ZN75_$LT$miniz_oxide..deflate..CompressionLevel$u20$as$u20$core..fmt..Debug$GT$3fmt17hae48e99c5ea07127E
libclamav.so.11:_ZN75_$LT$miniz_oxide..deflate..CompressionLevel$u20$as$u20$core..fmt..Debug$GT$3fmt17hf6ec524175635cf0E
libclamav.so.11:_ZN75_$LT$miniz_oxide..deflate..core..TDEFLFlush$u20$as$u20$core..fmt..Debug$GT$3fmt17h5a6201e8a880c6dcE
libclamav.so.11:_ZN75_$LT$miniz_oxide..deflate..core..TDEFLFlush$u20$as$u20$core..fmt..Debug$GT$3fmt17h8fc8a42232bcdfb1E
libclamav.so.11:_ZN75_$LT$object..macho..ScatteredRelocationInfo$u20$as$u20$core..fmt..Debug$GT$3fmt17hc746e5c9fd68fae6E
libclamav.so.11:_ZN75_$LT$object..pe..ImageBoundImportDescriptor$u20$as$u20$core..fmt..Debug$GT$3fmt17he1203606a5529a49E
libclamav.so.11:_ZN75_$LT$object..pe..ImageDynamicRelocation32V2$u20$as$u20$core..fmt..Debug$GT$3fmt17h7d05150428f957e1E
libclamav.so.11:_ZN75_$LT$object..pe..ImageDynamicRelocation64V2$u20$as$u20$core..fmt..Debug$GT$3fmt17h12c530a9cf78a953E
libclamav.so.11:_ZN75_$LT$object..pe..ImageLoadConfigDirectory32$u20$as$u20$core..fmt..Debug$GT$3fmt17h742371f1b46d9090E
libclamav.so.11:_ZN75_$LT$object..pe..ImageLoadConfigDirectory64$u20$as$u20$core..fmt..Debug$GT$3fmt17h48af0db4fb014d02E
libclamav.so.11:_ZN75_$LT$object..read..pe..export..ExportTarget$u20$as$u20$core..fmt..Debug$GT$3fmt17h788f52e7684893cfE
libclamav.so.11:_ZN75_$LT$object..read..pe..rich..RichHeaderInfo$u20$as$u20$core..fmt..Debug$GT$3fmt17h76d3a4cde9937a86E
libclamav.so.11:_ZN75_$LT$png..decoder..stream..ChunkState$u20$as$u20$core..default..Default$GT$7default17h909de4f96613ca50E
libclamav.so.11:_ZN75_$LT$png..decoder..stream..FormatErrorInner$u20$as$u20$core..fmt..Debug$GT$3fmt17h3fe6ec37690c056dE
libclamav.so.11:_ZN75_$LT$std..env..ArgsOs$u20$as$u20$core..iter..traits..iterator..Iterator$GT$4next17ha2a3a72fc6674357E
libclamav.so.11:_ZN75_$LT$std..env..ArgsOs$u20$as$u20$core..iter..traits..iterator..Iterator$GT$9size_hint17h7956299492574cf5E
libclamav.so.11:_ZN75_$LT$std..env..VarsOs$u20$as$u20$core..iter..traits..iterator..Iterator$GT$4next17h1ed44d1db9817c05E
libclamav.so.11:_ZN75_$LT$std..env..VarsOs$u20$as$u20$core..iter..traits..iterator..Iterator$GT$9size_hint17hf1324fff2bbfc946E
libclamav.so.11:_ZN75_$LT$std..fs..ReadDir$u20$as$u20$core..iter..traits..iterator..Iterator$GT$4next17ha552c35401aafe15E
libclamav.so.11:_ZN75_$LT$std..os..linux..process..PidFd$u20$as$u20$std..os..fd..owned..AsFd$GT$5as_fd17h93add7626b2ddee0E
libclamav.so.11:_ZN75_$LT$std..os..unix..net..listener..Incoming$u20$as$u20$core..fmt..Debug$GT$3fmt17hfec5c2de8f9f234bE
libclamav.so.11:_ZN75_$LT$std..os..unix..net..stream..UnixStream$u20$as$u20$core..fmt..Debug$GT$3fmt17h12f0d2053110416fE
libclamav.so.11:_ZN75_$LT$std..sync..mpmc..zero..ZeroToken$u20$as$u20$core..default..Default$GT$7default17h4799a21ea770dee4E
libclamav.so.11:_ZN75_$LT$std..sys..unix..net..Socket$u20$as$u20$std..os..fd..raw..FromRawFd$GT$11from_raw_fd17hc7beb1d47bf5a7d1E
libclamav.so.11:_ZN75_$LT$std..sys..unix..net..Socket$u20$as$u20$std..os..fd..raw..IntoRawFd$GT$11into_raw_fd17h5dc77655f8a5eed0E
libclamav.so.11:_ZN75_$LT$std..sys..unix..pipe..AnonPipe$u20$as$u20$std..os..fd..owned..AsFd$GT$5as_fd17h71fe08d4a0a5469eE
libclamav.so.11:_ZN75_$LT$tiff..decoder..image..StripDecodeState$u20$as$u20$core..fmt..Debug$GT$3fmt17h305b03cd090f3c46E
libclamav.so.11:_ZN75_$LT$tiff..encoder..TiffKindStandard$u20$as$u20$tiff..encoder..TiffKind$GT$13convert_slice17he8b6ed7fcaf07f06E
libclamav.so.11:_ZN75_$LT$tiff..encoder..TiffKindStandard$u20$as$u20$tiff..encoder..TiffKind$GT$14convert_offset17hc751a2b977f79635E
libclamav.so.11:_ZN76_$LT$$RF$std..fs..File$u20$as$u20$std..sys..unix..kernel_copy..CopyWrite$GT$10properties17h85d37383dd86a117E
libclamav.so.11:_ZN76_$LT$$RF$std..os..unix..net..stream..UnixStream$u20$as$u20$std..io..Read$GT$13read_vectored17hbf500adf530c60bbE
libclamav.so.11:_ZN76_$LT$$RF$std..os..unix..net..stream..UnixStream$u20$as$u20$std..io..Read$GT$4read17h96c49c2b9d30b6ddE
libclamav.so.11:_ZN76_$LT$alloc..collections..TryReserveErrorKind$u20$as$u20$core..fmt..Debug$GT$3fmt17h26732af371320a7dE
libclamav.so.11:_ZN76_$LT$core..char..convert..CharTryFromError$u20$as$u20$core..error..Error$GT$11description17hb9840271beaf483fE
libclamav.so.11:_ZN76_$LT$core..char..convert..CharTryFromError$u20$as$u20$core..fmt..Display$GT$3fmt17hef27448e426b8a57E
libclamav.so.11:_ZN76_$LT$core..ffi..c_str..FromBytesWithNulError$u20$as$u20$core..fmt..Debug$GT$3fmt17hc905828706dc3bddE
libclamav.so.11:_ZN76_$LT$core..mem..transmutability..Assume$u20$as$u20$core..ops..arith..Add$GT$3add17h47fcacfa95f75594E
libclamav.so.11:_ZN76_$LT$core..mem..transmutability..Assume$u20$as$u20$core..ops..arith..Sub$GT$3sub17h88cc3ed69de2c73cE
libclamav.so.11:_ZN76_$LT$core..num..nonzero..NonZeroI8$u20$as$u20$core..str..traits..FromStr$GT$8from_str17h61856ba4db5edb86E
libclamav.so.11:_ZN76_$LT$core..num..nonzero..NonZeroU8$u20$as$u20$core..str..traits..FromStr$GT$8from_str17h8ef757c1dc766b19E
libclamav.so.11:_ZN76_$LT$crossbeam_epoch..collector..Collector$u20$as$u20$core..clone..Clone$GT$5clone17hb4639d4ec02e859eE
libclamav.so.11:_ZN76_$LT$crossbeam_epoch..collector..LocalHandle$u20$as$u20$core..fmt..Debug$GT$3fmt17h9271d50a54b94ba8E
libclamav.so.11:_ZN76_$LT$gimli..read..rnglists..RangeListsFormat$u20$as$u20$core..fmt..Debug$GT$3fmt17h61542854548db3f8E
libclamav.so.11:_ZN76_$LT$gimli..read..util..sealed..CapacityFull$u20$as$u20$core..fmt..Debug$GT$3fmt17hd8b67e689350b8f7E
libclamav.so.11:_ZN76_$LT$image..codecs..hdr..decoder..LineType$u20$as$u20$core..fmt..Display$GT$3fmt17hdd3b1938d1f24e6dE
libclamav.so.11:_ZN76_$LT$image..codecs..hdr..decoder..Rgbe8Pixel$u20$as$u20$core..fmt..Debug$GT$3fmt17hfdd99dfc626c2399E
libclamav.so.11:_ZN76_$LT$image..dynimage..DynamicImage$u20$as$u20$image..image..GenericImage$GT$11blend_pixel17h5e477ce9129f1347E
libclamav.so.11:_ZN76_$LT$image..dynimage..DynamicImage$u20$as$u20$image..image..GenericImage$GT$13get_pixel_mut17hbb25ef004dd04982E
libclamav.so.11:_ZN76_$LT$image..dynimage..DynamicImage$u20$as$u20$image..image..GenericImage$GT$9put_pixel17h212022471e126801E
libclamav.so.11:_ZN76_$LT$jpeg_decoder..error..UnsupportedFeature$u20$as$u20$core..fmt..Debug$GT$3fmt17h028eaf3f2d0eb475E
libclamav.so.11:_ZN76_$LT$libc..unix..linux_like..linux..dirent$u20$as$u20$core..clone..Clone$GT$5clone17h5d79066a884e8ef3E
libclamav.so.11:_ZN76_$LT$libc..unix..linux_like..linux..fsid_t$u20$as$u20$core..clone..Clone$GT$5clone17h58b64b23038ac39bE
libclamav.so.11:_ZN76_$LT$libc..unix..linux_like..linux..glob_t$u20$as$u20$core..clone..Clone$GT$5clone17h2f1d1f53f6e073aeE
libclamav.so.11:_ZN76_$LT$libc..unix..linux_like..linux..mntent$u20$as$u20$core..clone..Clone$GT$5clone17hbd568a4bdaab5873E
libclamav.so.11:_ZN76_$LT$libc..unix..linux_like..linux..nlattr$u20$as$u20$core..clone..Clone$GT$5clone17hb3bdca4053929623E
libclamav.so.11:_ZN76_$LT$libc..unix..linux_like..linux..option$u20$as$u20$core..clone..Clone$GT$5clone17he25aa27226d62bf3E
libclamav.so.11:_ZN76_$LT$libc..unix..linux_like..linux..passwd$u20$as$u20$core..clone..Clone$GT$5clone17h655130757da98c6aE
libclamav.so.11:_ZN76_$LT$libc..unix..linux_like..linux..sembuf$u20$as$u20$core..clone..Clone$GT$5clone17hdc7faee28d01793cE
libclamav.so.11:_ZN76_$LT$miniz_oxide..deflate..core..TDEFLStatus$u20$as$u20$core..fmt..Debug$GT$3fmt17h2de06aab2ccac1cbE
libclamav.so.11:_ZN76_$LT$miniz_oxide..deflate..core..TDEFLStatus$u20$as$u20$core..fmt..Debug$GT$3fmt17hdf250edbddf858aaE
libclamav.so.11:_ZN76_$LT$miniz_oxide..inflate..DecompressError$u20$as$u20$core..fmt..Display$GT$3fmt17hab748f551337bb8cE
libclamav.so.11:_ZN76_$LT$object..pe..ImageDynamicRelocationTable$u20$as$u20$core..fmt..Debug$GT$3fmt17h0aa9fcb1197377bbE
libclamav.so.11:_ZN76_$LT$object..pe..ImageResourceDirectoryEntry$u20$as$u20$core..fmt..Debug$GT$3fmt17h9b27e21f8c42cfcaE
libclamav.so.11:_ZN76_$LT$object..read..pe..rich..RichHeaderEntry$u20$as$u20$core..fmt..Debug$GT$3fmt17h0d020b445fae0dd5E
libclamav.so.11:_ZN76_$LT$rayon_core..broadcast..BroadcastContext$u20$as$u20$core..fmt..Debug$GT$3fmt17h524c13e4c15b55ecE
libclamav.so.11:_ZN76_$LT$rayon_core..registry..WorkerThread$u20$as$u20$core..ops..drop..Drop$GT$4drop17hc8544d1cf24ff5b9E
libclamav.so.11:_ZN76_$LT$std..os..linux..process..PidFd$u20$as$u20$std..os..fd..raw..AsRawFd$GT$9as_raw_fd17hfdc1112cc253853eE
libclamav.so.11:_ZN76_$LT$std..process..Command$u20$as$u20$std..os..unix..process..CommandExt$GT$13process_group17haa6e895a447266e6E
libclamav.so.11:_ZN76_$LT$std..process..Command$u20$as$u20$std..os..unix..process..CommandExt$GT$3gid17h1e26f56b0e258f11E
libclamav.so.11:_ZN76_$LT$std..process..Command$u20$as$u20$std..os..unix..process..CommandExt$GT$3uid17hcdefdd22305dfc1bE
libclamav.so.11:_ZN76_$LT$std..process..Command$u20$as$u20$std..os..unix..process..CommandExt$GT$4exec17h03da7b07091f167cE
libclamav.so.11:_ZN76_$LT$std..process..Command$u20$as$u20$std..os..unix..process..CommandExt$GT$6groups17h5eda830c8f6918faE
libclamav.so.11:_ZN76_$LT$std..sys..unix..fd..FileDesc$u20$as$u20$std..os..fd..raw..FromRawFd$GT$11from_raw_fd17h2944e5db9abfff10E
libclamav.so.11:_ZN76_$LT$std..sys..unix..fd..FileDesc$u20$as$u20$std..os..fd..raw..IntoRawFd$GT$11into_raw_fd17h1747d9b3b396d3fcE
libclamav.so.11:_ZN76_$LT$std..sys..unix..pipe..AnonPipe$u20$as$u20$std..os..fd..raw..AsRawFd$GT$9as_raw_fd17h6fd7e96abced6f6eE
libclamav.so.11:_ZN77_$LT$$RF$std..os..unix..net..stream..UnixStream$u20$as$u20$std..io..Write$GT$14write_vectored17h3cef0c9547054e72E
libclamav.so.11:_ZN77_$LT$$RF$std..os..unix..net..stream..UnixStream$u20$as$u20$std..io..Write$GT$5flush17hf5c69fa5a1f87131E
libclamav.so.11:_ZN77_$LT$$RF$std..os..unix..net..stream..UnixStream$u20$as$u20$std..io..Write$GT$5write17h884e0b928f15eca1E
libclamav.so.11:_ZN77_$LT$adler..algo..U32X4$u20$as$u20$core..ops..arith..MulAssign$LT$u32$GT$$GT$10mul_assign17h8705db378db8b76bE
libclamav.so.11:_ZN77_$LT$adler..algo..U32X4$u20$as$u20$core..ops..arith..RemAssign$LT$u32$GT$$GT$10rem_assign17h004b3b4d0366ace2E
libclamav.so.11:_ZN77_$LT$alloc..borrow..Cow$LT$str$GT$$u20$as$u20$core..ops..arith..AddAssign$GT$10add_assign17ha54c9cefea2e01ebE
libclamav.so.11:_ZN77_$LT$alloc..ffi..c_str..FromVecWithNulError$u20$as$u20$core..fmt..Display$GT$3fmt17h155d374fc7f8d9a8E
libclamav.so.11:_ZN77_$LT$color_quant..NeuQuant$u20$as$u20$image..imageops..colorops..ColorMap$GT$10has_lookup17h9300f5bf10e99551E
libclamav.so.11:_ZN77_$LT$core..core_arch..x86..cpuid..CpuidResult$u20$as$u20$core..fmt..Debug$GT$3fmt17h771f0761c6f3a58fE
libclamav.so.11:_ZN77_$LT$core..ffi..c_str..FromBytesUntilNulError$u20$as$u20$core..fmt..Debug$GT$3fmt17h60a4e0b55763d4f4E
libclamav.so.11:_ZN77_$LT$core..num..flt2dec..decoder..FullDecoded$u20$as$u20$core..fmt..Debug$GT$3fmt17h74025c3af7fe98cdE
libclamav.so.11:_ZN77_$LT$core..num..nonzero..NonZeroI16$u20$as$u20$core..str..traits..FromStr$GT$8from_str17hebe6becbe3acc615E
libclamav.so.11:_ZN77_$LT$core..num..nonzero..NonZeroI32$u20$as$u20$core..str..traits..FromStr$GT$8from_str17h98bca0e666ff0989E
libclamav.so.11:_ZN77_$LT$core..num..nonzero..NonZeroI64$u20$as$u20$core..str..traits..FromStr$GT$8from_str17h2d54b1f287c3850fE
libclamav.so.11:_ZN77_$LT$core..num..nonzero..NonZeroU16$u20$as$u20$core..str..traits..FromStr$GT$8from_str17h28fa53b986ec47bfE
libclamav.so.11:_ZN77_$LT$core..num..nonzero..NonZeroU32$u20$as$u20$core..str..traits..FromStr$GT$8from_str17h5be7265e1d79b909E
libclamav.so.11:_ZN77_$LT$core..num..nonzero..NonZeroU64$u20$as$u20$core..str..traits..FromStr$GT$8from_str17h5c481474ac6c9178E
libclamav.so.11:_ZN77_$LT$crossbeam_epoch..sync..list..Entry$u20$as$u20$core..default..Default$GT$7default17h3953e9ff2b2ebfa5E
libclamav.so.11:_ZN77_$LT$exr..meta..attribute..ChannelDescription$u20$as$u20$core..fmt..Debug$GT$3fmt17hbb09b8efefda2178E
libclamav.so.11:_ZN77_$LT$exr..meta..header..LayerAttributes$u20$as$u20$core..default..Default$GT$7default17h9299f7d96f7359a6E
libclamav.so.11:_ZN77_$LT$half..binary16..f16$u20$as$u20$exr..block..samples..FromNativeSample$GT$8from_f1617h487a4248507ce8e6E
libclamav.so.11:_ZN77_$LT$half..binary16..f16$u20$as$u20$exr..block..samples..FromNativeSample$GT$8from_f3217h802205e827cfc0d3E
libclamav.so.11:_ZN77_$LT$half..binary16..f16$u20$as$u20$exr..block..samples..FromNativeSample$GT$8from_u3217hfbc26f4233abedb6E
libclamav.so.11:_ZN77_$LT$half..binary16..f16$u20$as$u20$exr..block..samples..IntoNativeSample$GT$6to_f1617h737a8241fb5c9e6dE
libclamav.so.11:_ZN77_$LT$half..binary16..f16$u20$as$u20$exr..block..samples..IntoNativeSample$GT$6to_f3217hf1e2d7ee25bbf55bE
libclamav.so.11:_ZN77_$LT$half..binary16..f16$u20$as$u20$exr..block..samples..IntoNativeSample$GT$6to_u3217hd5fc6e8c9de4d469E
libclamav.so.11:_ZN77_$LT$image..codecs..hdr..decoder..HdrMetadata$u20$as$u20$core..fmt..Debug$GT$3fmt17h7de29cc9fc761cb9E
libclamav.so.11:_ZN77_$LT$image..codecs..png..BadPngRepresentation$u20$as$u20$core..fmt..Debug$GT$3fmt17h712013cb8a1894f7E
libclamav.so.11:_ZN77_$LT$image..codecs..pnm..header..BitmapHeader$u20$as$u20$core..fmt..Debug$GT$3fmt17h78bae65f85556860E
libclamav.so.11:_ZN77_$LT$image..codecs..pnm..header..PixmapHeader$u20$as$u20$core..fmt..Debug$GT$3fmt17hff46cce66d218166E
libclamav.so.11:_ZN77_$LT$image..codecs..webp..lossless..BitReader$u20$as$u20$core..fmt..Debug$GT$3fmt17hf76db08dc383283dE
libclamav.so.11:_ZN77_$LT$image..codecs..webp..vp8..DecoderError$u20$as$u20$core..fmt..Display$GT$3fmt17h849981778b1dd733E
libclamav.so.11:_ZN77_$LT$image..codecs..webp..vp8..LumaMode$u20$as$u20$core..default..Default$GT$7default17hbb98c5f7ce213fb7E
libclamav.so.11:_ZN77_$LT$jpeg_decoder..huffman..HuffmanTableClass$u20$as$u20$core..fmt..Debug$GT$3fmt17h7272d299e1408ad5E
libclamav.so.11:_ZN77_$LT$libc..unix..linux_like..ip_mreq_source$u20$as$u20$core..clone..Clone$GT$5clone17hcec4f8363cd6ee94E
libclamav.so.11:_ZN77_$LT$libc..unix..linux_like..linux..mq_attr$u20$as$u20$core..clone..Clone$GT$5clone17h75a170caf37de71fE
libclamav.so.11:_ZN77_$LT$libc..unix..linux_like..linux..msginfo$u20$as$u20$core..clone..Clone$GT$5clone17h60c5a57785ab5382E
libclamav.so.11:_ZN77_$LT$memchr..memmem..x86..avx..nostd..Forward$u20$as$u20$core..fmt..Debug$GT$3fmt17ha13651364360621dE
libclamav.so.11:_ZN77_$LT$object..pe..ImageArmRuntimeFunctionEntry$u20$as$u20$core..fmt..Debug$GT$3fmt17hf3313936067a241dE
libclamav.so.11:_ZN77_$LT$object..pe..ImageLoadConfigCodeIntegrity$u20$as$u20$core..fmt..Debug$GT$3fmt17haf3dcda402330842E
libclamav.so.11:_ZN77_$LT$object..pe..ImageResourceDirectoryString$u20$as$u20$core..fmt..Debug$GT$3fmt17h1d3484f2c8101df0E
libclamav.so.11:_ZN77_$LT$object..read..elf..version..VersionIndex$u20$as$u20$core..fmt..Debug$GT$3fmt17ha7458777ed271d61E
libclamav.so.11:_ZN77_$LT$object..read..pe..relocation..Relocation$u20$as$u20$core..fmt..Debug$GT$3fmt17h49ac58fb6b068a3dE
libclamav.so.11:_ZN77_$LT$object..read..pe..resource..ResourceName$u20$as$u20$core..fmt..Debug$GT$3fmt17hdb918df4fba65926E
libclamav.so.11:_ZN77_$LT$rayon_core..thread_pool..ThreadPool$u20$as$u20$core..ops..drop..Drop$GT$4drop17h065bb144041a7c11E
libclamav.so.11:_ZN77_$LT$std..backtrace_rs..symbolize..SymbolName$u20$as$u20$core..fmt..Debug$GT$3fmt17h83e40d5aa810c06fE
libclamav.so.11:_ZN77_$LT$std..collections..hash..map..RandomState$u20$as$u20$core..fmt..Debug$GT$3fmt17h4492038dea746e1eE
libclamav.so.11:_ZN77_$LT$std..net..socket_addr..SocketAddrV4$u20$as$u20$core..cmp..PartialOrd$GT$11partial_cmp17h4189cd466a8a54deE
libclamav.so.11:_ZN77_$LT$std..net..socket_addr..SocketAddrV6$u20$as$u20$core..cmp..PartialOrd$GT$11partial_cmp17h93b0620eba68c44dE
libclamav.so.11:_ZN77_$LT$std..process..Command$u20$as$u20$std..os..linux..process..CommandExt$GT$12create_pidfd17hb5c92c36045be8d2E
libclamav.so.11:_ZN77_$LT$std..sys_common..wtf8..Wtf8Buf$u20$as$u20$core..ops..deref..DerefMut$GT$9deref_mut17hc80246276d2ba15dE
libclamav.so.11:_ZN78_$LT$$LP$$RF$str$C$u16$RP$$u20$as$u20$std..net..socket_addr..ToSocketAddrs$GT$15to_socket_addrs17h14c825813f01399cE
libclamav.so.11:_ZN78_$LT$alloc..string..String$u20$as$u20$std..net..socket_addr..ToSocketAddrs$GT$15to_socket_addrs17hbebcd65a90de4f16E
libclamav.so.11:_ZN78_$LT$core..convert..Infallible$u20$as$u20$core..convert..From$LT$$u21$$GT$$GT$4from17hb32b0954636070e0E
libclamav.so.11:_ZN78_$LT$core..error..Source$u20$as$u20$core..iter..traits..iterator..Iterator$GT$4next17hb4c9c88204ddb4c6E
libclamav.so.11:_ZN78_$LT$core..ffi..c_str..FromBytesWithNulError$u20$as$u20$core..error..Error$GT$11description17hbd2a13768834949fE
libclamav.so.11:_ZN78_$LT$core..ffi..c_str..FromBytesWithNulError$u20$as$u20$core..fmt..Display$GT$3fmt17hd27c220c57c716bcE
libclamav.so.11:_ZN78_$LT$core..num..nonzero..NonZeroI128$u20$as$u20$core..str..traits..FromStr$GT$8from_str17h11cbb376973a8026E
libclamav.so.11:_ZN78_$LT$core..num..nonzero..NonZeroU128$u20$as$u20$core..str..traits..FromStr$GT$8from_str17h98517ce4d56146e8E
libclamav.so.11:_ZN78_$LT$crossbeam_epoch..collector..Collector$u20$as$u20$core..cmp..PartialEq$GT$2eq17h67ebcba83363ce5cE
libclamav.so.11:_ZN78_$LT$exr..compression..piz..huffman..ShortCode$u20$as$u20$core..fmt..Debug$GT$3fmt17hdef80ad9a215963bE
libclamav.so.11:_ZN78_$LT$exr..meta..attribute..Text$u20$as$u20$core..cmp..PartialEq$LT$str$GT$$GT$2eq17h2f530eeeeb469f3bE
libclamav.so.11:_ZN78_$LT$flate2..gz..bufread..GzHeaderParsingState$u20$as$u20$core..fmt..Debug$GT$3fmt17h9a9eef68fd44b43aE
libclamav.so.11:_ZN78_$LT$gif..reader..decoder..DecodingFormatError$u20$as$u20$core..fmt..Debug$GT$3fmt17he7d513d378b065fcE
libclamav.so.11:_ZN78_$LT$image..codecs..bmp..decoder..DecoderError$u20$as$u20$core..fmt..Debug$GT$3fmt17h9fab6f8a8f46b61eE
libclamav.so.11:_ZN78_$LT$image..codecs..hdr..decoder..DecoderError$u20$as$u20$core..fmt..Debug$GT$3fmt17h643aa64c7c9893c9E
libclamav.so.11:_ZN78_$LT$image..codecs..ico..decoder..DecoderError$u20$as$u20$core..fmt..Debug$GT$3fmt17h15fb4cab1368319cE
libclamav.so.11:_ZN78_$LT$image..codecs..png..CompressionType$u20$as$u20$core..default..Default$GT$7default17hb3598d979c98d29bE
libclamav.so.11:_ZN78_$LT$image..codecs..pnm..decoder..DecoderError$u20$as$u20$core..fmt..Debug$GT$3fmt17hf830dfe4bdd80d96E
libclamav.so.11:_ZN78_$LT$image..codecs..pnm..header..GraymapHeader$u20$as$u20$core..fmt..Debug$GT$3fmt17ha5cf1629d90670f4E
libclamav.so.11:_ZN78_$LT$image..codecs..tga..encoder..EncoderError$u20$as$u20$core..fmt..Debug$GT$3fmt17h1e66fb42373f9d94E
libclamav.so.11:_ZN78_$LT$image..codecs..webp..extended..AlphaChunk$u20$as$u20$core..fmt..Debug$GT$3fmt17h7cadea9e608e2272E
libclamav.so.11:_ZN78_$LT$image..codecs..webp..extended..WebPStatic$u20$as$u20$core..fmt..Debug$GT$3fmt17hed942114edd6e054E
libclamav.so.11:_ZN78_$LT$image..codecs..webp..huffman..HuffmanTree$u20$as$u20$core..fmt..Debug$GT$3fmt17h78c5f5d5bec1fd29E
libclamav.so.11:_ZN78_$LT$image..codecs..webp..lossless..ColorCache$u20$as$u20$core..fmt..Debug$GT$3fmt17hadceb760a0bbf41cE
libclamav.so.11:_ZN78_$LT$image..codecs..webp..vp8..IntraMode$u20$as$u20$core..default..Default$GT$7default17hc5e75cb68343264aE
libclamav.so.11:_ZN78_$LT$jpeg_decoder..parser..AdobeColorTransform$u20$as$u20$core..fmt..Debug$GT$3fmt17h3f42549ef98b095bE
libclamav.so.11:_ZN78_$LT$libc..unix..linux_like..linux..dirent64$u20$as$u20$core..clone..Clone$GT$5clone17h3aa960eae539e86cE
libclamav.so.11:_ZN78_$LT$libc..unix..linux_like..linux..fpos64_t$u20$as$u20$core..clone..Clone$GT$5clone17hbef15c22820c0e33E
libclamav.so.11:_ZN78_$LT$libc..unix..linux_like..linux..input_id$u20$as$u20$core..clone..Clone$GT$5clone17h258f9a4ba0b49c60E
libclamav.so.11:_ZN78_$LT$libc..unix..linux_like..linux..nlmsgerr$u20$as$u20$core..clone..Clone$GT$5clone17hbf07b3760780adb3E
libclamav.so.11:_ZN78_$LT$libc..unix..linux_like..linux..nlmsghdr$u20$as$u20$core..clone..Clone$GT$5clone17hc165cf247b417fbeE
libclamav.so.11:_ZN78_$LT$libc..unix..linux_like..linux..rlimit64$u20$as$u20$core..clone..Clone$GT$5clone17h0b04bb687e443abaE
libclamav.so.11:_ZN78_$LT$memchr..memmem..prefilter..PrefilterState$u20$as$u20$core..fmt..Debug$GT$3fmt17h782108a64f1aa16aE
libclamav.so.11:_ZN78_$LT$object..macho..FatArch32$u20$as$u20$object..read..macho..fat..FatArch$GT$10cpusubtype17ha8ca1eb4dd6666b3E
libclamav.so.11:_ZN78_$LT$object..macho..FatArch32$u20$as$u20$object..read..macho..fat..FatArch$GT$4size17h375e2158c4f5608bE
libclamav.so.11:_ZN78_$LT$object..macho..FatArch32$u20$as$u20$object..read..macho..fat..FatArch$GT$5align17h761a154d82b22fa7E
libclamav.so.11:_ZN78_$LT$object..macho..FatArch32$u20$as$u20$object..read..macho..fat..FatArch$GT$6offset17he1f0c74b924b9a3bE
libclamav.so.11:_ZN78_$LT$object..macho..FatArch32$u20$as$u20$object..read..macho..fat..FatArch$GT$7cputype17h5d6c8a9a3f8ea0f4E
libclamav.so.11:_ZN78_$LT$object..macho..FatArch64$u20$as$u20$object..read..macho..fat..FatArch$GT$10cpusubtype17h481521e3ba20200bE
libclamav.so.11:_ZN78_$LT$object..macho..FatArch64$u20$as$u20$object..read..macho..fat..FatArch$GT$4size17ha988ce1d18ff3500E
libclamav.so.11:_ZN78_$LT$object..macho..FatArch64$u20$as$u20$object..read..macho..fat..FatArch$GT$5align17h8bff11cd104c38caE
libclamav.so.11:_ZN78_$LT$object..macho..FatArch64$u20$as$u20$object..read..macho..fat..FatArch$GT$6offset17h52c91752d604c34aE
libclamav.so.11:_ZN78_$LT$object..macho..FatArch64$u20$as$u20$object..read..macho..fat..FatArch$GT$7cputype17hed90301b4060a0bcE
libclamav.so.11:_ZN78_$LT$object..read..coff..section..SectionTable$u20$as$u20$core..fmt..Debug$GT$3fmt17h543016268b221278E
libclamav.so.11:_ZN78_$LT$object..read..pe..import..ImportThunkList$u20$as$u20$core..fmt..Debug$GT$3fmt17h7bbfbcb522d4257fE
libclamav.so.11:_ZN78_$LT$rustfft..avx..avx_planner..MixedRadixBase$u20$as$u20$core..fmt..Debug$GT$3fmt17h76eb4ff64f4f0fe7E
libclamav.so.11:_ZN78_$LT$rustfft..avx..avx_planner..MixedRadixPlan$u20$as$u20$core..fmt..Debug$GT$3fmt17hf4a0710b2142e532E
libclamav.so.11:_ZN78_$LT$std..os..linux..process..PidFd$u20$as$u20$std..os..fd..raw..FromRawFd$GT$11from_raw_fd17ha22c012865c6feb4E
libclamav.so.11:_ZN78_$LT$std..os..linux..process..PidFd$u20$as$u20$std..os..fd..raw..IntoRawFd$GT$11into_raw_fd17heeb2eea62baa85baE
libclamav.so.11:_ZN78_$LT$std..sys..unix..pipe..AnonPipe$u20$as$u20$std..os..fd..raw..FromRawFd$GT$11from_raw_fd17h948fb4d849438522E
libclamav.so.11:_ZN78_$LT$std..sys..unix..pipe..AnonPipe$u20$as$u20$std..os..fd..raw..IntoRawFd$GT$11into_raw_fd17hd5938be7a071440aE
libclamav.so.11:_ZN79_$LT$alloc..string..Drain$u20$as$u20$core..iter..traits..iterator..Iterator$GT$9size_hint17h7e604c6918816d82E
libclamav.so.11:_ZN79_$LT$core..ffi..c_str..FromBytesUntilNulError$u20$as$u20$core..fmt..Display$GT$3fmt17habb87eb0cd7d77e3E
libclamav.so.11:_ZN79_$LT$core..fmt..builders..PadAdapterState$u20$as$u20$core..default..Default$GT$7default17h30621e7602eef75fE
libclamav.so.11:_ZN79_$LT$core..num..dec2flt..decimal..Decimal$u20$as$u20$core..default..Default$GT$7default17hbd28f823c2754d4aE
libclamav.so.11:_ZN79_$LT$core..num..nonzero..NonZeroIsize$u20$as$u20$core..str..traits..FromStr$GT$8from_str17h4d1040418f8a24c7E
libclamav.so.11:_ZN79_$LT$core..num..nonzero..NonZeroUsize$u20$as$u20$core..str..traits..FromStr$GT$8from_str17h34364d88f6e11efeE
libclamav.so.11:_ZN79_$LT$core..time..Duration$u20$as$u20$core..ops..arith..DivAssign$LT$u32$GT$$GT$10div_assign17hc0954b34878b2a3bE
libclamav.so.11:_ZN79_$LT$core..time..Duration$u20$as$u20$core..ops..arith..MulAssign$LT$u32$GT$$GT$10mul_assign17hb1c848ec823759f9E
libclamav.so.11:_ZN79_$LT$exr..block..chunk..CompressedDeepTileBlock$u20$as$u20$core..fmt..Debug$GT$3fmt17h834c8a96fad43dc4E
libclamav.so.11:_ZN79_$LT$exr..block..chunk..CompressedScanLineBlock$u20$as$u20$core..fmt..Debug$GT$3fmt17hdaf980a9641e36f3E
libclamav.so.11:_ZN79_$LT$exr..image..read..samples..ReadFlatSamples$u20$as$u20$core..fmt..Debug$GT$3fmt17h32b6e0271201a180E
libclamav.so.11:_ZN79_$LT$exr..image..recursive..NoneMore$u20$as$u20$exr..image..CheckDuplicates$GT$16already_contains17hbc381c7c08134af0E
libclamav.so.11:_ZN79_$LT$hex..BytesToHexChars$u20$as$u20$core..iter..traits..iterator..Iterator$GT$4next17h17eadda839db53a9E
libclamav.so.11:_ZN79_$LT$hex..BytesToHexChars$u20$as$u20$core..iter..traits..iterator..Iterator$GT$9size_hint17h9073e3e6fc93b7e5E
libclamav.so.11:_ZN79_$LT$image..codecs..jpeg..encoder..PixelDensity$u20$as$u20$core..fmt..Debug$GT$3fmt17hd4c4df8bdaa81105E
libclamav.so.11:_ZN79_$LT$image..codecs..png..BadPngRepresentation$u20$as$u20$core..fmt..Display$GT$3fmt17h4aa3a07e99a05bc3E
libclamav.so.11:_ZN79_$LT$image..codecs..pnm..decoder..PnmHeaderLine$u20$as$u20$core..fmt..Debug$GT$3fmt17h1f3fe614eff46ee8E
libclamav.so.11:_ZN79_$LT$image..codecs..pnm..header..SampleEncoding$u20$as$u20$core..fmt..Debug$GT$3fmt17h688171a655909d27E
libclamav.so.11:_ZN79_$LT$image..codecs..webp..decoder..DecoderError$u20$as$u20$core..fmt..Debug$GT$3fmt17h4ae6f3b1a381988dE
libclamav.so.11:_ZN79_$LT$image..codecs..webp..lossless..HuffmanInfo$u20$as$u20$core..fmt..Debug$GT$3fmt17ha093db2844c3fb64E
libclamav.so.11:_ZN79_$LT$image..codecs..webp..vp8..ChromaMode$u20$as$u20$core..default..Default$GT$7default17h9f37878780eb5cb3E
libclamav.so.11:_ZN79_$LT$libc..unix..linux_like..linux..Elf32_Sym$u20$as$u20$core..clone..Clone$GT$5clone17h64018799d9fa984cE
libclamav.so.11:_ZN79_$LT$libc..unix..linux_like..linux..Elf64_Sym$u20$as$u20$core..clone..Clone$GT$5clone17ha4b81d5283d332b3E
libclamav.so.11:_ZN79_$LT$libc..unix..linux_like..linux..af_alg_iv$u20$as$u20$core..clone..Clone$GT$5clone17h1cf9b0ac540cb4adE
libclamav.so.11:_ZN79_$LT$libc..unix..linux_like..linux..can_frame$u20$as$u20$core..clone..Clone$GT$5clone17h55ead8017cf35a27E
libclamav.so.11:_ZN79_$LT$libc..unix..linux_like..linux..cpu_set_t$u20$as$u20$core..clone..Clone$GT$5clone17hb0e81473517e9830E
libclamav.so.11:_ZN79_$LT$libc..unix..linux_like..linux..ff_effect$u20$as$u20$core..clone..Clone$GT$5clone17h64bc47b00383a774E
libclamav.so.11:_ZN79_$LT$libc..unix..linux_like..linux..ff_replay$u20$as$u20$core..clone..Clone$GT$5clone17hd69522bf6476c591E
libclamav.so.11:_ZN79_$LT$libc..unix..linux_like..linux..in6_ifreq$u20$as$u20$core..clone..Clone$GT$5clone17h0021ad15fedf9ffdE
libclamav.so.11:_ZN79_$LT$libc..unix..linux_like..sockaddr_storage$u20$as$u20$core..clone..Clone$GT$5clone17h0e953b2a49d703b0E
libclamav.so.11:_ZN79_$LT$memchr..memmem..prefilter..Prefilter$u20$as$u20$core..default..Default$GT$7default17h869fbfc6596624c4E
libclamav.so.11:_ZN79_$LT$memchr..memmem..rarebytes..RareNeedleBytes$u20$as$u20$core..fmt..Debug$GT$3fmt17h4065113456dcd3dbE
libclamav.so.11:_ZN79_$LT$memchr..memmem..twoway..ApproximateByteSet$u20$as$u20$core..fmt..Debug$GT$3fmt17h9f82fe1ad309faf6E
libclamav.so.11:_ZN79_$LT$object..pe..ImageAlphaRuntimeFunctionEntry$u20$as$u20$core..fmt..Debug$GT$3fmt17h335f458d58021656E
libclamav.so.11:_ZN79_$LT$object..pe..ImageArm64RuntimeFunctionEntry$u20$as$u20$core..fmt..Debug$GT$3fmt17hed558ad85576c4caE
libclamav.so.11:_ZN79_$LT$object..pe..ImageAuxSymbolFunctionBeginEnd$u20$as$u20$core..fmt..Debug$GT$3fmt17h8c6491c4caa45ff7E
libclamav.so.11:_ZN79_$LT$std..backtrace_rs..symbolize..SymbolName$u20$as$u20$core..fmt..Display$GT$3fmt17he15268fdc11cee0fE
libclamav.so.11:_ZN79_$LT$std..collections..hash..map..DefaultHasher$u20$as$u20$core..fmt..Debug$GT$3fmt17hba45b0734269f156E
libclamav.so.11:_ZN79_$LT$std..env..SplitPaths$u20$as$u20$core..iter..traits..iterator..Iterator$GT$4next17h593acabe87e7a9a8E
libclamav.so.11:_ZN79_$LT$std..env..SplitPaths$u20$as$u20$core..iter..traits..iterator..Iterator$GT$9size_hint17hf36784456f983308E
libclamav.so.11:_ZN79_$LT$std..os..unix..net..datagram..UnixDatagram$u20$as$u20$core..fmt..Debug$GT$3fmt17h0accc6e4da93b444E
libclamav.so.11:_ZN79_$LT$std..os..unix..net..listener..UnixListener$u20$as$u20$core..fmt..Debug$GT$3fmt17hfd168ccddae8f9b5E
libclamav.so.11:_ZN79_$LT$std..sys_common..process..CommandEnv$u20$as$u20$core..default..Default$GT$7default17hafc0d451d72d491dE
libclamav.so.11:_ZN7rustdct6common17dct_error_inplace17h76265142b4862d7cE
libclamav.so.11:_ZN7rustdct6common18mdct_error_inplace17h6f5b521d3fb3c982E
libclamav.so.11:_ZN7rustfft10math_utils12PrimeFactors11get_product17h02b7f1e1e397fb57E
libclamav.so.11:_ZN7rustfft10math_utils12PrimeFactors14remove_factors17h0b4cf9e7128edfe6E
libclamav.so.11:_ZN7rustfft10math_utils12PrimeFactors17get_other_factors17hef82efc810849b4eE
libclamav.so.11:_ZN7rustfft10math_utils12PrimeFactors17is_power_of_three17h1c305edff4417cadE
libclamav.so.11:_ZN7rustfft10math_utils12PrimeFactors17partition_factors17h6f87f6532af482a2E
libclamav.so.11:_ZN7rustfft10math_utils12PrimeFactors18get_power_of_three17hd22b0e46ca6ee757E
libclamav.so.11:_ZN7rustfft10math_utils12PrimeFactors7compute17h5cd644b5aef7cd4bE
libclamav.so.11:_ZN7rustfft10math_utils12PrimeFactors8is_prime17h568f328a84148a9cE
libclamav.so.11:_ZN7rustfft10math_utils14PartialFactors10get_power217h156ee9bc7b802af0E
libclamav.so.11:_ZN7rustfft10math_utils14PartialFactors10get_power317h45b3db960f8bf824E
libclamav.so.11:_ZN7rustfft10math_utils14PartialFactors10get_power517hdd795e9280c0e855E
libclamav.so.11:_ZN7rustfft10math_utils14PartialFactors10get_power717hf3494a59efac2e96E
libclamav.so.11:_ZN7rustfft10math_utils14PartialFactors11get_power1117h948b3087f5efee0dE
libclamav.so.11:_ZN7rustfft10math_utils14PartialFactors17get_other_factors17hb37f9a4214e5e8a6E
libclamav.so.11:_ZN7rustfft10math_utils14PartialFactors20product_power2power317h8a928352bfa04b6bE
libclamav.so.11:_ZN7rustfft10math_utils14PartialFactors7compute17hba37d6d912089ad6E
libclamav.so.11:_ZN7rustfft10math_utils14PartialFactors7product17h7a4d74636d2c80e4E
libclamav.so.11:_ZN7rustfft10math_utils14PartialFactors9divide_by17h977391a3fb5235b4E
libclamav.so.11:_ZN7rustfft10math_utils14primitive_root17h78c858ea6eba0fbcE
libclamav.so.11:_ZN7rustfft3avx10avx_raders21VectorizedMultiplyMod3new17ha38aa2390366fedfE
libclamav.so.11:_ZN7rustfft3avx11avx_planner14MixedRadixBase8base_len17h3f95a2e6a84e0a9dE
libclamav.so.11:_ZN7rustfft3avx11avx_planner14MixedRadixPlan10push_radix17h821c5c85fd57bee6E
libclamav.so.11:_ZN7rustfft3avx11avx_planner14MixedRadixPlan16push_radix_power17hbb28f8b12d908c09E
libclamav.so.11:_ZN7rustfft3avx11avx_planner14MixedRadixPlan3new17heb970c864ce3a3c1E
libclamav.so.11:_ZN7rustfft3avx11avx_planner14MixedRadixPlan6cached17hbeeb441bf5113cf7E
libclamav.so.11:_ZN7rustfft3avx11avx_planner14MixedRadixPlan9butterfly17h9be161ecee326902E
libclamav.so.11:_ZN7rustfft3avx17avx32_butterflies24Butterfly5Avx$LT$f32$GT$12new_with_avx17hb5108ca5e68c1faeE
libclamav.so.11:_ZN7rustfft3avx17avx32_butterflies24Butterfly7Avx$LT$f32$GT$12new_with_avx17he24527dcc123e742E
libclamav.so.11:_ZN7rustfft3avx17avx32_butterflies24Butterfly8Avx$LT$f32$GT$12new_with_avx17h68ab250b154adae5E
libclamav.so.11:_ZN7rustfft3avx17avx32_butterflies24Butterfly9Avx$LT$f32$GT$12new_with_avx17hcd270188bf28e87fE
libclamav.so.11:_ZN7rustfft3avx17avx32_butterflies25Butterfly11Avx$LT$f32$GT$12new_with_avx17h255cfcb0f503781cE
libclamav.so.11:_ZN7rustfft3avx17avx32_butterflies25Butterfly12Avx$LT$f32$GT$12new_with_avx17h19ca7c5c6630e607E
libclamav.so.11:_ZN7rustfft3avx17avx32_butterflies25Butterfly16Avx$LT$f32$GT$12new_with_avx17h0570942bdca74877E
libclamav.so.11:_ZN7rustfft3avx17avx32_butterflies25Butterfly24Avx$LT$f32$GT$12new_with_avx17h20d787072a701512E
libclamav.so.11:_ZN7rustfft3avx17avx32_butterflies25Butterfly27Avx$LT$f32$GT$12new_with_avx17hb0b5be5bdb902b5dE
libclamav.so.11:_ZN7rustfft3avx17avx32_butterflies25Butterfly32Avx$LT$f32$GT$12new_with_avx17hd164a34afecf3771E
libclamav.so.11:_ZN7rustfft3avx17avx32_butterflies25Butterfly36Avx$LT$f32$GT$12new_with_avx17h9a31f64b9a95155dE
libclamav.so.11:_ZN7rustfft3avx17avx32_butterflies25Butterfly48Avx$LT$f32$GT$12new_with_avx17h19d0335a97cf95c2E
libclamav.so.11:_ZN7rustfft3avx17avx32_butterflies25Butterfly54Avx$LT$f32$GT$12new_with_avx17h92250d519ef05096E
libclamav.so.11:_ZN7rustfft3avx17avx32_butterflies25Butterfly64Avx$LT$f32$GT$12new_with_avx17h8c9bf71888ea22dbE
libclamav.so.11:_ZN7rustfft3avx17avx32_butterflies25Butterfly72Avx$LT$f32$GT$12new_with_avx17hfa16aec5e9cc8dbfE
libclamav.so.11:_ZN7rustfft3avx17avx32_butterflies26Butterfly128Avx$LT$f32$GT$12new_with_avx17hafe5417fcab36632E
libclamav.so.11:_ZN7rustfft3avx17avx32_butterflies26Butterfly256Avx$LT$f32$GT$12new_with_avx17h7e1bd641e130828aE
libclamav.so.11:_ZN7rustfft3avx17avx32_butterflies26Butterfly512Avx$LT$f32$GT$12new_with_avx17h4004ded6e52563bdE
libclamav.so.11:_ZN7rustfft3sse11sse_planner6Recipe3len17h7510c9b76b40a729E
libclamav.so.11:_ZN7rustfft3sse9sse_utils11Rotate90F323new17hdd814721a1d3df1aE
libclamav.so.11:_ZN7rustfft3sse9sse_utils11Rotate90F643new17h9f33b95c1244053dE
libclamav.so.11:_ZN7rustfft4plan6Recipe3len17h57c74f8b753b02fdE
libclamav.so.11:_ZN7rustfft6common17fft_error_inplace17h9b57d254bf2a2922E
libclamav.so.11:_ZN7rustfft6common20fft_error_outofplace17heed6e886f63963daE
libclamav.so.11:_ZN7rustfft9algorithm6radix312reverse_bits17hf118f39a8b96d75aE
libclamav.so.11:_ZN7rustfft9algorithm6radix317compute_logarithm17h5874600d446ca052E
libclamav.so.11:_ZN7rustfft9algorithm6radix412reverse_bits17h25e165e205ad63feE
libclamav.so.11:_ZN80_$LT$$LP$$RP$$u20$as$u20$core..iter..traits..collect..Extend$LT$$LP$$RP$$GT$$GT$10extend_one17h809a2052e05e8907E
libclamav.so.11:_ZN80_$LT$$u5b$half..binary16..f16$u5d$$u20$as$u20$half..slice..HalfFloatSliceExt$GT$20convert_to_f32_slice17h7696468579784836E
libclamav.so.11:_ZN80_$LT$$u5b$half..binary16..f16$u5d$$u20$as$u20$half..slice..HalfFloatSliceExt$GT$20convert_to_f64_slice17h318a8edfdff8d7afE
libclamav.so.11:_ZN80_$LT$$u5b$half..binary16..f16$u5d$$u20$as$u20$half..slice..HalfFloatSliceExt$GT$22convert_from_f32_slice17h56080387410ed0ceE
libclamav.so.11:_ZN80_$LT$$u5b$half..binary16..f16$u5d$$u20$as$u20$half..slice..HalfFloatSliceExt$GT$22convert_from_f64_slice17h59beafe74cd064b5E
libclamav.so.11:_ZN80_$LT$alloc..vec..Vec$LT$u8$GT$$u20$as$u20$core..convert..From$LT$$RF$str$GT$$GT$4from17ha0d610f8a8771f7eE
libclamav.so.11:_ZN80_$LT$core..ffi..c_str..FromBytesWithNulErrorKind$u20$as$u20$core..fmt..Debug$GT$3fmt17hbff1760b4a2b7ea1E
libclamav.so.11:_ZN80_$LT$crossbeam_epoch..collector..Collector$u20$as$u20$core..default..Default$GT$7default17hf7990ae630aa560cE
libclamav.so.11:_ZN80_$LT$gif..reader..decoder..DecodingFormatError$u20$as$u20$core..error..Error$GT$6source17h084de333b25fec30E
libclamav.so.11:_ZN80_$LT$gif..reader..decoder..DecodingFormatError$u20$as$u20$core..fmt..Display$GT$3fmt17hb0b1eae201760c72E
libclamav.so.11:_ZN80_$LT$gimli..read..abbrev..AttributeSpecification$u20$as$u20$core..fmt..Debug$GT$3fmt17hf422c56995fa934dE
libclamav.so.11:_ZN80_$LT$image..codecs..bmp..decoder..DecoderError$u20$as$u20$core..fmt..Display$GT$3fmt17hcbb468af9a991146E
libclamav.so.11:_ZN80_$LT$image..codecs..hdr..decoder..DecoderError$u20$as$u20$core..error..Error$GT$6source17hcbf54106d1bcf72cE
libclamav.so.11:_ZN80_$LT$image..codecs..hdr..decoder..DecoderError$u20$as$u20$core..fmt..Display$GT$3fmt17h09c29372ce87971dE
libclamav.so.11:_ZN80_$LT$image..codecs..ico..decoder..DecoderError$u20$as$u20$core..fmt..Display$GT$3fmt17hf72b13091cb88777E
libclamav.so.11:_ZN80_$LT$image..codecs..pnm..decoder..DecoderError$u20$as$u20$core..error..Error$GT$6source17h01dd8fbc14291a42E
libclamav.so.11:_ZN80_$LT$image..codecs..pnm..decoder..DecoderError$u20$as$u20$core..fmt..Display$GT$3fmt17h63385d6e07dc25a6E
libclamav.so.11:_ZN80_$LT$image..codecs..pnm..header..ArbitraryHeader$u20$as$u20$core..fmt..Debug$GT$3fmt17h92afcf7b6b9b7c90E
libclamav.so.11:_ZN80_$LT$image..codecs..tga..encoder..EncoderError$u20$as$u20$core..fmt..Display$GT$3fmt17hbc428d272af25bb9E
libclamav.so.11:_ZN80_$LT$image..codecs..webp..decoder..WebPRiffChunk$u20$as$u20$core..fmt..Debug$GT$3fmt17h62d188e9b70efc1bE
libclamav.so.11:_ZN80_$LT$image..codecs..webp..extended..DecoderError$u20$as$u20$core..fmt..Debug$GT$3fmt17h2508fd04f128f0b8E
libclamav.so.11:_ZN80_$LT$image..codecs..webp..lossless..DecoderError$u20$as$u20$core..fmt..Debug$GT$3fmt17ha21f323471af31e9E
libclamav.so.11:_ZN80_$LT$image..dynimage..DynamicImage$u20$as$u20$image..image..GenericImageView$GT$10dimensions17hcbdc1cf20d130641E
libclamav.so.11:_ZN80_$LT$image..dynimage..DynamicImage$u20$as$u20$image..image..GenericImageView$GT$6bounds17h5d1abe266e02c817E
libclamav.so.11:_ZN80_$LT$image..dynimage..DynamicImage$u20$as$u20$image..image..GenericImageView$GT$9get_pixel17h0b7fa66795dfc9e4E
libclamav.so.11:_ZN80_$LT$libc..unix..linux_like..linux..Elf32_Ehdr$u20$as$u20$core..clone..Clone$GT$5clone17hfe72940553711fa3E
libclamav.so.11:_ZN80_$LT$libc..unix..linux_like..linux..Elf32_Phdr$u20$as$u20$core..clone..Clone$GT$5clone17hf7efc7d608aae179E
libclamav.so.11:_ZN80_$LT$libc..unix..linux_like..linux..Elf32_Shdr$u20$as$u20$core..clone..Clone$GT$5clone17h709abfff8fdacc3fE
libclamav.so.11:_ZN80_$LT$libc..unix..linux_like..linux..Elf64_Ehdr$u20$as$u20$core..clone..Clone$GT$5clone17hb0a43e62dbcdd212E
libclamav.so.11:_ZN80_$LT$libc..unix..linux_like..linux..Elf64_Phdr$u20$as$u20$core..clone..Clone$GT$5clone17h6e15f195e6982260E
libclamav.so.11:_ZN80_$LT$libc..unix..linux_like..linux..Elf64_Shdr$u20$as$u20$core..clone..Clone$GT$5clone17h89bdd85c786701f4E
libclamav.so.11:_ZN80_$LT$libc..unix..linux_like..linux..can_filter$u20$as$u20$core..clone..Clone$GT$5clone17hbb8bf46b281490cbE
libclamav.so.11:_ZN80_$LT$libc..unix..linux_like..linux..ff_trigger$u20$as$u20$core..clone..Clone$GT$5clone17hf17659b39b42da5dE
libclamav.so.11:_ZN80_$LT$libc..unix..linux_like..linux..genlmsghdr$u20$as$u20$core..clone..Clone$GT$5clone17h6d124a63f444efc1E
libclamav.so.11:_ZN80_$LT$libc..unix..linux_like..linux..gnu..aiocb$u20$as$u20$core..clone..Clone$GT$5clone17hfac190f5f8ddfcdbE
libclamav.so.11:_ZN80_$LT$libc..unix..linux_like..linux..gnu..statx$u20$as$u20$core..clone..Clone$GT$5clone17h385c692b4292be7bE
libclamav.so.11:_ZN80_$LT$libc..unix..linux_like..linux..gnu..timex$u20$as$u20$core..clone..Clone$GT$5clone17h770712da69d498d9E
libclamav.so.11:_ZN80_$LT$libc..unix..linux_like..linux..gnu..utmpx$u20$as$u20$core..clone..Clone$GT$5clone17hd5c2da601fdaba13E
libclamav.so.11:_ZN80_$LT$libc..unix..linux_like..linux..input_mask$u20$as$u20$core..clone..Clone$GT$5clone17h7097b1c2eaac58c0E
libclamav.so.11:_ZN80_$LT$libc..unix..linux_like..linux..itimerspec$u20$as$u20$core..clone..Clone$GT$5clone17h3701ae8fa6adafb6E
libclamav.so.11:_ZN80_$LT$libc..unix..linux_like..linux..regmatch_t$u20$as$u20$core..clone..Clone$GT$5clone17h9683cdbedbf11b76E
libclamav.so.11:_ZN80_$LT$libc..unix..linux_like..linux..sock_fprog$u20$as$u20$core..clone..Clone$GT$5clone17h984a050a249ebb17E
libclamav.so.11:_ZN80_$LT$std..backtrace_rs..types..BytesOrWideString$u20$as$u20$core..fmt..Debug$GT$3fmt17h8e2742532d8dc5a9E
libclamav.so.11:_ZN80_$LT$std..path..Components$u20$as$u20$core..iter..traits..iterator..Iterator$GT$4next17h0b9f9616df59b44aE
libclamav.so.11:_ZN80_$LT$std..process..Stdio$u20$as$u20$core..convert..From$LT$std..fs..File$GT$$GT$4from17h301ad0accadfa652E
libclamav.so.11:_ZN80_$LT$std..sys_common..thread_local_key..Key$u20$as$u20$core..ops..drop..Drop$GT$4drop17hd875919d5eaebdefE
libclamav.so.11:_ZN80_$LT$zune_inflate..decoder..DeflateOptions$u20$as$u20$core..default..Default$GT$7default17h162ff71b675a47a0E
libclamav.so.11:_ZN81_$LT$$RF$$u5b$u8$u5d$$u20$as$u20$alloc..ffi..c_str..CString..new..SpecNewImpl$GT$13spec_new_impl17h69416515ecb05b85E
libclamav.so.11:_ZN81_$LT$alloc..ffi..c_str..FromBytesWithNulErrorKind$u20$as$u20$core..fmt..Debug$GT$3fmt17ha68c72c8584c65d7E
libclamav.so.11:_ZN81_$LT$alloc..string..Drain$u20$as$u20$core..convert..AsRef$LT$$u5b$u8$u5d$$GT$$GT$6as_ref17h8692a95701323004E
libclamav.so.11:_ZN81_$LT$exr..image..read..samples..FlatSamplesReader$u20$as$u20$core..fmt..Debug$GT$3fmt17h57619d028bcdb50eE
libclamav.so.11:_ZN81_$LT$exr..meta..attribute..Text$u20$as$u20$core..convert..From$LT$$RF$str$GT$$GT$4from17h017ff12dc441c0edE
libclamav.so.11:_ZN81_$LT$image..codecs..pnm..decoder..ErrorDataSource$u20$as$u20$core..fmt..Debug$GT$3fmt17hb82ee71d3e6d589cE
libclamav.so.11:_ZN81_$LT$image..codecs..pnm..decoder..PnmHeaderLine$u20$as$u20$core..fmt..Display$GT$3fmt17h227516c589edeb38E
libclamav.so.11:_ZN81_$LT$image..codecs..webp..decoder..DecoderError$u20$as$u20$core..fmt..Display$GT$3fmt17h4a4463876d00745dE
libclamav.so.11:_ZN81_$LT$image..codecs..webp..extended..AnimatedFrame$u20$as$u20$core..fmt..Debug$GT$3fmt17hca0418b0fd3308d4E
libclamav.so.11:_ZN81_$LT$image..codecs..webp..extended..ExtendedImage$u20$as$u20$core..fmt..Debug$GT$3fmt17h84910baa7ba7d8a8E
libclamav.so.11:_ZN81_$LT$image..codecs..webp..lossless..LosslessFrame$u20$as$u20$core..fmt..Debug$GT$3fmt17hc0714201299696eaE
libclamav.so.11:_ZN81_$LT$libc..unix..linux_like..linux..canfd_frame$u20$as$u20$core..clone..Clone$GT$5clone17h6f48e868ef52ea05E
libclamav.so.11:_ZN81_$LT$libc..unix..linux_like..linux..ff_envelope$u20$as$u20$core..clone..Clone$GT$5clone17h8e06f5e7898bb8f6E
libclamav.so.11:_ZN81_$LT$libc..unix..linux_like..linux..gnu..msghdr$u20$as$u20$core..clone..Clone$GT$5clone17hd96cf4da83a6f980E
libclamav.so.11:_ZN81_$LT$libc..unix..linux_like..linux..in6_pktinfo$u20$as$u20$core..clone..Clone$GT$5clone17h4ca9e715987dbd21E
libclamav.so.11:_ZN81_$LT$libc..unix..linux_like..linux..input_event$u20$as$u20$core..clone..Clone$GT$5clone17h201268e95e427996E
libclamav.so.11:_ZN81_$LT$libc..unix..linux_like..linux..packet_mreq$u20$as$u20$core..clone..Clone$GT$5clone17h957bf8fad370c3ccE
libclamav.so.11:_ZN81_$LT$libc..unix..linux_like..linux..sock_filter$u20$as$u20$core..clone..Clone$GT$5clone17h86bc3d86657502e6E
libclamav.so.11:_ZN81_$LT$libc..unix..linux_like..linux..sock_txtime$u20$as$u20$core..clone..Clone$GT$5clone17h203ad71ba0588dcdE
libclamav.so.11:_ZN81_$LT$libc..unix..linux_like..linux..sockaddr_nl$u20$as$u20$core..clone..Clone$GT$5clone17h3be48d16ff1d7d41E
libclamav.so.11:_ZN81_$LT$libc..unix..linux_like..linux..sockaddr_vm$u20$as$u20$core..clone..Clone$GT$5clone17hd60d24b5fa5cdc71E
libclamav.so.11:_ZN81_$LT$miniz_oxide..deflate..buffer..LocalBuf$u20$as$u20$core..default..Default$GT$7default17h4a11c620f7cb29e2E
libclamav.so.11:_ZN81_$LT$object..pe..ImageAlpha64RuntimeFunctionEntry$u20$as$u20$core..fmt..Debug$GT$3fmt17h3e08d55ce0c22ca8E
libclamav.so.11:_ZN81_$LT$object..read..pe..resource..ResourceNameOrId$u20$as$u20$core..fmt..Debug$GT$3fmt17h7414b81820e45bc5E
libclamav.so.11:_ZN81_$LT$png..decoder..stream..StreamingDecoder$u20$as$u20$core..default..Default$GT$7default17h4ce5a9ab85794312E
libclamav.so.11:_ZN81_$LT$std..io..buffered..bufwriter..WriterPanicked$u20$as$u20$core..fmt..Debug$GT$3fmt17hd025461cf503e93dE
libclamav.so.11:_ZN81_$LT$std..sys..unix..stack_overflow..Handler$u20$as$u20$core..ops..drop..Drop$GT$4drop17h4b544cf670a9469eE
libclamav.so.11:_ZN81_$LT$std_detect..detect..cache..Initializer$u20$as$u20$core..default..Default$GT$7default17h36e3a5ff5a276097E
libclamav.so.11:_ZN81_$LT$tiff..encoder..compression..Compressor$u20$as$u20$core..default..Default$GT$7default17h8559156b607bafabE
libclamav.so.11:_ZN81_$LT$tiff..encoder..compression..deflate..Deflate$u20$as$u20$core..fmt..Debug$GT$3fmt17h6d8551d87738ae6fE
libclamav.so.11:_ZN82_$LT$alloc..collections..btree..set_val..SetValZST$u20$as$u20$core..fmt..Debug$GT$3fmt17hbaa89c8bd5d92304E
libclamav.so.11:_ZN82_$LT$core..char..EscapeDebug$u20$as$u20$core..iter..traits..iterator..Iterator$GT$4next17h26535e8ece21f3e8E
libclamav.so.11:_ZN82_$LT$core..char..EscapeDebug$u20$as$u20$core..iter..traits..iterator..Iterator$GT$9size_hint17hcc2c02942474c213E
libclamav.so.11:_ZN82_$LT$core..char..ToLowercase$u20$as$u20$core..iter..traits..iterator..Iterator$GT$4next17h2b5fa6023817f25cE
libclamav.so.11:_ZN82_$LT$core..char..ToLowercase$u20$as$u20$core..iter..traits..iterator..Iterator$GT$9size_hint17h83789759d1370813E
libclamav.so.11:_ZN82_$LT$core..char..ToUppercase$u20$as$u20$core..iter..traits..iterator..Iterator$GT$4next17h7f3091579a3e9eb9E
libclamav.so.11:_ZN82_$LT$core..char..ToUppercase$u20$as$u20$core..iter..traits..iterator..Iterator$GT$9size_hint17h8e1f135468043ee7E
libclamav.so.11:_ZN82_$LT$dyn$u20$core..any..Any$u2b$core..marker..Send$u20$as$u20$core..fmt..Debug$GT$3fmt17h2ef3b700bcad0b27E
libclamav.so.11:_ZN82_$LT$exr..image..write..samples..FlatSamplesWriter$u20$as$u20$core..fmt..Debug$GT$3fmt17h6f33c6d9d3cf7ec3E
libclamav.so.11:_ZN82_$LT$image..codecs..farbfeld..FarbfeldReader$LT$R$GT$$u20$as$u20$std..io..Seek$GT$4seek12parse_offset17h5827156959b5fbd0E
libclamav.so.11:_ZN82_$LT$image..codecs..pnm..header..ArbitraryTuplType$u20$as$u20$core..fmt..Debug$GT$3fmt17h289e440c28076e52E
libclamav.so.11:_ZN82_$LT$image..codecs..webp..extended..DecoderError$u20$as$u20$core..fmt..Display$GT$3fmt17h8af0d522a4308340E
libclamav.so.11:_ZN82_$LT$image..codecs..webp..huffman..HuffmanTreeNode$u20$as$u20$core..fmt..Debug$GT$3fmt17h6e061f7c561ab667E
libclamav.so.11:_ZN82_$LT$image..codecs..webp..lossless..DecoderError$u20$as$u20$core..fmt..Display$GT$3fmt17hd2f65d64dd776493E
libclamav.so.11:_ZN82_$LT$libc..unix..linux_like..linux..arpd_request$u20$as$u20$core..clone..Clone$GT$5clone17h01b4c89effd984e4E
libclamav.so.11:_ZN82_$LT$libc..unix..linux_like..linux..dl_phdr_info$u20$as$u20$core..clone..Clone$GT$5clone17h683fe88d47bb6d2bE
libclamav.so.11:_ZN82_$LT$libc..unix..linux_like..linux..gnu..cmsghdr$u20$as$u20$core..clone..Clone$GT$5clone17h769c91078cced257E
libclamav.so.11:_ZN82_$LT$libc..unix..linux_like..linux..gnu..regex_t$u20$as$u20$core..clone..Clone$GT$5clone17hc23c822ce8216ca4E
libclamav.so.11:_ZN82_$LT$libc..unix..linux_like..linux..gnu..rtentry$u20$as$u20$core..clone..Clone$GT$5clone17h4191c3c76f6864d1E
libclamav.so.11:_ZN82_$LT$libc..unix..linux_like..linux..gnu..seminfo$u20$as$u20$core..clone..Clone$GT$5clone17h1b7abb1a487e5bfeE
libclamav.so.11:_ZN82_$LT$libc..unix..linux_like..linux..gnu..termios$u20$as$u20$core..clone..Clone$GT$5clone17h3c62f705d0b93ea9E
libclamav.so.11:_ZN82_$LT$libc..unix..linux_like..linux..if_nameindex$u20$as$u20$core..clone..Clone$GT$5clone17hf5fbba70ff880883E
libclamav.so.11:_ZN82_$LT$libc..unix..linux_like..linux..j1939_filter$u20$as$u20$core..clone..Clone$GT$5clone17h6541e262d3d250a6E
libclamav.so.11:_ZN82_$LT$libc..unix..linux_like..linux..seccomp_data$u20$as$u20$core..clone..Clone$GT$5clone17h56b553b21c4c9195E
libclamav.so.11:_ZN82_$LT$libc..unix..linux_like..linux..sockaddr_alg$u20$as$u20$core..clone..Clone$GT$5clone17hd4a387d9506acc5cE
libclamav.so.11:_ZN82_$LT$libc..unix..linux_like..linux..sockaddr_can$u20$as$u20$core..clone..Clone$GT$5clone17hd549447cea532398E
libclamav.so.11:_ZN82_$LT$libc..unix..linux_like..linux..uinput_setup$u20$as$u20$core..clone..Clone$GT$5clone17h820320af77624c74E
libclamav.so.11:_ZN82_$LT$object..read..pe..resource..ResourceDirectory$u20$as$u20$core..fmt..Debug$GT$3fmt17h5a3ccf312d344093E
libclamav.so.11:_ZN82_$LT$rayon_core..sleep..counters..JobsEventCounter$u20$as$u20$core..fmt..Debug$GT$3fmt17h358300523dd966d8E
libclamav.so.11:_ZN82_$LT$std..net..tcp..Incoming$u20$as$u20$core..iter..traits..iterator..Iterator$GT$4next17haaadfe50299d7f4eE
libclamav.so.11:_ZN82_$LT$std..net..tcp..TcpStream$u20$as$u20$std..sys..unix..kernel_copy..CopyRead$GT$10properties17h7737bc45e899de02E
libclamav.so.11:_ZN82_$LT$std..os..unix..net..ancillary..AncillaryError$u20$as$u20$core..fmt..Debug$GT$3fmt17hf1c05e20060dfe11E
libclamav.so.11:_ZN82_$LT$std..process..ExitStatus$u20$as$u20$std..os..unix..process..ExitStatusExt$GT$11core_dumped17h31b87c4972ab0b0aE
libclamav.so.11:_ZN82_$LT$std..process..ExitStatus$u20$as$u20$std..os..unix..process..ExitStatusExt$GT$14stopped_signal17ha15f59d014e7125bE
libclamav.so.11:_ZN82_$LT$std..process..ExitStatus$u20$as$u20$std..os..unix..process..ExitStatusExt$GT$6signal17h70aa614e7d12382bE
libclamav.so.11:_ZN82_$LT$std..process..ExitStatus$u20$as$u20$std..os..unix..process..ExitStatusExt$GT$8from_raw17had0362f99230685bE
libclamav.so.11:_ZN82_$LT$std..process..ExitStatus$u20$as$u20$std..os..unix..process..ExitStatusExt$GT$8into_raw17h443d5daa7acf6182E
libclamav.so.11:_ZN82_$LT$std..process..ExitStatus$u20$as$u20$std..os..unix..process..ExitStatusExt$GT$9continued17h5481cc14ca306a6dE
libclamav.so.11:_ZN82_$LT$std..sys..unix..os..Env$u20$as$u20$core..iter..traits..iterator..Iterator$GT$4next17hc5722d6b4f82a6edE
libclamav.so.11:_ZN82_$LT$std..sys..unix..os..Env$u20$as$u20$core..iter..traits..iterator..Iterator$GT$9size_hint17h71bbd5f6713b3f79E
libclamav.so.11:_ZN83_$LT$exr..block..chunk..CompressedDeepScanLineBlock$u20$as$u20$core..fmt..Debug$GT$3fmt17hc6a22c211fe278c9E
libclamav.so.11:_ZN83_$LT$flume..TryRecvError$u20$as$u20$core..convert..From$LT$flume..RecvError$GT$$GT$4from17h629ff9590b9016b3E
libclamav.so.11:_ZN83_$LT$image..animation..Frames$u20$as$u20$core..iter..traits..iterator..Iterator$GT$4next17hcc9473c51db402d4E
libclamav.so.11:_ZN83_$LT$image..codecs..bmp..decoder..ChannelWidthError$u20$as$u20$core..fmt..Debug$GT$3fmt17hd8076449a5ef5102E
libclamav.so.11:_ZN83_$LT$image..codecs..jpeg..encoder..PixelDensityUnit$u20$as$u20$core..fmt..Debug$GT$3fmt17h3e0a109ab40a8fa1E
libclamav.so.11:_ZN83_$LT$image..codecs..pnm..decoder..ErrorDataSource$u20$as$u20$core..fmt..Display$GT$3fmt17hae608cf280191854E
libclamav.so.11:_ZN83_$LT$image..codecs..webp..extended..FilteringMethod$u20$as$u20$core..fmt..Debug$GT$3fmt17h40127e1c00ff7e5dE
libclamav.so.11:_ZN83_$LT$libc..unix..linux_like..linux..gnu..glob64_t$u20$as$u20$core..clone..Clone$GT$5clone17h5df4ca230ca51be0E
libclamav.so.11:_ZN83_$LT$libc..unix..linux_like..linux..gnu..mallinfo$u20$as$u20$core..clone..Clone$GT$5clone17h88499dd3868b80feE
libclamav.so.11:_ZN83_$LT$libc..unix..linux_like..linux..inotify_event$u20$as$u20$core..clone..Clone$GT$5clone17hcd157e3b747d9e3eE
libclamav.so.11:_ZN83_$LT$libc..unix..linux_like..linux..input_absinfo$u20$as$u20$core..clone..Clone$GT$5clone17h67c7ab6efdc7d687E
libclamav.so.11:_ZN83_$LT$memchr..memmem..FindIter$u20$as$u20$core..iter..traits..iterator..Iterator$GT$4next17hd498b45ee7c4a7dcE
libclamav.so.11:_ZN83_$LT$miniz_oxide..deflate..core..HuffmanOxide$u20$as$u20$core..default..Default$GT$7default17h634994a569e0d926E
libclamav.so.11:_ZN83_$LT$miniz_oxide..deflate..core..HuffmanOxide$u20$as$u20$core..default..Default$GT$7default17h825b80502b91f5abE
libclamav.so.11:_ZN83_$LT$std..io..buffered..bufwriter..WriterPanicked$u20$as$u20$core..error..Error$GT$11description17hb093cdf5f6060c8eE
libclamav.so.11:_ZN83_$LT$std..io..buffered..bufwriter..WriterPanicked$u20$as$u20$core..fmt..Display$GT$3fmt17h0bbc2eb0e0b71bd6E
libclamav.so.11:_ZN83_$LT$std..io..stdio..StdinLock$u20$as$u20$std..sys..unix..kernel_copy..CopyRead$GT$10properties17hec05eb3acad3659bE
libclamav.so.11:_ZN83_$LT$std..net..tcp..TcpStream$u20$as$u20$std..sys..unix..kernel_copy..CopyWrite$GT$10properties17h675271052e0de195E
libclamav.so.11:_ZN83_$LT$std..os..unix..net..ancillary..SocketAncillary$u20$as$u20$core..fmt..Debug$GT$3fmt17h95a6b866c9ccce5bE
libclamav.so.11:_ZN83_$LT$std..process..ChildStderr$u20$as$u20$std..sys..unix..kernel_copy..CopyRead$GT$10properties17h797f202a08184fc7E
libclamav.so.11:_ZN83_$LT$std..process..ChildStdin$u20$as$u20$std..sys..unix..kernel_copy..CopyWrite$GT$10properties17h97c11cdf90ba8e1cE
libclamav.so.11:_ZN83_$LT$std..process..ChildStdout$u20$as$u20$std..sys..unix..kernel_copy..CopyRead$GT$10properties17hca31cb8329f5e3cbE
libclamav.so.11:_ZN83_$LT$tiff..encoder..compression..packbits..Packbits$u20$as$u20$core..fmt..Debug$GT$3fmt17h2cb50de5e08ef2a8E
libclamav.so.11:_ZN84_$LT$core..char..EscapeDefault$u20$as$u20$core..iter..traits..iterator..Iterator$GT$3nth17h1292be63dcff4a83E
libclamav.so.11:_ZN84_$LT$core..char..EscapeDefault$u20$as$u20$core..iter..traits..iterator..Iterator$GT$4last17h3b37d1574283aa34E
libclamav.so.11:_ZN84_$LT$core..char..EscapeDefault$u20$as$u20$core..iter..traits..iterator..Iterator$GT$4next17haca9ff5cf6a9882dE
libclamav.so.11:_ZN84_$LT$core..char..EscapeUnicode$u20$as$u20$core..iter..traits..iterator..Iterator$GT$4last17hb701c395c782193fE
libclamav.so.11:_ZN84_$LT$core..char..EscapeUnicode$u20$as$u20$core..iter..traits..iterator..Iterator$GT$4next17hb94b2ac57e68cdbfE
libclamav.so.11:_ZN84_$LT$core..panicking..assert_matches_failed..Pattern$u20$as$u20$core..fmt..Debug$GT$3fmt17h5f548e3a4a781d2dE
libclamav.so.11:_ZN84_$LT$exr..image..validate_results..ValidationOptions$u20$as$u20$core..fmt..Debug$GT$3fmt17h7594869de1396675E
libclamav.so.11:_ZN84_$LT$exr..io..LateFile$u20$as$u20$core..convert..From$LT$$RF$std..path..Path$GT$$GT$4from17h35453c46f02d59a8E
libclamav.so.11:_ZN84_$LT$half..binary16..f16$u20$as$u20$exr..image..validate_results..ValidateResult$GT$15validate_result17hd365c59eb3cfa397E
libclamav.so.11:_ZN84_$LT$image..codecs..webp..extended..WebPAnimatedInfo$u20$as$u20$core..fmt..Debug$GT$3fmt17h48d9ae41e3596c7eE
libclamav.so.11:_ZN84_$LT$image..codecs..webp..extended..WebPExtendedInfo$u20$as$u20$core..fmt..Debug$GT$3fmt17h173b64cf84dbf7d8E
libclamav.so.11:_ZN84_$LT$jpeg_decoder..worker..rayon..Scoped$u20$as$u20$jpeg_decoder..worker..Worker$GT$10append_row17h884b2b6a22f9bdddE
libclamav.so.11:_ZN84_$LT$jpeg_decoder..worker..rayon..Scoped$u20$as$u20$jpeg_decoder..worker..Worker$GT$10get_result17h58d7a8bf842d028bE
libclamav.so.11:_ZN84_$LT$jpeg_decoder..worker..rayon..Scoped$u20$as$u20$jpeg_decoder..worker..Worker$GT$11append_rows17h3054faf0054096b7E
libclamav.so.11:_ZN84_$LT$jpeg_decoder..worker..rayon..Scoped$u20$as$u20$jpeg_decoder..worker..Worker$GT$5start17hf95c2c2adcf34b67E
libclamav.so.11:_ZN84_$LT$libc..unix..linux_like..linux..ff_ramp_effect$u20$as$u20$core..clone..Clone$GT$5clone17h8d898d14a9812adfE
libclamav.so.11:_ZN84_$LT$libc..unix..linux_like..linux..gnu..__timeval$u20$as$u20$core..clone..Clone$GT$5clone17he862ecd91c19007dE
libclamav.so.11:_ZN84_$LT$libc..unix..linux_like..linux..gnu..mallinfo2$u20$as$u20$core..clone..Clone$GT$5clone17hc70b9d8955344d63E
libclamav.so.11:_ZN84_$LT$libc..unix..linux_like..linux..pthread_cond_t$u20$as$u20$core..clone..Clone$GT$5clone17h8d3dfbd6a83f54d8E
libclamav.so.11:_ZN84_$LT$miniz_oxide..deflate..buffer..HashBuffers$u20$as$u20$core..default..Default$GT$7default17h26b76d4c98897097E
libclamav.so.11:_ZN84_$LT$miniz_oxide..deflate..core..CompressionStrategy$u20$as$u20$core..fmt..Debug$GT$3fmt17h09c881e969dfcf8dE
libclamav.so.11:_ZN84_$LT$miniz_oxide..deflate..core..CompressionStrategy$u20$as$u20$core..fmt..Debug$GT$3fmt17he49ddc6afdea8390E
libclamav.so.11:_ZN84_$LT$png..utils..Adam7Iterator$u20$as$u20$core..iter..traits..iterator..Iterator$GT$4next17h99c61eab5f3c3ad2E
libclamav.so.11:_ZN84_$LT$std..env..Args$u20$as$u20$core..iter..traits..exact_size..ExactSizeIterator$GT$3len17hb7d76718f25a1be4E
libclamav.so.11:_ZN84_$LT$std..env..Args$u20$as$u20$core..iter..traits..exact_size..ExactSizeIterator$GT$8is_empty17hb07e20ba61fa79e4E
libclamav.so.11:_ZN84_$LT$std..process..CommandArgs$u20$as$u20$core..iter..traits..iterator..Iterator$GT$4next17h3f3d8bfc45c4cffaE
libclamav.so.11:_ZN84_$LT$std..process..CommandArgs$u20$as$u20$core..iter..traits..iterator..Iterator$GT$9size_hint17h29c1759398a4f96aE
libclamav.so.11:_ZN85_$LT$alloc..string..String..retain..SetLenOnDrop$u20$as$u20$core..ops..drop..Drop$GT$4drop17h9df8849fedafce70E
libclamav.so.11:_ZN85_$LT$core..ascii..EscapeDefault$u20$as$u20$core..iter..traits..iterator..Iterator$GT$4last17ha069d3d1e7ceea6aE
libclamav.so.11:_ZN85_$LT$core..ascii..EscapeDefault$u20$as$u20$core..iter..traits..iterator..Iterator$GT$9size_hint17h23330bdf8139562bE
libclamav.so.11:_ZN85_$LT$exr..block..samples..Sample$u20$as$u20$exr..block..samples..FromNativeSample$GT$8from_f1617hc275d333ed731c9aE
libclamav.so.11:_ZN85_$LT$exr..block..samples..Sample$u20$as$u20$exr..block..samples..FromNativeSample$GT$8from_f3217h0cc968c995cde863E
libclamav.so.11:_ZN85_$LT$exr..block..samples..Sample$u20$as$u20$exr..block..samples..FromNativeSample$GT$8from_u3217hbdcd8d980fc504b3E
libclamav.so.11:_ZN85_$LT$exr..block..samples..Sample$u20$as$u20$exr..block..samples..IntoNativeSample$GT$6to_f1617he837d2fa83bf656dE
libclamav.so.11:_ZN85_$LT$exr..block..samples..Sample$u20$as$u20$exr..block..samples..IntoNativeSample$GT$6to_f3217hcb4a6a9a95419bb9E
libclamav.so.11:_ZN85_$LT$exr..block..samples..Sample$u20$as$u20$exr..block..samples..IntoNativeSample$GT$6to_u3217h16eb88fae8c953c0E
libclamav.so.11:_ZN85_$LT$exr..image..FlatSamples$u20$as$u20$exr..image..write..samples..WritableLevel$GT$11sample_type17h6a2c21fe0472e517E
libclamav.so.11:_ZN85_$LT$exr..image..FlatSamples$u20$as$u20$exr..image..write..samples..WritableLevel$GT$19create_level_writer17h5cf173c74479a707E
libclamav.so.11:_ZN85_$LT$image..codecs..bmp..decoder..ChannelWidthError$u20$as$u20$core..fmt..Display$GT$3fmt17hc580cea87a9715b9E
libclamav.so.11:_ZN85_$LT$image..codecs..ico..decoder..IcoEntryImageFormat$u20$as$u20$core..fmt..Debug$GT$3fmt17h93ad83bf4f9b45f5E
libclamav.so.11:_ZN85_$LT$image..codecs..jpeg..encoder..PixelDensity$u20$as$u20$core..default..Default$GT$7default17hae978d7d9c1a19c2E
libclamav.so.11:_ZN85_$LT$image..codecs..webp..extended..ExtendedImageData$u20$as$u20$core..fmt..Debug$GT$3fmt17hd44f499fc8acd3cfE
libclamav.so.11:_ZN85_$LT$libc..unix..linux_like..linux..gnu..Elf32_Chdr$u20$as$u20$core..clone..Clone$GT$5clone17h2a718b0c8864e89bE
libclamav.so.11:_ZN85_$LT$libc..unix..linux_like..linux..gnu..Elf64_Chdr$u20$as$u20$core..clone..Clone$GT$5clone17hf0890797383c2108E
libclamav.so.11:_ZN85_$LT$libc..unix..linux_like..linux..gnu..nl_pktinfo$u20$as$u20$core..clone..Clone$GT$5clone17hfda582fda59e2daeE
libclamav.so.11:_ZN85_$LT$libc..unix..linux_like..linux..gnu..ntptimeval$u20$as$u20$core..clone..Clone$GT$5clone17h931bc80b95e4786cE
libclamav.so.11:_ZN85_$LT$libc..unix..linux_like..linux..pthread_mutex_t$u20$as$u20$core..clone..Clone$GT$5clone17ha0f6d70fe3669379E
libclamav.so.11:_ZN85_$LT$libc..unix..linux_like..linux..uinput_ff_erase$u20$as$u20$core..clone..Clone$GT$5clone17h6b9bbbf585da3494E
libclamav.so.11:_ZN85_$LT$libc..unix..linux_like..linux..uinput_user_dev$u20$as$u20$core..clone..Clone$GT$5clone17ha24db4a9e942dc67E
libclamav.so.11:_ZN85_$LT$miniz_oxide..inflate..stream..InflateState$u20$as$u20$core..default..Default$GT$7default17h295a45f772d9bb18E
libclamav.so.11:_ZN85_$LT$miniz_oxide..inflate..stream..InflateState$u20$as$u20$core..default..Default$GT$7default17hf64f727e26902f92E
libclamav.so.11:_ZN85_$LT$object..pe..ImageEpilogueDynamicRelocationHeader$u20$as$u20$core..fmt..Debug$GT$3fmt17h4ead34947ddda1e4E
libclamav.so.11:_ZN85_$LT$object..pe..ImagePrologueDynamicRelocationHeader$u20$as$u20$core..fmt..Debug$GT$3fmt17h1d379625956471c1E
libclamav.so.11:_ZN85_$LT$object..read..pe..relocation..RelocationIterator$u20$as$u20$core..fmt..Debug$GT$3fmt17h953859f7eff3e6f3E
libclamav.so.11:_ZN85_$LT$std..backtrace_rs..backtrace..libunwind..Frame$u20$as$u20$core..clone..Clone$GT$5clone17hf0627b5a40d607a7E
libclamav.so.11:_ZN85_$LT$std..backtrace_rs..print..BacktraceFrameFmt$u20$as$u20$core..ops..drop..Drop$GT$4drop17hca25494ee9369653E
libclamav.so.11:_ZN85_$LT$std..io..stdio..StderrLock$u20$as$u20$std..sys..unix..kernel_copy..CopyWrite$GT$10properties17hda95efb6362581ccE
libclamav.so.11:_ZN85_$LT$std..io..stdio..StdoutLock$u20$as$u20$std..sys..unix..kernel_copy..CopyWrite$GT$10properties17hc339d04d066d93ccE
libclamav.so.11:_ZN85_$LT$std..sys..unix..args..Args$u20$as$u20$core..iter..traits..iterator..Iterator$GT$4next17hd5aa73069c0b1353E
libclamav.so.11:_ZN85_$LT$std..sys..unix..args..Args$u20$as$u20$core..iter..traits..iterator..Iterator$GT$9size_hint17h82d76ab992882ce6E
libclamav.so.11:_ZN85_$LT$std..sys..unix..process..process_common..Command$u20$as$u20$core..fmt..Debug$GT$3fmt17h984e315143aacd3fE
libclamav.so.11:_ZN85_$LT$zune_inflate..decoder..DeflateHeaderTables$u20$as$u20$core..default..Default$GT$7default17h962c1171f20c180bE
libclamav.so.11:_ZN86_$LT$$RF$std..net..tcp..TcpStream$u20$as$u20$std..sys..unix..kernel_copy..CopyRead$GT$10properties17h19869fd6f45910ebE
libclamav.so.11:_ZN86_$LT$core..char..CaseMappingIter$u20$as$u20$core..iter..traits..iterator..Iterator$GT$4next17hc73e3af5f0cfe822E
libclamav.so.11:_ZN86_$LT$core..char..CaseMappingIter$u20$as$u20$core..iter..traits..iterator..Iterator$GT$9size_hint17h4b57f6eb855e74f0E
libclamav.so.11:_ZN86_$LT$core..num..error..TryFromIntError$u20$as$u20$core..convert..From$LT$$u21$$GT$$GT$4from17h8537ddb06d7ae959E
libclamav.so.11:_ZN86_$LT$exr..error..Error$u20$as$u20$core..convert..From$LT$std..io..error..Error$GT$$GT$4from17hcc7ba0d423fd204eE
libclamav.so.11:_ZN86_$LT$libc..unix..linux_like..linux..ff_rumble_effect$u20$as$u20$core..clone..Clone$GT$5clone17h9ee7c5a0933bc549E
libclamav.so.11:_ZN86_$LT$libc..unix..linux_like..linux..file_clone_range$u20$as$u20$core..clone..Clone$GT$5clone17h573f9355ec8c95b8E
libclamav.so.11:_ZN86_$LT$libc..unix..linux_like..linux..gnu..nl_mmap_hdr$u20$as$u20$core..clone..Clone$GT$5clone17h82986fd681dbe42dE
libclamav.so.11:_ZN86_$LT$libc..unix..linux_like..linux..gnu..nl_mmap_req$u20$as$u20$core..clone..Clone$GT$5clone17h10939524aeed58dfE
libclamav.so.11:_ZN86_$LT$libc..unix..linux_like..linux..pthread_rwlock_t$u20$as$u20$core..clone..Clone$GT$5clone17h32fec193f70ce6cdE
libclamav.so.11:_ZN86_$LT$libc..unix..linux_like..linux..signalfd_siginfo$u20$as$u20$core..clone..Clone$GT$5clone17hae3c676845d1ec10E
libclamav.so.11:_ZN86_$LT$libc..unix..linux_like..linux..uinput_abs_setup$u20$as$u20$core..clone..Clone$GT$5clone17h1008023b0866f5c3E
libclamav.so.11:_ZN86_$LT$libc..unix..linux_like..linux..uinput_ff_upload$u20$as$u20$core..clone..Clone$GT$5clone17h3cf7c85ff2c2737aE
libclamav.so.11:_ZN86_$LT$memchr..memmem..FindRevIter$u20$as$u20$core..iter..traits..iterator..Iterator$GT$4next17h4076e2cec3f33417E
libclamav.so.11:_ZN86_$LT$object..read..elf..relocation..RelocationSections$u20$as$u20$core..fmt..Debug$GT$3fmt17hfe4082e11a9bd16bE
libclamav.so.11:_ZN86_$LT$object..read..pe..data_directory..DataDirectories$u20$as$u20$core..fmt..Debug$GT$3fmt17h325ccd7529d47ba5E
libclamav.so.11:_ZN86_$LT$object..read..traits..NoDynamicRelocationIterator$u20$as$u20$core..fmt..Debug$GT$3fmt17h2938496c017e2747E
libclamav.so.11:_ZN86_$LT$std..env..ArgsOs$u20$as$u20$core..iter..traits..exact_size..ExactSizeIterator$GT$3len17h354d1a58cb383cc7E
libclamav.so.11:_ZN86_$LT$std..env..ArgsOs$u20$as$u20$core..iter..traits..exact_size..ExactSizeIterator$GT$8is_empty17h9614dff01cb30157E
libclamav.so.11:_ZN86_$LT$std..net..tcp..IntoIncoming$u20$as$u20$core..iter..traits..iterator..Iterator$GT$4next17hdabc09a38bb66ba0E
libclamav.so.11:_ZN86_$LT$std..sys..unix..fs..ReadDir$u20$as$u20$core..iter..traits..iterator..Iterator$GT$4next17hb9243fcafc3c78b1E
libclamav.so.11:_ZN86_$LT$std..sys..unix..process..process_common..ExitCode$u20$as$u20$core..fmt..Debug$GT$3fmt17h0f27e610bfecc67cE
libclamav.so.11:_ZN86_$LT$tempfile..dir..TempDir$u20$as$u20$core..convert..AsRef$LT$std..path..Path$GT$$GT$6as_ref17h5eab1d5aacaa1ef8E
libclamav.so.11:_ZN86_$LT$tiff..encoder..compression..deflate..DeflateLevel$u20$as$u20$core..fmt..Debug$GT$3fmt17hb7a65b10fd8edd61E
libclamav.so.11:_ZN87_$LT$$RF$std..net..tcp..TcpStream$u20$as$u20$std..sys..unix..kernel_copy..CopyWrite$GT$10properties17h53c222fb0ab26524E
libclamav.so.11:_ZN87_$LT$core..str..lossy..Utf8Chunks$u20$as$u20$core..iter..traits..iterator..Iterator$GT$4next17h993d397588b5548aE
libclamav.so.11:_ZN87_$LT$exr..image..FlatSamples$u20$as$u20$exr..image..write..samples..WritableSamples$GT$11sample_type17h4f0234496e0ce221E
libclamav.so.11:_ZN87_$LT$exr..image..FlatSamples$u20$as$u20$exr..image..write..samples..WritableSamples$GT$17infer_level_modes17h052d398871cbe3fcE
libclamav.so.11:_ZN87_$LT$exr..image..FlatSamples$u20$as$u20$exr..image..write..samples..WritableSamples$GT$21create_samples_writer17h6a9d5e7d63e74782E
libclamav.so.11:_ZN87_$LT$exr..meta..attribute..Text$u20$as$u20$core..borrow..Borrow$LT$$u5b$u8$u5d$$GT$$GT$6borrow17hfb579d7b01370efbE
libclamav.so.11:_ZN87_$LT$flume..RecvTimeoutError$u20$as$u20$core..convert..From$LT$flume..RecvError$GT$$GT$4from17h1c1bf5f985bb174aE
libclamav.so.11:_ZN87_$LT$image..codecs..ico..decoder..IcoEntryImageFormat$u20$as$u20$core..fmt..Display$GT$3fmt17hf1e9838158b8b007E
libclamav.so.11:_ZN87_$LT$image..codecs..pnm..decoder..U8$u20$as$u20$image..codecs..pnm..decoder..Sample$GT$10from_ascii17h546ae67cc19a7f18E
libclamav.so.11:_ZN87_$LT$image..codecs..pnm..decoder..U8$u20$as$u20$image..codecs..pnm..decoder..Sample$GT$10from_bytes17h00e0b5e8b5b6f1b2E
libclamav.so.11:_ZN87_$LT$image..codecs..pnm..decoder..U8$u20$as$u20$image..codecs..pnm..decoder..Sample$GT$7bytelen17h86b98a5285979273E
libclamav.so.11:_ZN87_$LT$image..imageops..sample..FloatNearest$u20$as$u20$num_traits..cast..ToPrimitive$GT$5to_i817h6e1134cce0d846a8E
libclamav.so.11:_ZN87_$LT$image..imageops..sample..FloatNearest$u20$as$u20$num_traits..cast..ToPrimitive$GT$5to_u817h896fbc3709111e8eE
libclamav.so.11:_ZN87_$LT$image..imageops..sample..FloatNearest$u20$as$u20$num_traits..cast..ToPrimitive$GT$6to_f6417ha51fe40ec86691f1E
libclamav.so.11:_ZN87_$LT$image..imageops..sample..FloatNearest$u20$as$u20$num_traits..cast..ToPrimitive$GT$6to_i1617h0211dda08dba66c9E
libclamav.so.11:_ZN87_$LT$image..imageops..sample..FloatNearest$u20$as$u20$num_traits..cast..ToPrimitive$GT$6to_i6417h658bc7b0d3d9ab0bE
libclamav.so.11:_ZN87_$LT$image..imageops..sample..FloatNearest$u20$as$u20$num_traits..cast..ToPrimitive$GT$6to_u1617he60d969472999174E
libclamav.so.11:_ZN87_$LT$image..imageops..sample..FloatNearest$u20$as$u20$num_traits..cast..ToPrimitive$GT$6to_u6417h2e2327e1545996a3E
libclamav.so.11:_ZN87_$LT$libc..unix..linux_like..linux..fanotify_response$u20$as$u20$core..clone..Clone$GT$5clone17h8feb706892be6a5fE
libclamav.so.11:_ZN87_$LT$libc..unix..linux_like..linux..gnu..align..sem_t$u20$as$u20$core..clone..Clone$GT$5clone17h2db938b68809e863E
libclamav.so.11:_ZN87_$LT$libc..unix..linux_like..linux..gnu..b64..sysinfo$u20$as$u20$core..clone..Clone$GT$5clone17hf119300d6ed8c759E
libclamav.so.11:_ZN87_$LT$libc..unix..linux_like..linux..posix_spawnattr_t$u20$as$u20$core..clone..Clone$GT$5clone17hf8c275ea202a1796E
libclamav.so.11:_ZN87_$LT$libc..unix..linux_like..linux..sock_extended_err$u20$as$u20$core..clone..Clone$GT$5clone17h69d01fd5c0f5204aE
libclamav.so.11:_ZN87_$LT$object..read..pe..import..ImportDescriptorIterator$u20$as$u20$core..fmt..Debug$GT$3fmt17h1c89c8e3bac45464E
libclamav.so.11:_ZN87_$LT$object..read..pe..resource..ResourceDirectoryTable$u20$as$u20$core..fmt..Debug$GT$3fmt17hd28234e8ba020639E
libclamav.so.11:_ZN87_$LT$std..net..tcp..TcpStream$u20$as$u20$std..os..net..linux_ext..tcp..TcpStreamExt$GT$12set_quickack17h500cd4a06d88e187E
libclamav.so.11:_ZN87_$LT$std..net..tcp..TcpStream$u20$as$u20$std..os..net..linux_ext..tcp..TcpStreamExt$GT$8quickack17h7f538d67cc849bd8E
libclamav.so.11:_ZN87_$LT$std..process..ExitStatusError$u20$as$u20$std..os..unix..process..ExitStatusExt$GT$11core_dumped17h6b71bb2d901d88bdE
libclamav.so.11:_ZN87_$LT$std..process..ExitStatusError$u20$as$u20$std..os..unix..process..ExitStatusExt$GT$14stopped_signal17h112ca9c1ac29eb23E
libclamav.so.11:_ZN87_$LT$std..process..ExitStatusError$u20$as$u20$std..os..unix..process..ExitStatusExt$GT$6signal17hf9f495b115aed063E
libclamav.so.11:_ZN87_$LT$std..process..ExitStatusError$u20$as$u20$std..os..unix..process..ExitStatusExt$GT$8from_raw17h11352671a8260da9E
libclamav.so.11:_ZN87_$LT$std..process..ExitStatusError$u20$as$u20$std..os..unix..process..ExitStatusExt$GT$8into_raw17h7df6a686ed45d0efE
libclamav.so.11:_ZN87_$LT$std..process..ExitStatusError$u20$as$u20$std..os..unix..process..ExitStatusExt$GT$9continued17h85ca454bc972a345E
libclamav.so.11:_ZN87_$LT$std..sys..unix..process..process_inner..ExitStatus$u20$as$u20$core..fmt..Debug$GT$3fmt17hbb134e16424f2197E
libclamav.so.11:_ZN87_$LT$std..sys_common..once..futex..CompletionGuard$u20$as$u20$core..ops..drop..Drop$GT$4drop17h8b2890276e34c586E
libclamav.so.11:_ZN87_$LT$tiff..encoder..compression..deflate..Deflate$u20$as$u20$core..default..Default$GT$7default17h4048ed717dc5f46fE
libclamav.so.11:_ZN87_$LT$tiff..encoder..tiff_value..Ifd$u20$as$u20$tiff..encoder..tiff_value..TiffValue$GT$4data17h6007cfe35ee13ad7E
libclamav.so.11:_ZN87_$LT$tiff..encoder..tiff_value..Ifd$u20$as$u20$tiff..encoder..tiff_value..TiffValue$GT$5count17h39b450fa57b6d82bE
libclamav.so.11:_ZN88_$LT$exr..image..FlatSamples$u20$as$u20$exr..image..validate_results..ValidateResult$GT$15validate_result17h552237d9e7971f75E
libclamav.so.11:_ZN88_$LT$exr..image..recursive..NoneMore$u20$as$u20$exr..image..recursive..IntoRecursive$GT$14into_recursive17hb6c87d72ca9546d6E
libclamav.so.11:_ZN88_$LT$image..codecs..pnm..decoder..U16$u20$as$u20$image..codecs..pnm..decoder..Sample$GT$10from_ascii17he07082f6d425a35fE
libclamav.so.11:_ZN88_$LT$image..codecs..pnm..decoder..U16$u20$as$u20$image..codecs..pnm..decoder..Sample$GT$10from_bytes17h1897ec6a59cad1f8E
libclamav.so.11:_ZN88_$LT$image..codecs..pnm..decoder..U16$u20$as$u20$image..codecs..pnm..decoder..Sample$GT$7bytelen17h346ca708b2991b5fE
libclamav.so.11:_ZN88_$LT$libc..unix..linux_like..linux..ff_constant_effect$u20$as$u20$core..clone..Clone$GT$5clone17h1c391a6a81ded1ceE
libclamav.so.11:_ZN88_$LT$libc..unix..linux_like..linux..ff_periodic_effect$u20$as$u20$core..clone..Clone$GT$5clone17h59a3cbe9dfa51fc6E
libclamav.so.11:_ZN88_$LT$libc..unix..linux_like..linux..gnu..__exit_status$u20$as$u20$core..clone..Clone$GT$5clone17h24a8336d567325c0E
libclamav.so.11:_ZN88_$LT$libc..unix..linux_like..linux..gnu..b64..msqid_ds$u20$as$u20$core..clone..Clone$GT$5clone17ha8e0bfeb17ea1b39E
libclamav.so.11:_ZN88_$LT$libc..unix..linux_like..linux..gnu..b64..semid_ds$u20$as$u20$core..clone..Clone$GT$5clone17hb634b70c77275048E
libclamav.so.11:_ZN88_$LT$libc..unix..linux_like..linux..gnu..b64..sigset_t$u20$as$u20$core..clone..Clone$GT$5clone17h4f11a499aff6f21cE
libclamav.so.11:_ZN88_$LT$libc..unix..linux_like..linux..input_keymap_entry$u20$as$u20$core..clone..Clone$GT$5clone17h9333f2d43858ccd1E
libclamav.so.11:_ZN88_$LT$libc..unix..linux_like..linux..pthread_condattr_t$u20$as$u20$core..clone..Clone$GT$5clone17h9a4c42c70d4b8b6dE
libclamav.so.11:_ZN88_$LT$rayon_core..registry..DefaultSpawn$u20$as$u20$rayon_core..registry..ThreadSpawn$GT$17__rayon_private__17hc86e468c1a9a781dE
libclamav.so.11:_ZN88_$LT$rayon_core..registry..DefaultSpawn$u20$as$u20$rayon_core..registry..ThreadSpawn$GT$5spawn17h093a482aaac5f4f1E
libclamav.so.11:_ZN88_$LT$std..env..Args$u20$as$u20$core..iter..traits..double_ended..DoubleEndedIterator$GT$9next_back17h3a96bc0d3549edf7E
libclamav.so.11:_ZN88_$LT$std..time..Instant$u20$as$u20$core..ops..arith..Add$LT$core..time..Duration$GT$$GT$3add17hf53f13b2c6075ecfE
libclamav.so.11:_ZN88_$LT$std..time..Instant$u20$as$u20$core..ops..arith..Sub$LT$core..time..Duration$GT$$GT$3sub17h7ed2597d55c0cee7E
libclamav.so.11:_ZN88_$LT$tempfile..file..TempPath$u20$as$u20$core..convert..AsRef$LT$std..path..Path$GT$$GT$6as_ref17h9b220073b13e2b65E
libclamav.so.11:_ZN88_$LT$tiff..encoder..tiff_value..Ifd8$u20$as$u20$tiff..encoder..tiff_value..TiffValue$GT$4data17hd67345ebec944fbfE
libclamav.so.11:_ZN88_$LT$tiff..encoder..tiff_value..Ifd8$u20$as$u20$tiff..encoder..tiff_value..TiffValue$GT$5count17hab85d366c61f56eeE
libclamav.so.11:_ZN89_$LT$$RF$mut$u20$$u5b$u8$u5d$$u20$as$u20$alloc..ffi..c_str..CString..new..SpecNewImpl$GT$13spec_new_impl17h5abf57ef482b18e2E
libclamav.so.11:_ZN89_$LT$exr..image..FlatSampleIterator$u20$as$u20$core..iter..traits..iterator..Iterator$GT$3nth17h34c7beefca7d677dE
libclamav.so.11:_ZN89_$LT$exr..image..FlatSampleIterator$u20$as$u20$core..iter..traits..iterator..Iterator$GT$4next17h48be2c23c3b81dd4E
libclamav.so.11:_ZN89_$LT$exr..image..FlatSampleIterator$u20$as$u20$core..iter..traits..iterator..Iterator$GT$9size_hint17h609b6b31b26d393cE
libclamav.so.11:_ZN89_$LT$gif..reader..InterlaceIterator$u20$as$u20$core..iter..traits..iterator..Iterator$GT$4next17h4d60108e4a1d8322E
libclamav.so.11:_ZN89_$LT$libc..unix..linux_like..linux..ff_condition_effect$u20$as$u20$core..clone..Clone$GT$5clone17h4d2b289211d5f257E
libclamav.so.11:_ZN89_$LT$libc..unix..linux_like..linux..pthread_mutexattr_t$u20$as$u20$core..clone..Clone$GT$5clone17h9c47fcdd7072fb99E
libclamav.so.11:_ZN89_$LT$object..pe..ImageThunkData32$u20$as$u20$object..read..pe..import..ImageThunkData$GT$10is_ordinal17hb4341f26cb48f235E
libclamav.so.11:_ZN89_$LT$object..pe..ImageThunkData32$u20$as$u20$object..read..pe..import..ImageThunkData$GT$3raw17h0e85a7bf919f1d30E
libclamav.so.11:_ZN89_$LT$object..pe..ImageThunkData32$u20$as$u20$object..read..pe..import..ImageThunkData$GT$7address17h11c061d4e9a0fb6eE
libclamav.so.11:_ZN89_$LT$object..pe..ImageThunkData32$u20$as$u20$object..read..pe..import..ImageThunkData$GT$7ordinal17hf57176b648c883c9E
libclamav.so.11:_ZN89_$LT$object..pe..ImageThunkData64$u20$as$u20$object..read..pe..import..ImageThunkData$GT$10is_ordinal17h5fc2f80605627bccE
libclamav.so.11:_ZN89_$LT$object..pe..ImageThunkData64$u20$as$u20$object..read..pe..import..ImageThunkData$GT$3raw17hc6286a15d8b0c481E
libclamav.so.11:_ZN89_$LT$object..pe..ImageThunkData64$u20$as$u20$object..read..pe..import..ImageThunkData$GT$7address17h08bc41df112b4cedE
libclamav.so.11:_ZN89_$LT$object..pe..ImageThunkData64$u20$as$u20$object..read..pe..import..ImageThunkData$GT$7ordinal17hc36b6c7290bdc9a6E
libclamav.so.11:_ZN89_$LT$std..backtrace_rs..symbolize..gimli..mmap..Mmap$u20$as$u20$core..ops..drop..Drop$GT$4drop17h272332f61b467672E
libclamav.so.11:_ZN89_$LT$std..sys..unix..os..SplitPaths$u20$as$u20$core..iter..traits..iterator..Iterator$GT$4next17h8dd47a5971d802afE
libclamav.so.11:_ZN89_$LT$std..sys..unix..os..SplitPaths$u20$as$u20$core..iter..traits..iterator..Iterator$GT$9size_hint17h71aca9f5419c3e89E
libclamav.so.11:_ZN89_$LT$std..sys..unix..process..process_common..CommandArgs$u20$as$u20$core..fmt..Debug$GT$3fmt17h81bebcbdd4c408c8E
libclamav.so.11:_ZN89_$LT$std..sys..unix..process..process_common..ProgramKind$u20$as$u20$core..fmt..Debug$GT$3fmt17hf4d3817cd037766aE
libclamav.so.11:_ZN89_$LT$std..sys..unix..process..process_inner..ExitStatus$u20$as$u20$core..fmt..Display$GT$3fmt17h45230700e9ef6ff9E
libclamav.so.11:_ZN8fastrand3Rng3f3217h7dfc6db5014cbe51E
libclamav.so.11:_ZN8fastrand3Rng3f6417h5fef3d9c0f3f19f7E
libclamav.so.11:_ZN8fastrand3f3217hd3eb5274a480b0b8E
libclamav.so.11:_ZN8fastrand3f6417hc96da45459c64827E
libclamav.so.11:_ZN8num_cpus5linux12get_num_cpus17h6ea32a9faa931488E
libclamav.so.11:_ZN8num_cpus5linux21get_num_physical_cpus17hdbe530e9856a3ebaE
libclamav.so.11:_ZN8tempfile3dir6create17h9e8ad4cd4dcce4a7E
libclamav.so.11:_ZN8tempfile3dir7TempDir3new17hc2f7380ca5343000E
libclamav.so.11:_ZN8tempfile3dir7TempDir4path17hef4e5926e1ede97bE
libclamav.so.11:_ZN8tempfile3dir7TempDir5close17h7a37dbbdb0db57f6E
libclamav.so.11:_ZN8tempfile3dir7TempDir9into_path17hd6c39b86a1d3f3dfE
libclamav.so.11:_ZN8tempfile3dir7tempdir17hb3f278eb850292a0E
libclamav.so.11:_ZN8tempfile4file12create_named17h3e1f17ea942aeddeE
libclamav.so.11:_ZN8tempfile4file13NamedTempFile10into_parts17haee89431ac33ed1aE
libclamav.so.11:_ZN8tempfile4file13NamedTempFile11as_file_mut17h60aaa056985868c3E
libclamav.so.11:_ZN8tempfile4file13NamedTempFile14into_temp_path17h7bf71c2f8d90b4beE
libclamav.so.11:_ZN8tempfile4file13NamedTempFile3new17haf25251b0422b6e6E
libclamav.so.11:_ZN8tempfile4file13NamedTempFile4keep17h34cb4108a68608acE
libclamav.so.11:_ZN8tempfile4file13NamedTempFile5close17he084e285757f0fe4E
libclamav.so.11:_ZN8tempfile4file13NamedTempFile6reopen17h94ff53017857b5beE
libclamav.so.11:_ZN8tempfile4file13NamedTempFile7as_file17hc0f82b5a81292e33E
libclamav.so.11:_ZN8tempfile4file13NamedTempFile9into_file17h530e8465870e7178E
libclamav.so.11:_ZN8tempfile4file3imp4unix6create17hb60277a9e36364fdE
libclamav.so.11:_ZN8tempfile4file3imp4unix7persist17h91b0d5d3b95b892cE
libclamav.so.11:_ZN8tempfile4file8TempPath4keep17hf6497e752d5fbce6E
libclamav.so.11:_ZN8tempfile4file8TempPath5close17h8dd5a4257f6abc8fE
libclamav.so.11:_ZN8tempfile4file8tempfile17h0c814d9d85624a8dE
libclamav.so.11:_ZN8tempfile4util7tmpname17hcdec2c197875c80eE
libclamav.so.11:_ZN8tempfile7Builder10rand_bytes17h3c3846b7163a0e1fE
libclamav.so.11:_ZN8tempfile7Builder3new17h5c870f82119913f4E
libclamav.so.11:_ZN8tempfile7Builder6append17h8142c31a5b25f371E
libclamav.so.11:_ZN8tempfile7Builder7tempdir17hcdf47cb088b9f973E
libclamav.so.11:_ZN8tempfile7Builder8tempfile17hfb56678b6254ebf5E
libclamav.so.11:_ZN90_$LT$hex..BytesToHexChars$u20$as$u20$core..iter..traits..exact_size..ExactSizeIterator$GT$3len17ha7be25ddcf828249E
libclamav.so.11:_ZN90_$LT$image..codecs..pnm..decoder..BWBit$u20$as$u20$image..codecs..pnm..decoder..Sample$GT$10from_ascii17hb467f77900c1bd3aE
libclamav.so.11:_ZN90_$LT$image..codecs..pnm..decoder..BWBit$u20$as$u20$image..codecs..pnm..decoder..Sample$GT$10from_bytes17h4be37c5d560cb013E
libclamav.so.11:_ZN90_$LT$image..codecs..pnm..decoder..BWBit$u20$as$u20$image..codecs..pnm..decoder..Sample$GT$7bytelen17h14797d8f92eaf265E
libclamav.so.11:_ZN90_$LT$image..imageops..colorops..BiLevel$u20$as$u20$image..imageops..colorops..ColorMap$GT$10has_lookup17hf37cec920abbcf33E
libclamav.so.11:_ZN90_$LT$libc..unix..linux_like..linux..gnu..statx_timestamp$u20$as$u20$core..clone..Clone$GT$5clone17ha561b025d788bcadE
libclamav.so.11:_ZN90_$LT$libc..unix..linux_like..linux..pthread_rwlockattr_t$u20$as$u20$core..clone..Clone$GT$5clone17h42956604ddbfcff6E
libclamav.so.11:_ZN90_$LT$object..read..pe..relocation..RelocationBlockIterator$u20$as$u20$core..fmt..Debug$GT$3fmt17h64c7e30793cb2bb9E
libclamav.so.11:_ZN90_$LT$std..env..ArgsOs$u20$as$u20$core..iter..traits..double_ended..DoubleEndedIterator$GT$9next_back17hd708993a302bf536E
libclamav.so.11:_ZN90_$LT$std..fs..File$u20$as$u20$std..sys_common..AsInner$LT$std..sys..unix..fs..File$GT$$GT$8as_inner17hc1d12fb20d6ad5beE
libclamav.so.11:_ZN90_$LT$std..net..socket_addr..SocketAddr$u20$as$u20$std..net..socket_addr..ToSocketAddrs$GT$15to_socket_addrs17h14f4a52b0688d5f5E
libclamav.so.11:_ZN90_$LT$std..panicking..begin_panic_handler..PanicPayload$u20$as$u20$core..panic..BoxMeUp$GT$3get17h6c5d6c9fec33608cE
libclamav.so.11:_ZN90_$LT$std..panicking..begin_panic_handler..PanicPayload$u20$as$u20$core..panic..BoxMeUp$GT$8take_box17h108a34551282f1fcE
libclamav.so.11:_ZN90_$LT$std..sys_common..net..LookupHost$u20$as$u20$core..convert..TryFrom$LT$$RF$str$GT$$GT$8try_from17h99da058e47778ac1E
libclamav.so.11:_ZN91_$LT$addr2line..LocationRangeUnitIter$u20$as$u20$core..iter..traits..iterator..Iterator$GT$4next17h0e428d3a5f112216E
libclamav.so.11:_ZN91_$LT$exr..image..recursive..NoneMore$u20$as$u20$exr..image..recursive..IntoNonRecursive$GT$18into_non_recursive17h957977105843a1dbE
libclamav.so.11:_ZN91_$LT$exr..image..recursive..NoneMore$u20$as$u20$exr..image..write..layers..LayersWriter$GT$26extract_uncompressed_block17h0c211824b5cce1c6E
libclamav.so.11:_ZN91_$LT$image..codecs..pnm..decoder..PbmBit$u20$as$u20$image..codecs..pnm..decoder..Sample$GT$10from_ascii17h57eab42d4a45728fE
libclamav.so.11:_ZN91_$LT$image..codecs..pnm..decoder..PbmBit$u20$as$u20$image..codecs..pnm..decoder..Sample$GT$10from_bytes17hca74b03ab5615e16E
libclamav.so.11:_ZN91_$LT$image..codecs..pnm..decoder..PbmBit$u20$as$u20$image..codecs..pnm..decoder..Sample$GT$7bytelen17h1b60dbbe4e70ff22E
libclamav.so.11:_ZN91_$LT$image..codecs..webp..lossless_transform..TransformType$u20$as$u20$core..fmt..Debug$GT$3fmt17hb358149cbae6ee98E
libclamav.so.11:_ZN91_$LT$jpeg_decoder..worker..immediate..ImmediateWorker$u20$as$u20$core..default..Default$GT$7default17ha0692d4b60f9bf25E
libclamav.so.11:_ZN91_$LT$libc..unix..linux_like..linux..gnu..sifields_sigchld$u20$as$u20$core..clone..Clone$GT$5clone17hd52c29dcc567aec2E
libclamav.so.11:_ZN91_$LT$object..read..pe..resource..ResourceDirectoryEntryData$u20$as$u20$core..fmt..Debug$GT$3fmt17hef3962b58031c241E
libclamav.so.11:_ZN91_$LT$std..backtrace_rs..symbolize..gimli..mmap..Mmap$u20$as$u20$core..ops..deref..Deref$GT$5deref17hb331fdf64bb600b8E
libclamav.so.11:_ZN91_$LT$std..panicking..rust_panic_without_hook..RewrapBox$u20$as$u20$core..panic..BoxMeUp$GT$3get17h4a789ea0016cd51dE
libclamav.so.11:_ZN91_$LT$std..panicking..rust_panic_without_hook..RewrapBox$u20$as$u20$core..panic..BoxMeUp$GT$8take_box17hc98d8eca5b07f165E
libclamav.so.11:_ZN91_$LT$std..process..Stdio$u20$as$u20$core..convert..From$LT$std..process..ChildStdin$GT$$GT$4from17hf45deab1c29b1edfE
libclamav.so.11:_ZN91_$LT$std..sys_common..backtrace.._print..DisplayBacktrace$u20$as$u20$core..fmt..Display$GT$3fmt17h985d87b58cd9882eE
libclamav.so.11:_ZN91_$LT$std..sys_common..net..LookupHost$u20$as$u20$core..iter..traits..iterator..Iterator$GT$4next17hbca76018fe07c493E
libclamav.so.11:_ZN91_$LT$std..sys_common..wstr..WStrUnits$u20$as$u20$core..iter..traits..iterator..Iterator$GT$4next17h09566416ce3e9276E
libclamav.so.11:_ZN91_$LT$std..time..SystemTime$u20$as$u20$core..ops..arith..Add$LT$core..time..Duration$GT$$GT$3add17hb4ee06a66ab35e1aE
libclamav.so.11:_ZN91_$LT$std..time..SystemTime$u20$as$u20$core..ops..arith..Sub$LT$core..time..Duration$GT$$GT$3sub17h0a90b1a507893164E
libclamav.so.11:_ZN91_$LT$tiff..encoder..compression..uncompressed..Uncompressed$u20$as$u20$core..fmt..Debug$GT$3fmt17hb961c2ab26e7d9e9E
libclamav.so.11:_ZN91_$LT$tiff..error..TiffError$u20$as$u20$core..convert..From$LT$std..io..error..Error$GT$$GT$4from17h96ed3f162286edbeE
libclamav.so.11:_ZN92_$LT$$LP$alloc..string..String$C$u16$RP$$u20$as$u20$std..net..socket_addr..ToSocketAddrs$GT$15to_socket_addrs17hb3c8b75a7f2e5715E
libclamav.so.11:_ZN92_$LT$alloc..borrow..Cow$LT$str$GT$$u20$as$u20$core..ops..arith..AddAssign$LT$$RF$str$GT$$GT$10add_assign17hfb4d891fa5f1f048E
libclamav.so.11:_ZN92_$LT$exr..block..samples..Sample$u20$as$u20$exr..image..validate_results..ValidateResult$GT$15validate_result17h56915afa1ef8895eE
libclamav.so.11:_ZN92_$LT$jpeg_decoder..upsampler..UpsamplerH1V1$u20$as$u20$jpeg_decoder..upsampler..Upsample$GT$12upsample_row17h161784b8792240aeE
libclamav.so.11:_ZN92_$LT$jpeg_decoder..upsampler..UpsamplerH1V2$u20$as$u20$jpeg_decoder..upsampler..Upsample$GT$12upsample_row17hcbd5ecfdd9a2e1bcE
libclamav.so.11:_ZN92_$LT$jpeg_decoder..upsampler..UpsamplerH2V1$u20$as$u20$jpeg_decoder..upsampler..Upsample$GT$12upsample_row17hc4299fbef7c6810eE
libclamav.so.11:_ZN92_$LT$jpeg_decoder..upsampler..UpsamplerH2V2$u20$as$u20$jpeg_decoder..upsampler..Upsample$GT$12upsample_row17h6e2090fd30c38daeE
libclamav.so.11:_ZN92_$LT$libc..unix..linux_like..linux..__c_anonymous_ifr_ifru$u20$as$u20$core..clone..Clone$GT$5clone17h3fb8f8120c4310fbE
libclamav.so.11:_ZN92_$LT$libc..unix..linux_like..linux..__c_anonymous_ifru_map$u20$as$u20$core..clone..Clone$GT$5clone17h6cf9689b42fdcc87E
libclamav.so.11:_ZN92_$LT$libc..unix..linux_like..linux..gnu..b64..x86_64..stat$u20$as$u20$core..clone..Clone$GT$5clone17h19d86f9fe692c34cE
libclamav.so.11:_ZN92_$LT$libc..unix..linux_like..linux..gnu..b64..x86_64..user$u20$as$u20$core..clone..Clone$GT$5clone17hc58f3829f5ea1e73E
libclamav.so.11:_ZN92_$LT$std..fs..File$u20$as$u20$std..sys_common..FromInner$LT$std..sys..unix..fs..File$GT$$GT$10from_inner17h0538ff5d20edab0bE
libclamav.so.11:_ZN92_$LT$std..fs..File$u20$as$u20$std..sys_common..IntoInner$LT$std..sys..unix..fs..File$GT$$GT$10into_inner17h227a4bcc985cc350E
libclamav.so.11:_ZN92_$LT$std..net..socket_addr..SocketAddrV4$u20$as$u20$std..net..socket_addr..ToSocketAddrs$GT$15to_socket_addrs17h95e258996b75a039E
libclamav.so.11:_ZN92_$LT$std..net..socket_addr..SocketAddrV6$u20$as$u20$std..net..socket_addr..ToSocketAddrs$GT$15to_socket_addrs17h7dc1a392d0468826E
libclamav.so.11:_ZN92_$LT$std..process..Stdio$u20$as$u20$core..convert..From$LT$std..process..ChildStderr$GT$$GT$4from17h3d98a4ef15017767E
libclamav.so.11:_ZN92_$LT$std..process..Stdio$u20$as$u20$core..convert..From$LT$std..process..ChildStdout$GT$$GT$4from17heae78f22ab11a89bE
libclamav.so.11:_ZN92_$LT$std..sys..unix..os_str..Buf$u20$as$u20$std..sys_common..AsInner$LT$$u5b$u8$u5d$$GT$$GT$8as_inner17h3410a0aeb1b34ffcE
libclamav.so.11:_ZN92_$LT$std..sys..unix..process..process_inner..ExitStatusError$u20$as$u20$core..fmt..Debug$GT$3fmt17hced74e26e6b7f303E
libclamav.so.11:_ZN92_$LT$std..sys_common..wtf8..Wtf8$u20$as$u20$std..sys_common..AsInner$LT$$u5b$u8$u5d$$GT$$GT$8as_inner17hf133ddce69b0986eE
libclamav.so.11:_ZN92_$LT$tiff..encoder..compression..deflate..DeflateLevel$u20$as$u20$core..default..Default$GT$7default17h4205244aab9787d4E
libclamav.so.11:_ZN92_$LT$tiff..encoder..tiff_value..Rational$u20$as$u20$tiff..encoder..tiff_value..TiffValue$GT$4data17h84e88e31a367a7e7E
libclamav.so.11:_ZN92_$LT$tiff..encoder..tiff_value..Rational$u20$as$u20$tiff..encoder..tiff_value..TiffValue$GT$5count17h8ac4793322675ae0E
libclamav.so.11:_ZN92_$LT$tiff..error..TiffError$u20$as$u20$core..convert..From$LT$weezl..error..LzwError$GT$$GT$4from17h094f4afb85a6cdb1E
libclamav.so.11:_ZN93_$LT$alloc..collections..btree..mem..replace..PanicGuard$u20$as$u20$core..ops..drop..Drop$GT$4drop17h6d4101c3bdbbff49E
libclamav.so.11:_ZN93_$LT$exr..image..recursive..NoneMore$u20$as$u20$exr..image..write..layers..WritableLayers$GT$13create_writer17hb3d34f11b37c1547E
libclamav.so.11:_ZN93_$LT$exr..image..recursive..NoneMore$u20$as$u20$exr..image..write..layers..WritableLayers$GT$13infer_headers17hf9f533734f307841E
libclamav.so.11:_ZN93_$LT$image..error..ImageError$u20$as$u20$core..convert..From$LT$std..io..error..Error$GT$$GT$4from17he0e91920988b0b5fE
libclamav.so.11:_ZN93_$LT$libc..unix..linux_like..linux..arch..generic..termios2$u20$as$u20$core..clone..Clone$GT$5clone17hc742d312ee4ba825E
libclamav.so.11:_ZN93_$LT$libc..unix..linux_like..linux..fanotify_event_metadata$u20$as$u20$core..clone..Clone$GT$5clone17he883caec8b50046dE
libclamav.so.11:_ZN93_$LT$libc..unix..linux_like..linux..gnu..b64..x86_64..flock$u20$as$u20$core..clone..Clone$GT$5clone17hccc99d941044ae5cE
libclamav.so.11:_ZN93_$LT$std..panicking..begin_panic_handler..StrPanicPayload$u20$as$u20$core..panic..BoxMeUp$GT$3get17h5602209e6a8f2e1bE
libclamav.so.11:_ZN93_$LT$std..panicking..begin_panic_handler..StrPanicPayload$u20$as$u20$core..panic..BoxMeUp$GT$8take_box17ha7395e9e1834b591E
libclamav.so.11:_ZN93_$LT$std..sys..unix..fs..FilePermissions$u20$as$u20$std..sys_common..FromInner$LT$u32$GT$$GT$10from_inner17hf648fc8195256814E
libclamav.so.11:_ZN93_$LT$tiff..encoder..tiff_value..SRational$u20$as$u20$tiff..encoder..tiff_value..TiffValue$GT$4data17h02d5817ff24f4f4eE
libclamav.so.11:_ZN93_$LT$tiff..encoder..tiff_value..SRational$u20$as$u20$tiff..encoder..tiff_value..TiffValue$GT$5count17h6d36f3d5d36ad789E
libclamav.so.11:_ZN93_$LT$tiff..error..TiffError$u20$as$u20$core..convert..From$LT$tiff..error..UsageError$GT$$GT$4from17h127ef8e688df62ceE
libclamav.so.11:_ZN94_$LT$libc..unix..linux_like..linux..gnu..b64..x86_64..stat64$u20$as$u20$core..clone..Clone$GT$5clone17h2713bb98f41689d2E
libclamav.so.11:_ZN94_$LT$libc..unix..linux_like..linux..gnu..b64..x86_64..statfs$u20$as$u20$core..clone..Clone$GT$5clone17h46bd1ae0c58295c1E
libclamav.so.11:_ZN94_$LT$libc..unix..linux_like..linux..gnu..ptrace_syscall_info$u20$as$u20$core..clone..Clone$GT$5clone17hc04931f9fd5a3d57E
libclamav.so.11:_ZN94_$LT$libc..unix..linux_like..linux..non_exhaustive..open_how$u20$as$u20$core..clone..Clone$GT$5clone17h6b6fd47a1fdbed1bE
libclamav.so.11:_ZN94_$LT$std..time..Instant$u20$as$u20$core..ops..arith..AddAssign$LT$core..time..Duration$GT$$GT$10add_assign17h2a516ede16fec023E
libclamav.so.11:_ZN94_$LT$std..time..Instant$u20$as$u20$core..ops..arith..SubAssign$LT$core..time..Duration$GT$$GT$10sub_assign17h7527272f71c7bbacE
libclamav.so.11:_ZN95_$LT$core..char..EscapeDefault$u20$as$u20$core..iter..traits..exact_size..ExactSizeIterator$GT$3len17h9e05944ef64da3d8E
libclamav.so.11:_ZN95_$LT$exr..meta..attribute..Text$u20$as$u20$core..convert..Into$LT$alloc..string..String$GT$$GT$4into17hf6b4c750ad611c3cE
libclamav.so.11:_ZN95_$LT$gif..common..AnyExtension$u20$as$u20$core..convert..From$LT$gif..common..Extension$GT$$GT$4from17h660899e14d2a8e2cE
libclamav.so.11:_ZN95_$LT$jpeg_decoder..error..Error$u20$as$u20$core..convert..From$LT$std..io..error..Error$GT$$GT$4from17h94f90c1988cbbef9E
libclamav.so.11:_ZN95_$LT$jpeg_decoder..upsampler..UpsamplerGeneric$u20$as$u20$jpeg_decoder..upsampler..Upsample$GT$12upsample_row17h3814309b9a8d8786E
libclamav.so.11:_ZN95_$LT$libc..unix..linux_like..linux..gnu..b64..x86_64..flock64$u20$as$u20$core..clone..Clone$GT$5clone17h112b89fbd82d8904E
libclamav.so.11:_ZN95_$LT$libc..unix..linux_like..linux..gnu..b64..x86_64..stack_t$u20$as$u20$core..clone..Clone$GT$5clone17hc58b7d6fa5e19f0aE
libclamav.so.11:_ZN95_$LT$std..path..Components$u20$as$u20$core..iter..traits..double_ended..DoubleEndedIterator$GT$9next_back17h77193ca021e4fd6eE
libclamav.so.11:_ZN95_$LT$std..process..CommandArgs$u20$as$u20$core..iter..traits..exact_size..ExactSizeIterator$GT$3len17h3d5aa324f11f8dbdE
libclamav.so.11:_ZN95_$LT$std..process..CommandArgs$u20$as$u20$core..iter..traits..exact_size..ExactSizeIterator$GT$8is_empty17h39ea01e12d0cbe6dE
libclamav.so.11:_ZN96_$LT$$LP$std..net..ip_addr..IpAddr$C$u16$RP$$u20$as$u20$std..net..socket_addr..ToSocketAddrs$GT$15to_socket_addrs17h2f8e79cb95433f94E
libclamav.so.11:_ZN96_$LT$exr..image..recursive..NoneMore$u20$as$u20$exr..image..validate_results..ValidateResult$GT$15validate_result17h233bc6ce13394a7fE
libclamav.so.11:_ZN96_$LT$gif..encoder..EncodingError$u20$as$u20$core..convert..From$LT$std..io..error..Error$GT$$GT$4from17h6de22ee42d2065eeE
libclamav.so.11:_ZN96_$LT$image..error..ImageFormatHint$u20$as$u20$core..convert..From$LT$$RF$std..path..Path$GT$$GT$4from17h6413cb74fc633d2bE
libclamav.so.11:_ZN96_$LT$jpeg_decoder..worker..multithreaded..MpscWorker$u20$as$u20$jpeg_decoder..worker..Worker$GT$10append_row17h6d4d0859e2e840b8E
libclamav.so.11:_ZN96_$LT$jpeg_decoder..worker..multithreaded..MpscWorker$u20$as$u20$jpeg_decoder..worker..Worker$GT$10get_result17he506870a0100b2bcE
libclamav.so.11:_ZN96_$LT$jpeg_decoder..worker..multithreaded..MpscWorker$u20$as$u20$jpeg_decoder..worker..Worker$GT$5start17h7adb140718aa007cE
libclamav.so.11:_ZN96_$LT$libc..unix..linux_like..linux..gnu..b64..x86_64..ipc_perm$u20$as$u20$core..clone..Clone$GT$5clone17he7f0e4323bf27bf4E
libclamav.so.11:_ZN96_$LT$libc..unix..linux_like..linux..gnu..b64..x86_64..shmid_ds$u20$as$u20$core..clone..Clone$GT$5clone17hef5ae284e68c50c1E
libclamav.so.11:_ZN96_$LT$libc..unix..linux_like..linux..gnu..b64..x86_64..statfs64$u20$as$u20$core..clone..Clone$GT$5clone17h9c669e72048596f3E
libclamav.so.11:_ZN96_$LT$libc..unix..linux_like..linux..posix_spawn_file_actions_t$u20$as$u20$core..clone..Clone$GT$5clone17hf79d91f53e69c619E
libclamav.so.11:_ZN96_$LT$png..encoder..EncodingError$u20$as$u20$core..convert..From$LT$std..io..error..Error$GT$$GT$4from17h78b7d32ce564b5f9E
libclamav.so.11:_ZN96_$LT$std..io..error..Error$u20$as$u20$core..convert..From$LT$alloc..ffi..c_str..NulError$GT$$GT$4from17h416ef1513e4b29dfE
libclamav.so.11:_ZN96_$LT$std..os..unix..net..stream..UnixStream$u20$as$u20$std..sys..unix..kernel_copy..CopyRead$GT$10properties17h8c50a2e15784e5beE
libclamav.so.11:_ZN96_$LT$std..sys..unix..args..Args$u20$as$u20$core..iter..traits..exact_size..ExactSizeIterator$GT$3len17h7262dc849dab27a5E
libclamav.so.11:_ZN96_$LT$std..sys_common..process..CommandEnvs$u20$as$u20$core..iter..traits..iterator..Iterator$GT$4next17h7a77a8355ff8503bE
libclamav.so.11:_ZN96_$LT$std..sys_common..process..CommandEnvs$u20$as$u20$core..iter..traits..iterator..Iterator$GT$9size_hint17hf50688918267eb7eE
libclamav.so.11:_ZN96_$LT$tempfile..file..TempPath$u20$as$u20$core..convert..AsRef$LT$std..ffi..os_str..OsStr$GT$$GT$6as_ref17h27b4f6da9318a16bE
libclamav.so.11:_ZN96_$LT$tiff..encoder..compression..lzw..Lzw$u20$as$u20$tiff..encoder..compression..Compression$GT$13get_algorithm17h134480fd6e17fa53E
libclamav.so.11:_ZN96_$LT$tiff..error..TiffError$u20$as$u20$core..convert..From$LT$jpeg_decoder..error..Error$GT$$GT$4from17h72e87b124a519eddE
libclamav.so.11:_ZN97_$LT$$u5b$tiff..encoder..tiff_value..Ifd$u5d$$u20$as$u20$tiff..encoder..tiff_value..TiffValue$GT$4data17hcb9a0bba811522b5E
libclamav.so.11:_ZN97_$LT$$u5b$tiff..encoder..tiff_value..Ifd$u5d$$u20$as$u20$tiff..encoder..tiff_value..TiffValue$GT$5count17hb343b4a6fc842994E
libclamav.so.11:_ZN97_$LT$alloc..string..String$u20$as$u20$core..convert..From$LT$alloc..boxed..Box$LT$str$GT$$GT$$GT$4from17h6f002daed06a98b9E
libclamav.so.11:_ZN97_$LT$core..char..ToLowercase$u20$as$u20$core..iter..traits..double_ended..DoubleEndedIterator$GT$9next_back17hfbe80da94de9f56fE
libclamav.so.11:_ZN97_$LT$core..char..ToUppercase$u20$as$u20$core..iter..traits..double_ended..DoubleEndedIterator$GT$9next_back17h842390cd36ba22adE
libclamav.so.11:_ZN97_$LT$jpeg_decoder..worker..immediate..ImmediateWorker$u20$as$u20$jpeg_decoder..worker..Worker$GT$10append_row17he397ae712124ecf2E
libclamav.so.11:_ZN97_$LT$jpeg_decoder..worker..immediate..ImmediateWorker$u20$as$u20$jpeg_decoder..worker..Worker$GT$10get_result17hc8eb0d0e91de3b45E
libclamav.so.11:_ZN97_$LT$jpeg_decoder..worker..immediate..ImmediateWorker$u20$as$u20$jpeg_decoder..worker..Worker$GT$5start17hbb0ba3911beed9adE
libclamav.so.11:_ZN97_$LT$libc..unix..linux_like..linux..gnu..b64..x86_64..sigaction$u20$as$u20$core..clone..Clone$GT$5clone17h43ebe7c41620eb91E
libclamav.so.11:_ZN97_$LT$libc..unix..linux_like..linux..gnu..b64..x86_64..siginfo_t$u20$as$u20$core..clone..Clone$GT$5clone17h385fd359de105434E
libclamav.so.11:_ZN97_$LT$libc..unix..linux_like..linux..gnu..b64..x86_64..statvfs64$u20$as$u20$core..clone..Clone$GT$5clone17h0b894f685135024cE
libclamav.so.11:_ZN97_$LT$rayon..iter..noop..NoopReducer$u20$as$u20$rayon..iter..plumbing..Reducer$LT$$LP$$RP$$GT$$GT$6reduce17h36bc7f46a8540fd5E
libclamav.so.11:_ZN97_$LT$std..os..unix..net..listener..Incoming$u20$as$u20$core..iter..traits..iterator..Iterator$GT$4next17h829b3fb9b48bc062E
libclamav.so.11:_ZN97_$LT$std..os..unix..net..listener..Incoming$u20$as$u20$core..iter..traits..iterator..Iterator$GT$9size_hint17ha6eef83885f9f378E
libclamav.so.11:_ZN97_$LT$std..os..unix..net..stream..UnixStream$u20$as$u20$std..sys..unix..kernel_copy..CopyWrite$GT$10properties17h80e6fe159365483fE
libclamav.so.11:_ZN97_$LT$std..time..SystemTime$u20$as$u20$core..ops..arith..AddAssign$LT$core..time..Duration$GT$$GT$10add_assign17h9acde4cb87844f60E
libclamav.so.11:_ZN97_$LT$std..time..SystemTime$u20$as$u20$core..ops..arith..SubAssign$LT$core..time..Duration$GT$$GT$10sub_assign17hfacc039509737ae9E
libclamav.so.11:_ZN97_$LT$tiff..error..TiffError$u20$as$u20$core..convert..From$LT$core..str..error..Utf8Error$GT$$GT$4from17h36c79bb03e177e8aE
libclamav.so.11:_ZN98_$LT$$LP$std..net..ip_addr..Ipv4Addr$C$u16$RP$$u20$as$u20$std..net..socket_addr..ToSocketAddrs$GT$15to_socket_addrs17h6f12f49374966d35E
libclamav.so.11:_ZN98_$LT$$LP$std..net..ip_addr..Ipv6Addr$C$u16$RP$$u20$as$u20$std..net..socket_addr..ToSocketAddrs$GT$15to_socket_addrs17h64dc2be7980a13aaE
libclamav.so.11:_ZN98_$LT$$u5b$tiff..encoder..tiff_value..Ifd8$u5d$$u20$as$u20$tiff..encoder..tiff_value..TiffValue$GT$4data17h18faae43034ebac6E
libclamav.so.11:_ZN98_$LT$$u5b$tiff..encoder..tiff_value..Ifd8$u5d$$u20$as$u20$tiff..encoder..tiff_value..TiffValue$GT$5count17h60c7867da6277c9aE
libclamav.so.11:_ZN98_$LT$alloc..string..String$u20$as$u20$core..convert..From$LT$alloc..borrow..Cow$LT$str$GT$$GT$$GT$4from17h5118cab9c56b3b47E
libclamav.so.11:_ZN98_$LT$exr..error..Error$u20$as$u20$core..convert..From$LT$core..num..error..TryFromIntError$GT$$GT$4from17ha178d11164197c79E
libclamav.so.11:_ZN98_$LT$libc..unix..linux_like..linux..gnu..b64..x86_64..mcontext_t$u20$as$u20$core..clone..Clone$GT$5clone17h4d68d992bb8a2629E
libclamav.so.11:_ZN98_$LT$libc..unix..linux_like..linux..gnu..b64..x86_64..ucontext_t$u20$as$u20$core..clone..Clone$GT$5clone17h75cac34c959ca7c3E
libclamav.so.11:_ZN98_$LT$libc..unix..linux_like..linux..gnu..ptrace_peeksiginfo_args$u20$as$u20$core..clone..Clone$GT$5clone17h518f94f185b74d2aE
libclamav.so.11:_ZN98_$LT$std..fs..DirEntry$u20$as$u20$std..sys_common..AsInner$LT$std..sys..unix..fs..DirEntry$GT$$GT$8as_inner17h92a68d8fc1458bbcE
libclamav.so.11:_ZN98_$LT$std..fs..FileType$u20$as$u20$std..sys_common..AsInner$LT$std..sys..unix..fs..FileType$GT$$GT$8as_inner17ha6665f902a8613faE
libclamav.so.11:_ZN98_$LT$std..fs..Metadata$u20$as$u20$std..sys_common..AsInner$LT$std..sys..unix..fs..FileAttr$GT$$GT$8as_inner17ha0b791955714bc0bE
libclamav.so.11:_ZN98_$LT$std..os..unix..net..ancillary..Messages$u20$as$u20$core..iter..traits..iterator..Iterator$GT$4next17h53ee553d4cce1cf1E
libclamav.so.11:_ZN98_$LT$std..sys..unix..time..Timespec$u20$as$u20$core..convert..From$LT$libc..unix..timespec$GT$$GT$4from17h5f0716f471d1d3faE
libclamav.so.11:_ZN98_$LT$tiff..error..TiffError$u20$as$u20$core..convert..From$LT$alloc..string..FromUtf8Error$GT$$GT$4from17heec6e43d5179adccE
libclamav.so.11:_ZN98_$LT$tiff..error..TiffError$u20$as$u20$core..convert..From$LT$tiff..error..TiffFormatError$GT$$GT$4from17hc8d89e36f247a865E
libclamav.so.11:_ZN98_$LT$weezl..encode..CompressedKey$u20$as$u20$core..convert..From$LT$weezl..encode..FullKey$GT$$GT$4from17he6369a1fb402cbe3E
libclamav.so.11:_ZN98_$LT$weezl..encode..FullKey$u20$as$u20$core..convert..From$LT$weezl..encode..CompressedKey$GT$$GT$4from17h4b68676a8fb706abE
libclamav.so.11:_ZN99_$LT$image..codecs..hdr..encoder..RunIterator$u20$as$u20$core..iter..traits..iterator..Iterator$GT$4next17h5a813e09539cc588E
libclamav.so.11:_ZN99_$LT$image..codecs..pnm..header..PnmHeader..write..TupltypeWriter$u20$as$u20$core..fmt..Display$GT$3fmt17h272a3a8d3deaad11E
libclamav.so.11:_ZN99_$LT$image..codecs..webp..lossless_transform..ColorTransformElement$u20$as$u20$core..fmt..Debug$GT$3fmt17h4aece97b7b9d5643E
libclamav.so.11:_ZN99_$LT$libc..unix..linux_like..linux..__c_anonymous_sockaddr_can_tp$u20$as$u20$core..clone..Clone$GT$5clone17h56b36fbfdc0aa5ecE
libclamav.so.11:_ZN99_$LT$std..os..unix..net..ancillary..ScmRights$u20$as$u20$core..iter..traits..iterator..Iterator$GT$4next17hebf455eee98f05baE
libclamav.so.11:_ZN99_$LT$std..sys..unix..process..process_common..ExitCode$u20$as$u20$core..convert..From$LT$u8$GT$$GT$4from17h283764688aa5c322E
libclamav.so.11:_ZN99_$LT$tiff..error..TiffError$u20$as$u20$core..convert..From$LT$tiff..error..JpegDecoderError$GT$$GT$4from17he56e566c24a5ff3cE
libclamav.so.11:_ZN9addr2line13demangle_auto17ha32f4fb512bf3c32E
libclamav.so.11:_ZN9addr2line8demangle17h5aa2fd363de4c6caE
libclamav.so.11:_ZN9addr2line9path_push17h4a3f1c25a91a2c7cE
libclamav.so.11:_ZN9crc32fast4hash17h9c98166e8ac12133E
libclamav.so.11:_ZN9crc32fast6Hasher16new_with_initial17h1bcc61a068040b87E
libclamav.so.11:_ZN9crc32fast6Hasher20new_with_initial_len17h5097bd85740dc1c9E
libclamav.so.11:_ZN9crc32fast6Hasher21internal_new_baseline17h8a135d98d4736811E
libclamav.so.11:_ZN9crc32fast6Hasher24internal_new_specialized17hf3c59cc278a7f92fE
libclamav.so.11:_ZN9crc32fast6Hasher3new17hd37d024888f3988eE
libclamav.so.11:_ZN9crc32fast6Hasher5reset17h2a78faf0925b064dE
libclamav.so.11:_ZN9crc32fast6Hasher6update17hf026db6a829986b6E
libclamav.so.11:_ZN9crc32fast6Hasher7combine17h82d84e119180fb71E
libclamav.so.11:_ZN9crc32fast6Hasher8finalize17h2141df087d08725aE
libclamav.so.11:_ZN9hashbrown3raw11Fallibility17capacity_overflow17h0517e62011deceeeE
libclamav.so.11:_ZN9hashbrown3raw11Fallibility9alloc_err17h75bedd3e84a026a8E
libclamav.so.11:__cli_strcasestr
libclamav.so.11:__cli_strndup
libclamav.so.11:__cli_strnlen
libclamav.so.11:__cli_strnstr
libclamav.so.11:__lzma_wrap_alloc
libclamav.so.11:__lzma_wrap_free
libclamav.so.11:__rdl_oom
libclamav.so.11:__rust_alloc
libclamav.so.11:__rust_alloc_error_handler
libclamav.so.11:__rust_alloc_zeroed
libclamav.so.11:__rust_dealloc
libclamav.so.11:__rust_drop_panic
libclamav.so.11:__rust_foreign_exception
libclamav.so.11:__rust_panic_cleanup
libclamav.so.11:__rust_realloc
libclamav.so.11:__rust_start_panic
libclamav.so.11:__xz_wrap_alloc
libclamav.so.11:__xz_wrap_free
libclamav.so.11:_yr_arena_make_relocatable
libclamav.so.11:_yr_arena_new_page
libclamav.so.11:_yr_arena_page_for_address
libclamav.so.11:_yr_compiler_pop_file
libclamav.so.11:_yr_compiler_pop_file_name
libclamav.so.11:_yr_compiler_push_file
libclamav.so.11:_yr_compiler_push_file_name
libclamav.so.11:_yr_parser_write_string
libclamav.so.11:adc_decompress
libclamav.so.11:adc_decompressEnd
libclamav.so.11:adc_decompressInit
libclamav.so.11:allow_list_done
libclamav.so.11:allow_list_match
libclamav.so.11:arc4_apply
libclamav.so.11:arc4_init
libclamav.so.11:asn1_check_mscat
libclamav.so.11:asn1_load_mscat
libclamav.so.11:base64Flush
libclamav.so.11:binhexBegin
libclamav.so.11:blobAddData
libclamav.so.11:blobArrayDestroy
libclamav.so.11:blobClose
libclamav.so.11:blobCreate
libclamav.so.11:blobDestroy
libclamav.so.11:blobGetData
libclamav.so.11:blobGetDataSize
libclamav.so.11:blobGrow
libclamav.so.11:blobSetFilename
libclamav.so.11:blobToMem
libclamav.so.11:blobcmp
libclamav.so.11:bounceBegin
libclamav.so.11:bytecode_init
libclamav.so.11:cdn_ctn_is_valid
libclamav.so.11:cdn_eft_is_valid
libclamav.so.11:cl_ASN1_GetTimeT
libclamav.so.11:cl_always_gen_section_hash
libclamav.so.11:cl_base64_decode
libclamav.so.11:cl_base64_encode
libclamav.so.11:cl_cleanup_crypto
libclamav.so.11:cl_countsigs
libclamav.so.11:cl_cvdfree
libclamav.so.11:cl_cvdhead
libclamav.so.11:cl_cvdparse
libclamav.so.11:cl_cvdunpack
libclamav.so.11:cl_cvdverify
libclamav.so.11:cl_debug
libclamav.so.11:cl_engine_addref
libclamav.so.11:cl_engine_compile
libclamav.so.11:cl_engine_free
libclamav.so.11:cl_engine_get_num
libclamav.so.11:cl_engine_get_str
libclamav.so.11:cl_engine_new
libclamav.so.11:cl_engine_set_clcb_engine_compile_progress
libclamav.so.11:cl_engine_set_clcb_engine_free_progress
libclamav.so.11:cl_engine_set_clcb_file_inspection
libclamav.so.11:cl_engine_set_clcb_file_props
libclamav.so.11:cl_engine_set_clcb_hash
libclamav.so.11:cl_engine_set_clcb_meta
libclamav.so.11:cl_engine_set_clcb_post_scan
libclamav.so.11:cl_engine_set_clcb_pre_cache
libclamav.so.11:cl_engine_set_clcb_pre_scan
libclamav.so.11:cl_engine_set_clcb_sigload
libclamav.so.11:cl_engine_set_clcb_sigload_progress
libclamav.so.11:cl_engine_set_clcb_stats_add_sample
libclamav.so.11:cl_engine_set_clcb_stats_decrement_count
libclamav.so.11:cl_engine_set_clcb_stats_flush
libclamav.so.11:cl_engine_set_clcb_stats_get_hostid
libclamav.so.11:cl_engine_set_clcb_stats_get_num
libclamav.so.11:cl_engine_set_clcb_stats_get_size
libclamav.so.11:cl_engine_set_clcb_stats_remove_sample
libclamav.so.11:cl_engine_set_clcb_stats_submit
libclamav.so.11:cl_engine_set_clcb_virus_found
libclamav.so.11:cl_engine_set_num
libclamav.so.11:cl_engine_set_stats_set_cbdata
libclamav.so.11:cl_engine_set_str
libclamav.so.11:cl_engine_settings_apply
libclamav.so.11:cl_engine_settings_copy
libclamav.so.11:cl_engine_settings_free
libclamav.so.11:cl_engine_stats_enable
libclamav.so.11:cl_finish_hash
libclamav.so.11:cl_fmap_close
libclamav.so.11:cl_fmap_open_handle
libclamav.so.11:cl_fmap_open_memory
libclamav.so.11:cl_get_pkey_file
libclamav.so.11:cl_get_x509_from_mem
libclamav.so.11:cl_hash_data
libclamav.so.11:cl_hash_destroy
libclamav.so.11:cl_hash_file_fd
libclamav.so.11:cl_hash_file_fd_ctx
libclamav.so.11:cl_hash_file_fp
libclamav.so.11:cl_hash_init
libclamav.so.11:cl_init
libclamav.so.11:cl_initialize_crypto
libclamav.so.11:cl_load
libclamav.so.11:cl_load_cert
libclamav.so.11:cl_load_crl
libclamav.so.11:cl_retdbdir
libclamav.so.11:cl_retflevel
libclamav.so.11:cl_retver
libclamav.so.11:cl_scandesc
libclamav.so.11:cl_scandesc_callback
libclamav.so.11:cl_scanfile
libclamav.so.11:cl_scanfile_callback
libclamav.so.11:cl_scanmap_callback
libclamav.so.11:cl_set_clcb_msg
libclamav.so.11:cl_sha1
libclamav.so.11:cl_sha256
libclamav.so.11:cl_sha384
libclamav.so.11:cl_sha512
libclamav.so.11:cl_sign_data
libclamav.so.11:cl_sign_data_keyfile
libclamav.so.11:cl_sign_file_fd
libclamav.so.11:cl_sign_file_fp
libclamav.so.11:cl_statchkdir
libclamav.so.11:cl_statfree
libclamav.so.11:cl_statinidir
libclamav.so.11:cl_strerror
libclamav.so.11:cl_update_hash
libclamav.so.11:cl_validate_certificate_chain
libclamav.so.11:cl_validate_certificate_chain_ts_dir
libclamav.so.11:cl_verify_signature
libclamav.so.11:cl_verify_signature_fd
libclamav.so.11:cl_verify_signature_fd_x509
libclamav.so.11:cl_verify_signature_fd_x509_keyfile
libclamav.so.11:cl_verify_signature_hash
libclamav.so.11:cl_verify_signature_hash_x509
libclamav.so.11:cl_verify_signature_hash_x509_keyfile
libclamav.so.11:cl_verify_signature_x509
libclamav.so.11:cl_verify_signature_x509_keyfile
libclamav.so.11:clamav_stats_add_sample
libclamav.so.11:clamav_stats_decrement_count
libclamav.so.11:clamav_stats_flush
libclamav.so.11:clamav_stats_get_hostid
libclamav.so.11:clamav_stats_get_num
libclamav.so.11:clamav_stats_get_size
libclamav.so.11:clamav_stats_remove_sample
libclamav.so.11:clamav_stats_submit
libclamav.so.11:clean_cache_add
libclamav.so.11:clean_cache_check
libclamav.so.11:clean_cache_destroy
libclamav.so.11:clean_cache_init
libclamav.so.11:clean_cache_remove
libclamav.so.11:cli_7unz
libclamav.so.11:cli_LzmaDecode
libclamav.so.11:cli_LzmaInit
libclamav.so.11:cli_LzmaShutdown
libclamav.so.11:cli_XzDecode
libclamav.so.11:cli_XzInit
libclamav.so.11:cli_XzShutdown
libclamav.so.11:cli_ac_addpatt
libclamav.so.11:cli_ac_addsig
libclamav.so.11:cli_ac_buildtrie
libclamav.so.11:cli_ac_caloff
libclamav.so.11:cli_ac_chklsig
libclamav.so.11:cli_ac_chkmacro
libclamav.so.11:cli_ac_free
libclamav.so.11:cli_ac_freedata
libclamav.so.11:cli_ac_init
libclamav.so.11:cli_ac_initdata
libclamav.so.11:cli_ac_scanbuff
libclamav.so.11:cli_add_content_match_pattern
libclamav.so.11:cli_append_potentially_unwanted
libclamav.so.11:cli_append_potentially_unwanted_if_heur_exceedsmax
libclamav.so.11:cli_append_virus
libclamav.so.11:cli_basename
libclamav.so.11:cli_bcapi_atoi
libclamav.so.11:cli_bcapi_buffer_pipe_done
libclamav.so.11:cli_bcapi_buffer_pipe_new
libclamav.so.11:cli_bcapi_buffer_pipe_new_fromfile
libclamav.so.11:cli_bcapi_buffer_pipe_read_avail
libclamav.so.11:cli_bcapi_buffer_pipe_read_get
libclamav.so.11:cli_bcapi_buffer_pipe_read_stopped
libclamav.so.11:cli_bcapi_buffer_pipe_write_avail
libclamav.so.11:cli_bcapi_buffer_pipe_write_get
libclamav.so.11:cli_bcapi_buffer_pipe_write_stopped
libclamav.so.11:cli_bcapi_bytecode_rt_error
libclamav.so.11:cli_bcapi_bzip2_done
libclamav.so.11:cli_bcapi_bzip2_init
libclamav.so.11:cli_bcapi_bzip2_process
libclamav.so.11:cli_bcapi_check_platform
libclamav.so.11:cli_bcapi_debug_print_str
libclamav.so.11:cli_bcapi_debug_print_str_nonl
libclamav.so.11:cli_bcapi_debug_print_str_start
libclamav.so.11:cli_bcapi_debug_print_uint
libclamav.so.11:cli_bcapi_disable_bytecode_if
libclamav.so.11:cli_bcapi_disable_jit_if
libclamav.so.11:cli_bcapi_disasm_x86
libclamav.so.11:cli_bcapi_engine_db_options
libclamav.so.11:cli_bcapi_engine_dconf_level
libclamav.so.11:cli_bcapi_engine_functionality_level
libclamav.so.11:cli_bcapi_engine_scan_options
libclamav.so.11:cli_bcapi_engine_scan_options_ex
libclamav.so.11:cli_bcapi_entropy_buffer
libclamav.so.11:cli_bcapi_extract_new
libclamav.so.11:cli_bcapi_extract_set_container
libclamav.so.11:cli_bcapi_file_byteat
libclamav.so.11:cli_bcapi_file_find
libclamav.so.11:cli_bcapi_file_find_limit
libclamav.so.11:cli_bcapi_fill_buffer
libclamav.so.11:cli_bcapi_get_environment
libclamav.so.11:cli_bcapi_get_file_reliability
libclamav.so.11:cli_bcapi_get_pe_section
libclamav.so.11:cli_bcapi_hashset_add
libclamav.so.11:cli_bcapi_hashset_contains
libclamav.so.11:cli_bcapi_hashset_done
libclamav.so.11:cli_bcapi_hashset_empty
libclamav.so.11:cli_bcapi_hashset_new
libclamav.so.11:cli_bcapi_hashset_remove
libclamav.so.11:cli_bcapi_hex2ui
libclamav.so.11:cli_bcapi_icos
libclamav.so.11:cli_bcapi_iexp
libclamav.so.11:cli_bcapi_ilog2
libclamav.so.11:cli_bcapi_inflate_done
libclamav.so.11:cli_bcapi_inflate_init
libclamav.so.11:cli_bcapi_inflate_process
libclamav.so.11:cli_bcapi_input_switch
libclamav.so.11:cli_bcapi_ipow
libclamav.so.11:cli_bcapi_isin
libclamav.so.11:cli_bcapi_jsnorm_done
libclamav.so.11:cli_bcapi_jsnorm_init
libclamav.so.11:cli_bcapi_jsnorm_process
libclamav.so.11:cli_bcapi_json_get_array_idx
libclamav.so.11:cli_bcapi_json_get_array_length
libclamav.so.11:cli_bcapi_json_get_boolean
libclamav.so.11:cli_bcapi_json_get_int
libclamav.so.11:cli_bcapi_json_get_object
libclamav.so.11:cli_bcapi_json_get_string
libclamav.so.11:cli_bcapi_json_get_string_length
libclamav.so.11:cli_bcapi_json_get_type
libclamav.so.11:cli_bcapi_json_is_active
libclamav.so.11:cli_bcapi_lzma_done
libclamav.so.11:cli_bcapi_lzma_init
libclamav.so.11:cli_bcapi_lzma_process
libclamav.so.11:cli_bcapi_malloc
libclamav.so.11:cli_bcapi_map_addkey
libclamav.so.11:cli_bcapi_map_done
libclamav.so.11:cli_bcapi_map_find
libclamav.so.11:cli_bcapi_map_getvalue
libclamav.so.11:cli_bcapi_map_getvaluesize
libclamav.so.11:cli_bcapi_map_new
libclamav.so.11:cli_bcapi_map_remove
libclamav.so.11:cli_bcapi_map_setvalue
libclamav.so.11:cli_bcapi_matchicon
libclamav.so.11:cli_bcapi_memstr
libclamav.so.11:cli_bcapi_pdf_get_dumpedobjid
libclamav.so.11:cli_bcapi_pdf_get_flags
libclamav.so.11:cli_bcapi_pdf_get_obj_num
libclamav.so.11:cli_bcapi_pdf_get_offset
libclamav.so.11:cli_bcapi_pdf_get_phase
libclamav.so.11:cli_bcapi_pdf_getobj
libclamav.so.11:cli_bcapi_pdf_getobjflags
libclamav.so.11:cli_bcapi_pdf_getobjid
libclamav.so.11:cli_bcapi_pdf_getobjsize
libclamav.so.11:cli_bcapi_pdf_lookupobj
libclamav.so.11:cli_bcapi_pdf_set_flags
libclamav.so.11:cli_bcapi_pdf_setobjflags
libclamav.so.11:cli_bcapi_pe_rawaddr
libclamav.so.11:cli_bcapi_read
libclamav.so.11:cli_bcapi_read_number
libclamav.so.11:cli_bcapi_running_on_jit
libclamav.so.11:cli_bcapi_seek
libclamav.so.11:cli_bcapi_setvirusname
libclamav.so.11:cli_bcapi_test1
libclamav.so.11:cli_bcapi_test2
libclamav.so.11:cli_bcapi_trace_directory
libclamav.so.11:cli_bcapi_trace_op
libclamav.so.11:cli_bcapi_trace_ptr
libclamav.so.11:cli_bcapi_trace_scope
libclamav.so.11:cli_bcapi_trace_source
libclamav.so.11:cli_bcapi_trace_value
libclamav.so.11:cli_bcapi_version_compare
libclamav.so.11:cli_bcapi_write
libclamav.so.11:cli_bcomp_addpatt
libclamav.so.11:cli_bcomp_chk_hex
libclamav.so.11:cli_bcomp_compare_check
libclamav.so.11:cli_bcomp_freemeta
libclamav.so.11:cli_bcomp_normalize_buffer
libclamav.so.11:cli_bcomp_scanbuf
libclamav.so.11:cli_binhex
libclamav.so.11:cli_bitset_free
libclamav.so.11:cli_bitset_init
libclamav.so.11:cli_bitset_set
libclamav.so.11:cli_bitset_test
libclamav.so.11:cli_bm_addpatt
libclamav.so.11:cli_bm_free
libclamav.so.11:cli_bm_freeoff
libclamav.so.11:cli_bm_init
libclamav.so.11:cli_bm_initoff
libclamav.so.11:cli_bm_scanbuff
libclamav.so.11:cli_build_regex_list
libclamav.so.11:cli_bytecode_context_alloc
libclamav.so.11:cli_bytecode_context_destroy
libclamav.so.11:cli_bytecode_context_getresult_file
libclamav.so.11:cli_bytecode_context_getresult_int
libclamav.so.11:cli_bytecode_context_set_trace
libclamav.so.11:cli_bytecode_context_setctx
libclamav.so.11:cli_bytecode_context_setfile
libclamav.so.11:cli_bytecode_context_setfuncid
libclamav.so.11:cli_bytecode_context_setparam_int
libclamav.so.11:cli_bytecode_context_setparam_ptr
libclamav.so.11:cli_bytecode_context_setpdf
libclamav.so.11:cli_bytecode_context_setpe
libclamav.so.11:cli_bytecode_debug
libclamav.so.11:cli_bytecode_debug_printsrc
libclamav.so.11:cli_bytecode_describe
libclamav.so.11:cli_bytecode_destroy
libclamav.so.11:cli_bytecode_done
libclamav.so.11:cli_bytecode_done_jit
libclamav.so.11:cli_bytecode_init
libclamav.so.11:cli_bytecode_init_jit
libclamav.so.11:cli_bytecode_load
libclamav.so.11:cli_bytecode_prepare2
libclamav.so.11:cli_bytecode_prepare_jit
libclamav.so.11:cli_bytecode_printversion
libclamav.so.11:cli_bytecode_run
libclamav.so.11:cli_bytecode_runhook
libclamav.so.11:cli_bytecode_runlsig
libclamav.so.11:cli_bytefunc_describe
libclamav.so.11:cli_byteinst_describe
libclamav.so.11:cli_bytetype_describe
libclamav.so.11:cli_bytevalue_describe
libclamav.so.11:cli_calloc
libclamav.so.11:cli_caloff
libclamav.so.11:cli_check_auth_header
libclamav.so.11:cli_check_fp
libclamav.so.11:cli_check_mydoom_log
libclamav.so.11:cli_check_riff_exploit
libclamav.so.11:cli_checklimits
libclamav.so.11:cli_checktimelimit
libclamav.so.11:cli_chomp
libclamav.so.11:cli_codepage_to_utf8
libclamav.so.11:cli_compare_ftm_file
libclamav.so.11:cli_compare_ftm_partition
libclamav.so.11:cli_crt_clear
libclamav.so.11:cli_crt_init
libclamav.so.11:cli_ctime
libclamav.so.11:cli_cvdload
libclamav.so.11:cli_dbgets
libclamav.so.11:cli_dbgmsg
libclamav.so.11:cli_dbgmsg_no_inline
libclamav.so.11:cli_dconf_init
libclamav.so.11:cli_dconf_load
libclamav.so.11:cli_dconf_print
libclamav.so.11:cli_detect_env_jit
libclamav.so.11:cli_detect_environment
libclamav.so.11:cli_detect_swizz
libclamav.so.11:cli_detect_swizz_str
libclamav.so.11:cli_determine_fmap_type
libclamav.so.11:cli_disasm_one
libclamav.so.11:cli_egg_bzip2_decompress
libclamav.so.11:cli_egg_close
libclamav.so.11:cli_egg_deflate_decompress
libclamav.so.11:cli_egg_extract_file
libclamav.so.11:cli_egg_lzma_decompress
libclamav.so.11:cli_egg_open
libclamav.so.11:cli_egg_peek_file_header
libclamav.so.11:cli_egg_skip_file
libclamav.so.11:cli_elfheader
libclamav.so.11:cli_eprintf
libclamav.so.11:cli_errmsg
libclamav.so.11:cli_event_count
libclamav.so.11:cli_event_data
libclamav.so.11:cli_event_debug
libclamav.so.11:cli_event_debug_all
libclamav.so.11:cli_event_define
libclamav.so.11:cli_event_diff
libclamav.so.11:cli_event_diff_all
libclamav.so.11:cli_event_error_oom
libclamav.so.11:cli_event_error_str
libclamav.so.11:cli_event_errors
libclamav.so.11:cli_event_fastdata
libclamav.so.11:cli_event_get
libclamav.so.11:cli_event_get_name
libclamav.so.11:cli_event_int
libclamav.so.11:cli_event_string
libclamav.so.11:cli_event_time_nested_start
libclamav.so.11:cli_event_time_nested_stop
libclamav.so.11:cli_event_time_start
libclamav.so.11:cli_event_time_stop
libclamav.so.11:cli_events_free
libclamav.so.11:cli_events_new
libclamav.so.11:cli_exe_info_destroy
libclamav.so.11:cli_exe_info_init
libclamav.so.11:cli_exp_eval
libclamav.so.11:cli_extract_images_from_drawing_group
libclamav.so.11:cli_extract_xlm_macros_and_images
libclamav.so.11:cli_filecopy
libclamav.so.11:cli_free_vba_project
libclamav.so.11:cli_ftcode
libclamav.so.11:cli_ftfree
libclamav.so.11:cli_ftname
libclamav.so.11:cli_ftw
libclamav.so.11:cli_genfname
libclamav.so.11:cli_genhash_pe
libclamav.so.11:cli_gentemp
libclamav.so.11:cli_gentemp_with_prefix
libclamav.so.11:cli_gentempfd
libclamav.so.11:cli_gentempfd_with_prefix
libclamav.so.11:cli_get_debug_flag
libclamav.so.11:cli_get_filepath_from_filedesc
libclamav.so.11:cli_get_last_virus
libclamav.so.11:cli_get_last_virus_str
libclamav.so.11:cli_getdsig
libclamav.so.11:cli_gettmpdir
libclamav.so.11:cli_groupiconscan
libclamav.so.11:cli_hashfile
libclamav.so.11:cli_hashset_addkey
libclamav.so.11:cli_hashset_contains
libclamav.so.11:cli_hashset_contains_maybe_noalloc
libclamav.so.11:cli_hashset_destroy
libclamav.so.11:cli_hashset_init
libclamav.so.11:cli_hashset_init_noalloc
libclamav.so.11:cli_hashset_init_pool
libclamav.so.11:cli_hashset_removekey
libclamav.so.11:cli_hashset_toarray
libclamav.so.11:cli_hashstream
